
demo:     file format elf32-tradlittlemips


Disassembly of section .text:

bfc00000 <_start>:
D:\loongson\works\ls1d-demo-public-release/bootloader/start.S:27
	 */
_start:
	/*
	 *	初始化CPU核，关闭8M定时器，初始化CP0控制部件和硬件浮点部件。
	 */
	li		t0, 0x8000000   #disable cp0_count
bfc00000:	00 08 08 3c 00 68 88 40 40 30 08 3c 00 60 88 40     ...<.h.@@0.<.`.@
D:\loongson\works\ls1d-demo-public-release/bootloader/start.S:31
	mtc0	t0, CP0_CAUSE
	li      t0, 0x30400000
    mtc0    t0, CP0_STATUS
	li		t0, 0x00000000  #set fp reg, it's necessory
bfc00010:	00 00 08 24 00 f8 c8 44 ea bf 08 3c 10 80 08 35     ...$...D...<...5
D:\loongson\works\ls1d-demo-public-release/bootloader/start.S:36
	ctc1	t0, $31

	/* disable NMI */
	li		t0, 0xbfea8010
	li		t1, 0x5a
bfc00020:	5a 00 09 24 00 00 09 a1 a5 00 09 24 00 00 09 a1     Z..$.......$....
D:\loongson\works\ls1d-demo-public-release/bootloader/start.S:40
	sb		t1, 0(t0)
	li		t1, 0xa5
	sb		t1, 0(t0)
	li		t1, 0x0
bfc00030:	00 00 09 24 00 00 09 a1 eb bf 08 3c 10 00 09 8d     ...$.......<....
D:\loongson\works\ls1d-demo-public-release/bootloader/start.S:50
	 *	如果为低电平，则芯片是执行片内flash中的程序，
	 *	如果为高电平，则芯片是执行片外spi-flash中的程序，则配置SPI控制器的PARAM寄存器，加快取指速度。
	 */
	li		t0, 0xbfeb0000
	lw		t1, 0x10(t0)
	li		t2, 0xfffbffff
bfc00040:	fb ff 0a 3c ff ff 4a 35 24 58 2a 01 10 00 0b ad     ...<..J5$X*.....
D:\loongson\works\ls1d-demo-public-release/bootloader/start.S:54
	and		t3, t1, t2
	sw		t3, 0x10(t0)

	lw		t1, 0x18(t0)
bfc00050:	18 00 09 8d 04 00 0a 3c 24 58 2a 01 04 00 0b 10     .......<$X*.....
D:\loongson\works\ls1d-demo-public-release/bootloader/start.S:58
	li		t2, 0x40000
	and		t3, t1, t2
	beq		zero, t3, 1f
	nop
bfc00060:	00 00 00 00 e7 bf 08 3c 17 00 09 24 04 00 09 a1     .......<...$....
D:\loongson\works\ls1d-demo-public-release/bootloader/start.S:69
1:
	/*
	 *	检测soft-flag标志位，系统复位后所有寄存器恢复默认值，此时soft-flag为0；
	 *	系统每次休眠之前，软件会保证soft-flag为一非0值，因此如果系统从休眠中唤醒，此时soft-flag不为0。
	 */
	li		t0, 0xbfeb0000
bfc00070:	eb bf 08 3c 0c 00 09 8d 00 f8 0a 3c 24 58 2a 01     ...<.......<$X*.
D:\loongson\works\ls1d-demo-public-release/bootloader/start.S:73
	lw		t1, 0xc(t0)
	li		t2, 0xf8000000		#check soft-flag
	and		t3, t1, t2
	bne		zero, t3, 100f		#如果是从休眠中唤醒，则不初始化不掉电的1K SRAM
bfc00080:	0a 00 0b 14 00 00 00 00 00 a0 09 3c 00 10 29 35     ...........<..)5
D:\loongson\works\ls1d-demo-public-release/bootloader/start.S:81
	/*
	 *	系统复位操作之后，需要对不掉电的1K SRAM做初始化操作，即清零操作；
	 *	一般这段空间用来保存全局变量和一些关键数据。
	 */
	li		t1, 0xa0001000
	li		t2, 0x400
bfc00090:	00 04 0a 24 21 10 00 00 00 00 22 ad 04 00 29 25     ...$!....."...)%
D:\loongson\works\ls1d-demo-public-release/bootloader/start.S:86
10:
	move	v0, zero
	sw		v0, 0x0(t1)
	addu	t1, 4
	addu	t2, -4
bfc000a0:	fc ff 4a 25 fb ff 0a 14 00 00 00 00 00 a0 08 3c     ..J%...........<
D:\loongson\works\ls1d-demo-public-release/bootloader/start.S:94

100:
	/*
	 *	初始化堆栈寄存器，一般堆栈使用掉电的4K SRAM
	 */
	li		t0, SRAM_BASEADDR+0xffc
bfc000b0:	fc 0f 08 35 00 00 1d 25 c0 bf 19 3c 00 06 39 27     ...5...%...<..9'
D:\loongson\works\ls1d-demo-public-release/bootloader/start.S:101

	/*
	 *	jump to C code
	 */
	la		t9, main
	jr		t9
bfc000c0:	08 00 20 03 00 00 00 00 ff ff 00 10 00 00 00 00     .. .............

bfc000d0 <_finish>:
D:\loongson\works\ls1d-demo-public-release/bootloader/start.S:113
/*******************************************************************/

/*******************************************************************/

_finish:
	nop
bfc000d0:	00000000 	nop
bfc000d4:	00000000 	nop
bfc000d8:	00000000 	nop
bfc000dc:	00000000 	nop
bfc000e0:	00000000 	nop
bfc000e4:	00000000 	nop
bfc000e8:	00000000 	nop
bfc000ec:	00000000 	nop
bfc000f0:	00000000 	nop
bfc000f4:	00000000 	nop
bfc000f8:	00000000 	nop
bfc000fc:	00000000 	nop
bfc00100:	00000000 	nop
bfc00104:	00000000 	nop
bfc00108:	00000000 	nop
bfc0010c:	00000000 	nop
bfc00110:	00000000 	nop
bfc00114:	00000000 	nop
bfc00118:	00000000 	nop
bfc0011c:	00000000 	nop
bfc00120:	00000000 	nop
bfc00124:	00000000 	nop
bfc00128:	00000000 	nop
bfc0012c:	00000000 	nop
bfc00130:	00000000 	nop
bfc00134:	00000000 	nop
bfc00138:	00000000 	nop
bfc0013c:	00000000 	nop
bfc00140:	00000000 	nop
bfc00144:	00000000 	nop
bfc00148:	00000000 	nop
bfc0014c:	00000000 	nop
bfc00150:	00000000 	nop
bfc00154:	00000000 	nop
bfc00158:	00000000 	nop
bfc0015c:	00000000 	nop
bfc00160:	00000000 	nop
bfc00164:	00000000 	nop
bfc00168:	00000000 	nop
bfc0016c:	00000000 	nop
bfc00170:	00000000 	nop
bfc00174:	00000000 	nop
bfc00178:	00000000 	nop
bfc0017c:	00000000 	nop
bfc00180:	00000000 	nop
bfc00184:	00000000 	nop
bfc00188:	00000000 	nop
bfc0018c:	00000000 	nop
bfc00190:	00000000 	nop
bfc00194:	00000000 	nop
bfc00198:	00000000 	nop
bfc0019c:	00000000 	nop
bfc001a0:	00000000 	nop
bfc001a4:	00000000 	nop
bfc001a8:	00000000 	nop
bfc001ac:	00000000 	nop
bfc001b0:	00000000 	nop
bfc001b4:	00000000 	nop
bfc001b8:	00000000 	nop
bfc001bc:	00000000 	nop
bfc001c0:	00000000 	nop
bfc001c4:	00000000 	nop
bfc001c8:	00000000 	nop
bfc001cc:	00000000 	nop
bfc001d0:	00000000 	nop
bfc001d4:	00000000 	nop
bfc001d8:	00000000 	nop
bfc001dc:	00000000 	nop
bfc001e0:	00000000 	nop
bfc001e4:	00000000 	nop
bfc001e8:	00000000 	nop
bfc001ec:	00000000 	nop
bfc001f0:	00000000 	nop
bfc001f4:	00000000 	nop
bfc001f8:	00000000 	nop
bfc001fc:	00000000 	nop
D:\loongson\works\ls1d-demo-public-release/bootloader/start.S:119

/*
	将中断异常地址对齐到指定位置
*/
    .align 9
    nop
bfc00200:	00000000 	nop
bfc00204:	00000000 	nop
bfc00208:	00000000 	nop
bfc0020c:	00000000 	nop
bfc00210:	00000000 	nop
bfc00214:	00000000 	nop
bfc00218:	00000000 	nop
bfc0021c:	00000000 	nop
bfc00220:	00000000 	nop
bfc00224:	00000000 	nop
bfc00228:	00000000 	nop
bfc0022c:	00000000 	nop
bfc00230:	00000000 	nop
bfc00234:	00000000 	nop
bfc00238:	00000000 	nop
bfc0023c:	00000000 	nop
bfc00240:	00000000 	nop
bfc00244:	00000000 	nop
bfc00248:	00000000 	nop
bfc0024c:	00000000 	nop
bfc00250:	00000000 	nop
bfc00254:	00000000 	nop
bfc00258:	00000000 	nop
bfc0025c:	00000000 	nop
bfc00260:	00000000 	nop
bfc00264:	00000000 	nop
bfc00268:	00000000 	nop
bfc0026c:	00000000 	nop
bfc00270:	00000000 	nop
bfc00274:	00000000 	nop
bfc00278:	00000000 	nop
bfc0027c:	00000000 	nop
bfc00280:	00000000 	nop
bfc00284:	00000000 	nop
bfc00288:	00000000 	nop
bfc0028c:	00000000 	nop
bfc00290:	00000000 	nop
bfc00294:	00000000 	nop
bfc00298:	00000000 	nop
bfc0029c:	00000000 	nop
bfc002a0:	00000000 	nop
bfc002a4:	00000000 	nop
bfc002a8:	00000000 	nop
bfc002ac:	00000000 	nop
bfc002b0:	00000000 	nop
bfc002b4:	00000000 	nop
bfc002b8:	00000000 	nop
bfc002bc:	00000000 	nop
bfc002c0:	00000000 	nop
bfc002c4:	00000000 	nop
bfc002c8:	00000000 	nop
bfc002cc:	00000000 	nop
bfc002d0:	00000000 	nop
bfc002d4:	00000000 	nop
bfc002d8:	00000000 	nop
bfc002dc:	00000000 	nop
bfc002e0:	00000000 	nop
bfc002e4:	00000000 	nop
bfc002e8:	00000000 	nop
bfc002ec:	00000000 	nop
bfc002f0:	00000000 	nop
bfc002f4:	00000000 	nop
bfc002f8:	00000000 	nop
bfc002fc:	00000000 	nop
D:\loongson\works\ls1d-demo-public-release/bootloader/start.S:121
    .align 8
    nop
bfc00300:	00000000 	nop
bfc00304:	00000000 	nop
bfc00308:	00000000 	nop
bfc0030c:	00000000 	nop
bfc00310:	00000000 	nop
bfc00314:	00000000 	nop
bfc00318:	00000000 	nop
bfc0031c:	00000000 	nop
bfc00320:	00000000 	nop
bfc00324:	00000000 	nop
bfc00328:	00000000 	nop
bfc0032c:	00000000 	nop
bfc00330:	00000000 	nop
bfc00334:	00000000 	nop
bfc00338:	00000000 	nop
bfc0033c:	00000000 	nop
bfc00340:	00000000 	nop
bfc00344:	00000000 	nop
bfc00348:	00000000 	nop
bfc0034c:	00000000 	nop
bfc00350:	00000000 	nop
bfc00354:	00000000 	nop
bfc00358:	00000000 	nop
bfc0035c:	00000000 	nop
bfc00360:	00000000 	nop
bfc00364:	00000000 	nop
bfc00368:	00000000 	nop
bfc0036c:	00000000 	nop
bfc00370:	00000000 	nop
bfc00374:	00000000 	nop
bfc00378:	00000000 	nop
bfc0037c:	00000000 	nop

bfc00380 <IntHandle>:
D:\loongson\works\ls1d-demo-public-release/bootloader/start.S:131
	/*
	 *	通用异常入口
	 */
IntHandle:
	.set noat
	SAVE_ALL
bfc00380:	23bdff7c 	addi	sp,sp,-132
bfc00384:	afa00080 	sw	zero,128(sp)
bfc00388:	afa1007c 	sw	at,124(sp)
bfc0038c:	afa20078 	sw	v0,120(sp)
bfc00390:	afa30074 	sw	v1,116(sp)
bfc00394:	afa40070 	sw	a0,112(sp)
bfc00398:	afa5006c 	sw	a1,108(sp)
bfc0039c:	afa60068 	sw	a2,104(sp)
bfc003a0:	afa70064 	sw	a3,100(sp)
bfc003a4:	afa80060 	sw	t0,96(sp)
bfc003a8:	afa9005c 	sw	t1,92(sp)
bfc003ac:	afaa0058 	sw	t2,88(sp)
bfc003b0:	afab0054 	sw	t3,84(sp)
bfc003b4:	afac0050 	sw	t4,80(sp)
bfc003b8:	afad004c 	sw	t5,76(sp)
bfc003bc:	afae0048 	sw	t6,72(sp)
bfc003c0:	afaf0044 	sw	t7,68(sp)
bfc003c4:	afb00040 	sw	s0,64(sp)
bfc003c8:	afb1003c 	sw	s1,60(sp)
bfc003cc:	afb20038 	sw	s2,56(sp)
bfc003d0:	afb30034 	sw	s3,52(sp)
bfc003d4:	afb40030 	sw	s4,48(sp)
bfc003d8:	afb5002c 	sw	s5,44(sp)
bfc003dc:	afb60028 	sw	s6,40(sp)
bfc003e0:	afb70024 	sw	s7,36(sp)
bfc003e4:	afb80020 	sw	t8,32(sp)
bfc003e8:	afb9001c 	sw	t9,28(sp)
bfc003ec:	afba0018 	sw	k0,24(sp)
bfc003f0:	afbb0014 	sw	k1,20(sp)
bfc003f4:	afbc0010 	sw	gp,16(sp)
bfc003f8:	afbd000c 	sw	sp,12(sp)
bfc003fc:	afbe0008 	sw	s8,8(sp)
bfc00400:	afbf0004 	sw	ra,4(sp)
D:\loongson\works\ls1d-demo-public-release/bootloader/start.S:133

	bal		IRQ_Exception	#跳到中断处理函数
bfc00404:	0411278e 	bal	bfc0a240 <IRQ_Exception>
D:\loongson\works\ls1d-demo-public-release/bootloader/start.S:134
	nop
bfc00408:	00000000 	nop

bfc0040c <leave>:
D:\loongson\works\ls1d-demo-public-release/bootloader/start.S:137

leave:
	LOAD_ALL
bfc0040c:	8fa00080 	lw	zero,128(sp)
bfc00410:	8fa1007c 	lw	at,124(sp)
bfc00414:	8fa20078 	lw	v0,120(sp)
bfc00418:	8fa30074 	lw	v1,116(sp)
bfc0041c:	8fa40070 	lw	a0,112(sp)
bfc00420:	8fa5006c 	lw	a1,108(sp)
bfc00424:	8fa60068 	lw	a2,104(sp)
bfc00428:	8fa70064 	lw	a3,100(sp)
bfc0042c:	8fa80060 	lw	t0,96(sp)
bfc00430:	8fa9005c 	lw	t1,92(sp)
bfc00434:	8faa0058 	lw	t2,88(sp)
bfc00438:	8fab0054 	lw	t3,84(sp)
bfc0043c:	8fac0050 	lw	t4,80(sp)
bfc00440:	8fad004c 	lw	t5,76(sp)
bfc00444:	8fae0048 	lw	t6,72(sp)
bfc00448:	8faf0044 	lw	t7,68(sp)
bfc0044c:	8fb00040 	lw	s0,64(sp)
bfc00450:	8fb1003c 	lw	s1,60(sp)
bfc00454:	8fb20038 	lw	s2,56(sp)
bfc00458:	8fb30034 	lw	s3,52(sp)
bfc0045c:	8fb40030 	lw	s4,48(sp)
bfc00460:	8fb5002c 	lw	s5,44(sp)
bfc00464:	8fb60028 	lw	s6,40(sp)
bfc00468:	8fb70024 	lw	s7,36(sp)
bfc0046c:	8fb80020 	lw	t8,32(sp)
bfc00470:	8fb9001c 	lw	t9,28(sp)
bfc00474:	8fba0018 	lw	k0,24(sp)
bfc00478:	8fbb0014 	lw	k1,20(sp)
bfc0047c:	8fbc0010 	lw	gp,16(sp)
bfc00480:	8fbd000c 	lw	sp,12(sp)
bfc00484:	8fbe0008 	lw	s8,8(sp)
bfc00488:	8fbf0004 	lw	ra,4(sp)
bfc0048c:	23bd0084 	addi	sp,sp,132
D:\loongson\works\ls1d-demo-public-release/bootloader/start.S:138
	eret
bfc00490:	42000018 	eret

bfc00494 <_end>:
D:\loongson\works\ls1d-demo-public-release/bootloader/start.S:142
	.set at

_end:
	nop
bfc00494:	00000000 	nop
D:\loongson\works\ls1d-demo-public-release/bootloader/start.S:143
	nop
bfc00498:	00000000 	nop
_end():
bfc0049c:	00000000 	nop
bfc004a0:	00000000 	nop
bfc004a4:	00000000 	nop
bfc004a8:	00000000 	nop
bfc004ac:	00000000 	nop
bfc004b0:	00000000 	nop
bfc004b4:	00000000 	nop
bfc004b8:	00000000 	nop
bfc004bc:	00000000 	nop
bfc004c0:	00000000 	nop
bfc004c4:	00000000 	nop
bfc004c8:	00000000 	nop
bfc004cc:	00000000 	nop
bfc004d0:	00000000 	nop
bfc004d4:	00000000 	nop
bfc004d8:	00000000 	nop
bfc004dc:	00000000 	nop
bfc004e0:	00000000 	nop
bfc004e4:	00000000 	nop
bfc004e8:	00000000 	nop
bfc004ec:	00000000 	nop
bfc004f0:	00000000 	nop
bfc004f4:	00000000 	nop
bfc004f8:	00000000 	nop
bfc004fc:	00000000 	nop
bfc00500:	00000000 	nop
bfc00504:	00000000 	nop
bfc00508:	00000000 	nop
bfc0050c:	00000000 	nop
bfc00510:	00000000 	nop
bfc00514:	00000000 	nop
bfc00518:	00000000 	nop
bfc0051c:	00000000 	nop
bfc00520:	00000000 	nop
bfc00524:	00000000 	nop
bfc00528:	00000000 	nop
bfc0052c:	00000000 	nop
bfc00530:	00000000 	nop
bfc00534:	00000000 	nop
bfc00538:	00000000 	nop
bfc0053c:	00000000 	nop
bfc00540:	00000000 	nop
bfc00544:	00000000 	nop
bfc00548:	00000000 	nop
bfc0054c:	00000000 	nop
bfc00550:	00000000 	nop
bfc00554:	00000000 	nop
bfc00558:	00000000 	nop
bfc0055c:	00000000 	nop
bfc00560:	00000000 	nop
bfc00564:	00000000 	nop
bfc00568:	00000000 	nop
bfc0056c:	00000000 	nop
bfc00570:	00000000 	nop
bfc00574:	00000000 	nop
bfc00578:	00000000 	nop
bfc0057c:	00000000 	nop
bfc00580:	00000000 	nop
bfc00584:	00000000 	nop
bfc00588:	00000000 	nop
bfc0058c:	00000000 	nop
bfc00590:	00000000 	nop
bfc00594:	00000000 	nop
bfc00598:	00000000 	nop
bfc0059c:	00000000 	nop
bfc005a0:	00000000 	nop
bfc005a4:	00000000 	nop
bfc005a8:	00000000 	nop
bfc005ac:	00000000 	nop
bfc005b0:	00000000 	nop
bfc005b4:	00000000 	nop
bfc005b8:	00000000 	nop
bfc005bc:	00000000 	nop
bfc005c0:	00000000 	nop
bfc005c4:	00000000 	nop
bfc005c8:	00000000 	nop
bfc005cc:	00000000 	nop
bfc005d0:	00000000 	nop
bfc005d4:	00000000 	nop
bfc005d8:	00000000 	nop
bfc005dc:	00000000 	nop
bfc005e0:	00000000 	nop
bfc005e4:	00000000 	nop
bfc005e8:	00000000 	nop
bfc005ec:	00000000 	nop
bfc005f0:	00000000 	nop
bfc005f4:	00000000 	nop
bfc005f8:	00000000 	nop
bfc005fc:	00000000 	nop

bfc00600 <main>:
main():
D:\loongson\works\ls1d-demo-public-release/main.c:16

struct SYSTEM LS1D;
struct LS1DTEST TEST;

int main()
{
bfc00600:	27bdffe8 	addiu	sp,sp,-24
bfc00604:	afbf0014 	sw	ra,20(sp)
bfc00608:	afbe0010 	sw	s8,16(sp)
bfc0060c:	03a0f021 	move	s8,sp
D:\loongson\works\ls1d-demo-public-release/main.c:18

	Uart1_38400B();
bfc00610:	3c02bfc1 	lui	v0,0xbfc1
bfc00614:	2459a890 	addiu	t9,v0,-22384
bfc00618:	0320f809 	jalr	t9
bfc0061c:	00000000 	nop
D:\loongson\works\ls1d-demo-public-release/main.c:19
	INTERRUPT_ENABLE;
bfc00620:	40086000 	mfc0	t0,c0_status
bfc00624:	3c09ffff 	lui	t1,0xffff
bfc00628:	352900fe 	ori	t1,t1,0xfe
bfc0062c:	01095024 	and	t2,t0,t1
bfc00630:	3409ff01 	li	t1,0xff01
bfc00634:	01494025 	or	t0,t2,t1
bfc00638:	40886000 	mtc0	t0,c0_status
D:\loongson\works\ls1d-demo-public-release/main.c:20
	printf("\n-------------Welcome to LS1D!----------------\n\n");
bfc0063c:	3c02bfc1 	lui	v0,0xbfc1
bfc00640:	2444c400 	addiu	a0,v0,-15360
bfc00644:	3c02bfc1 	lui	v0,0xbfc1
bfc00648:	2459bcb0 	addiu	t9,v0,-17232
bfc0064c:	0320f809 	jalr	t9
bfc00650:	00000000 	nop
D:\loongson\works\ls1d-demo-public-release/main.c:22

	sys_init();
bfc00654:	3c02bfc0 	lui	v0,0xbfc0
bfc00658:	245906d0 	addiu	t9,v0,1744
bfc0065c:	0320f809 	jalr	t9
bfc00660:	00000000 	nop
D:\loongson\works\ls1d-demo-public-release/main.c:24

	cmdline();
bfc00664:	3c02bfc0 	lui	v0,0xbfc0
bfc00668:	24596540 	addiu	t9,v0,25920
bfc0066c:	0320f809 	jalr	t9
bfc00670:	00000000 	nop
D:\loongson\works\ls1d-demo-public-release/main.c:29

	/*主循环*/
	while(1)
	{
		printf("111\n");
bfc00674:	3c02bfc1 	lui	v0,0xbfc1
bfc00678:	2444c430 	addiu	a0,v0,-15312
bfc0067c:	3c02bfc1 	lui	v0,0xbfc1
bfc00680:	2459bcb0 	addiu	t9,v0,-17232
bfc00684:	0320f809 	jalr	t9
bfc00688:	00000000 	nop
D:\loongson\works\ls1d-demo-public-release/main.c:30
		printf("222\n");
bfc0068c:	3c02bfc1 	lui	v0,0xbfc1
bfc00690:	2444c434 	addiu	a0,v0,-15308
bfc00694:	3c02bfc1 	lui	v0,0xbfc1
bfc00698:	2459bcb0 	addiu	t9,v0,-17232
bfc0069c:	0320f809 	jalr	t9
bfc006a0:	00000000 	nop
D:\loongson\works\ls1d-demo-public-release/main.c:31
		printf("333\n");
bfc006a4:	3c02bfc1 	lui	v0,0xbfc1
bfc006a8:	2444c438 	addiu	a0,v0,-15304
bfc006ac:	3c02bfc1 	lui	v0,0xbfc1
bfc006b0:	2459bcb0 	addiu	t9,v0,-17232
bfc006b4:	0320f809 	jalr	t9
bfc006b8:	00000000 	nop
bfc006bc:	0bf0019d 	j	bfc00674 <main+0x74>
bfc006c0:	00000000 	nop
bfc006c4:	00000000 	nop
bfc006c8:	00000000 	nop
bfc006cc:	00000000 	nop

bfc006d0 <sys_init>:
sys_init():
D:\loongson\works\ls1d-demo-public-release\user/sysinit.c:14
#include "user.h"

_u32 DEBUG;

int sys_init()
{
bfc006d0:	27bdffe8 	addiu	sp,sp,-24
bfc006d4:	afbf0014 	sw	ra,20(sp)
bfc006d8:	afbe0010 	sw	s8,16(sp)
bfc006dc:	03a0f021 	move	s8,sp
D:\loongson\works\ls1d-demo-public-release\user/sysinit.c:15
	printf("\n%s...\n", __FUNCTION__);
bfc006e0:	3c02bfc1 	lui	v0,0xbfc1
bfc006e4:	2444c44c 	addiu	a0,v0,-15284
bfc006e8:	3c02bfc1 	lui	v0,0xbfc1
bfc006ec:	2445c440 	addiu	a1,v0,-15296
bfc006f0:	3c02bfc1 	lui	v0,0xbfc1
bfc006f4:	2459be10 	addiu	t9,v0,-16880
bfc006f8:	0320f809 	jalr	t9
bfc006fc:	00000000 	nop
D:\loongson\works\ls1d-demo-public-release\user/sysinit.c:16
	if(!(PMU_ChipCtrl & 0xf8000000))
bfc00700:	3c02bfeb 	lui	v0,0xbfeb
bfc00704:	3442000c 	ori	v0,v0,0xc
bfc00708:	8c430000 	lw	v1,0(v0)
bfc0070c:	3c02f800 	lui	v0,0xf800
bfc00710:	00621024 	and	v0,v1,v0
bfc00714:	1440013a 	bnez	v0,bfc00c00 <sys_init+0x530>
bfc00718:	00000000 	nop
D:\loongson\works\ls1d-demo-public-release\user/sysinit.c:18
	{
		DEBUG = 4;  //print information in detail, 3 is nomal
bfc0071c:	3c03a000 	lui	v1,0xa000
bfc00720:	24020004 	li	v0,4
bfc00724:	ac621258 	sw	v0,4696(v1)
D:\loongson\works\ls1d-demo-public-release\user/sysinit.c:20

		memset(&LS1D, 0, sizeof(struct SYSTEM));
bfc00728:	3c02a000 	lui	v0,0xa000
bfc0072c:	24441150 	addiu	a0,v0,4432
bfc00730:	00002821 	move	a1,zero
bfc00734:	24060108 	li	a2,264
bfc00738:	3c02bfc1 	lui	v0,0xbfc1
bfc0073c:	2459bb10 	addiu	t9,v0,-17648
bfc00740:	0320f809 	jalr	t9
bfc00744:	00000000 	nop
D:\loongson\works\ls1d-demo-public-release\user/sysinit.c:21
		LS1D.info.timer_delay = 0x1000000;
bfc00748:	3c02a000 	lui	v0,0xa000
bfc0074c:	24431150 	addiu	v1,v0,4432
bfc00750:	3c020100 	lui	v0,0x100
bfc00754:	ac6200e4 	sw	v0,228(v1)
D:\loongson\works\ls1d-demo-public-release\user/sysinit.c:22
		LS1D.Schedule = ls1d_scheduler;
bfc00758:	3c02a000 	lui	v0,0xa000
bfc0075c:	24431150 	addiu	v1,v0,4432
bfc00760:	3c02bfc0 	lui	v0,0xbfc0
bfc00764:	2442105c 	addiu	v0,v0,4188
bfc00768:	ac6200e8 	sw	v0,232(v1)
D:\loongson\works\ls1d-demo-public-release\user/sysinit.c:24

		memset(&TEST, 0, sizeof(struct LS1DTEST));
bfc0076c:	3c02a000 	lui	v0,0xa000
bfc00770:	24441030 	addiu	a0,v0,4144
bfc00774:	00002821 	move	a1,zero
bfc00778:	24060120 	li	a2,288
bfc0077c:	3c02bfc1 	lui	v0,0xbfc1
bfc00780:	2459bb10 	addiu	t9,v0,-17648
bfc00784:	0320f809 	jalr	t9
bfc00788:	00000000 	nop
D:\loongson\works\ls1d-demo-public-release\user/sysinit.c:25
		TEST.timer.init = ls1d_timer_init;
bfc0078c:	3c02bfc1 	lui	v0,0xbfc1
bfc00790:	2443a3b4 	addiu	v1,v0,-23628
bfc00794:	3c02a000 	lui	v0,0xa000
bfc00798:	24421030 	addiu	v0,v0,4144
bfc0079c:	ac430008 	sw	v1,8(v0)
D:\loongson\works\ls1d-demo-public-release\user/sysinit.c:26
		TEST.timer.process = ls1d_timer_process;
bfc007a0:	3c02a000 	lui	v0,0xa000
bfc007a4:	24431030 	addiu	v1,v0,4144
bfc007a8:	3c02bfc0 	lui	v0,0xbfc0
bfc007ac:	24420c20 	addiu	v0,v0,3104
bfc007b0:	ac62000c 	sw	v0,12(v1)
D:\loongson\works\ls1d-demo-public-release\user/sysinit.c:27
		TEST.timer.disable = ls1d_disable_timer;
bfc007b4:	3c02a000 	lui	v0,0xa000
bfc007b8:	24431030 	addiu	v1,v0,4144
bfc007bc:	3c02bfc1 	lui	v0,0xbfc1
bfc007c0:	2442a40c 	addiu	v0,v0,-23540
bfc007c4:	ac620010 	sw	v0,16(v1)
D:\loongson\works\ls1d-demo-public-release\user/sysinit.c:28
		TEST.waker.init = ls1d_waker_init;
bfc007c8:	3c02bfc1 	lui	v0,0xbfc1
bfc007cc:	2443a2e8 	addiu	v1,v0,-23832
bfc007d0:	3c02a000 	lui	v0,0xa000
bfc007d4:	24421030 	addiu	v0,v0,4144
bfc007d8:	ac43003c 	sw	v1,60(v0)
D:\loongson\works\ls1d-demo-public-release\user/sysinit.c:29
		TEST.waker.process = ls1d_waker_process;
bfc007dc:	3c02a000 	lui	v0,0xa000
bfc007e0:	24431030 	addiu	v1,v0,4144
bfc007e4:	3c02bfc0 	lui	v0,0xbfc0
bfc007e8:	24420c60 	addiu	v0,v0,3168
bfc007ec:	ac620040 	sw	v0,64(v1)
D:\loongson\works\ls1d-demo-public-release\user/sysinit.c:30
		TEST.rtc.init = Calendar_Init;
bfc007f0:	3c02bfc0 	lui	v0,0xbfc0
bfc007f4:	244323a4 	addiu	v1,v0,9124
bfc007f8:	3c02a000 	lui	v0,0xa000
bfc007fc:	24421030 	addiu	v0,v0,4144
bfc00800:	ac430044 	sw	v1,68(v0)
D:\loongson\works\ls1d-demo-public-release\user/sysinit.c:31
		TEST.rtc.process = Calendar_print;
bfc00804:	3c02bfc0 	lui	v0,0xbfc0
bfc00808:	24432418 	addiu	v1,v0,9240
bfc0080c:	3c02a000 	lui	v0,0xa000
bfc00810:	24421030 	addiu	v0,v0,4144
bfc00814:	ac430048 	sw	v1,72(v0)
D:\loongson\works\ls1d-demo-public-release\user/sysinit.c:32
		TEST.softint.set = ls1d_set_soft_int;
bfc00818:	3c02a000 	lui	v0,0xa000
bfc0081c:	24431030 	addiu	v1,v0,4144
bfc00820:	3c02bfc1 	lui	v0,0xbfc1
bfc00824:	2442a49c 	addiu	v0,v0,-23396
bfc00828:	ac62004c 	sw	v0,76(v1)
D:\loongson\works\ls1d-demo-public-release\user/sysinit.c:33
		TEST.softint.process = ls1d_softint_process;
bfc0082c:	3c02a000 	lui	v0,0xa000
bfc00830:	24431030 	addiu	v1,v0,4144
bfc00834:	3c02bfc0 	lui	v0,0xbfc0
bfc00838:	24420ca0 	addiu	v0,v0,3232
bfc0083c:	ac620050 	sw	v0,80(v1)
D:\loongson\works\ls1d-demo-public-release\user/sysinit.c:34
		TEST.wdt.set = ls1d_wdt_set;
bfc00840:	3c02bfc1 	lui	v0,0xbfc1
bfc00844:	2443b980 	addiu	v1,v0,-18048
bfc00848:	3c02a000 	lui	v0,0xa000
bfc0084c:	24421030 	addiu	v0,v0,4144
bfc00850:	ac430054 	sw	v1,84(v0)
D:\loongson\works\ls1d-demo-public-release\user/sysinit.c:35
		TEST.wdt.feed = ls1d_wdt_feed;
bfc00854:	3c02a000 	lui	v0,0xa000
bfc00858:	24431030 	addiu	v1,v0,4144
bfc0085c:	3c02bfc1 	lui	v0,0xbfc1
bfc00860:	2442ba14 	addiu	v0,v0,-17900
bfc00864:	ac620058 	sw	v0,88(v1)
D:\loongson\works\ls1d-demo-public-release\user/sysinit.c:36
		TEST.wdt.disable = ls1d_wdt_disable;
bfc00868:	3c02a000 	lui	v0,0xa000
bfc0086c:	24431030 	addiu	v1,v0,4144
bfc00870:	3c02bfc1 	lui	v0,0xbfc1
bfc00874:	2442ba88 	addiu	v0,v0,-17784
bfc00878:	ac62005c 	sw	v0,92(v1)
D:\loongson\works\ls1d-demo-public-release\user/sysinit.c:37
		TEST.lcd.init = ls1d_Lcd_Init;
bfc0087c:	3c02bfc0 	lui	v0,0xbfc0
bfc00880:	244313c0 	addiu	v1,v0,5056
bfc00884:	3c02a000 	lui	v0,0xa000
bfc00888:	24421030 	addiu	v0,v0,4144
bfc0088c:	ac430098 	sw	v1,152(v0)
D:\loongson\works\ls1d-demo-public-release\user/sysinit.c:38
		TEST.lcd.process = lcd_print;
bfc00890:	3c02bfc0 	lui	v0,0xbfc0
bfc00894:	244328b8 	addiu	v1,v0,10424
bfc00898:	3c02a000 	lui	v0,0xa000
bfc0089c:	24421030 	addiu	v0,v0,4144
bfc008a0:	ac43009c 	sw	v1,156(v0)
D:\loongson\works\ls1d-demo-public-release\user/sysinit.c:39
		TEST.lcd.poweron = ls1d_lcd_poweron;
bfc008a4:	3c02a000 	lui	v0,0xa000
bfc008a8:	24431030 	addiu	v1,v0,4144
bfc008ac:	3c02bfc1 	lui	v0,0xbfc1
bfc008b0:	2442ac70 	addiu	v0,v0,-21392
bfc008b4:	ac620080 	sw	v0,128(v1)
D:\loongson\works\ls1d-demo-public-release\user/sysinit.c:40
		TEST.lcd.powerdown = ls1d_lcd_powerdown;
bfc008b8:	3c02a000 	lui	v0,0xa000
bfc008bc:	24431030 	addiu	v1,v0,4144
bfc008c0:	3c02bfc1 	lui	v0,0xbfc1
bfc008c4:	2442acf0 	addiu	v0,v0,-21264
bfc008c8:	ac620084 	sw	v0,132(v1)
D:\loongson\works\ls1d-demo-public-release\user/sysinit.c:41
		TEST.lcd.clear = LcdClear;
bfc008cc:	3c02bfc1 	lui	v0,0xbfc1
bfc008d0:	2443ad6c 	addiu	v1,v0,-21140
bfc008d4:	3c02a000 	lui	v0,0xa000
bfc008d8:	24421030 	addiu	v0,v0,4144
bfc008dc:	ac430088 	sw	v1,136(v0)
D:\loongson\works\ls1d-demo-public-release\user/sysinit.c:42
		TEST.lcd.print_all = LcdPrintAll;
bfc008e0:	3c02bfc1 	lui	v0,0xbfc1
bfc008e4:	2443adc8 	addiu	v1,v0,-21048
bfc008e8:	3c02a000 	lui	v0,0xa000
bfc008ec:	24421030 	addiu	v0,v0,4144
bfc008f0:	ac43008c 	sw	v1,140(v0)
D:\loongson\works\ls1d-demo-public-release\user/sysinit.c:43
		TEST.lcd.write_reg = WriteLcdRegs;
bfc008f4:	3c02bfc1 	lui	v0,0xbfc1
bfc008f8:	2443ae28 	addiu	v1,v0,-20952
bfc008fc:	3c02a000 	lui	v0,0xa000
bfc00900:	24421030 	addiu	v0,v0,4144
bfc00904:	ac430090 	sw	v1,144(v0)
D:\loongson\works\ls1d-demo-public-release\user/sysinit.c:44
		TEST.tdc.init = ls1d_InitTdc;
bfc00908:	3c02bfc0 	lui	v0,0xbfc0
bfc0090c:	24437790 	addiu	v1,v0,30608
bfc00910:	3c02a000 	lui	v0,0xa000
bfc00914:	24421030 	addiu	v0,v0,4144
bfc00918:	ac4300a4 	sw	v1,164(v0)
D:\loongson\works\ls1d-demo-public-release\user/sysinit.c:45
		TEST.tdc.select = ls1d_tdc_select;
bfc0091c:	3c02bfc0 	lui	v0,0xbfc0
bfc00920:	24437924 	addiu	v1,v0,31012
bfc00924:	3c02a000 	lui	v0,0xa000
bfc00928:	24421030 	addiu	v0,v0,4144
bfc0092c:	ac4300a8 	sw	v1,168(v0)
D:\loongson\works\ls1d-demo-public-release\user/sysinit.c:46
		TEST.tdc.mop = Tdc_mop;
bfc00930:	3c02bfc0 	lui	v0,0xbfc0
bfc00934:	244379c0 	addiu	v1,v0,31168
bfc00938:	3c02a000 	lui	v0,0xa000
bfc0093c:	24421030 	addiu	v0,v0,4144
bfc00940:	ac4300ac 	sw	v1,172(v0)
D:\loongson\works\ls1d-demo-public-release\user/sysinit.c:47
		TEST.tdc.start = ls1d_tdc_start;
bfc00944:	3c02a000 	lui	v0,0xa000
bfc00948:	24431030 	addiu	v1,v0,4144
bfc0094c:	3c02bfc0 	lui	v0,0xbfc0
bfc00950:	24427a78 	addiu	v0,v0,31352
bfc00954:	ac6200b0 	sw	v0,176(v1)
D:\loongson\works\ls1d-demo-public-release\user/sysinit.c:48
		TEST.tdc.print = ls1d_tdc_print;
bfc00958:	3c02bfc0 	lui	v0,0xbfc0
bfc0095c:	24431440 	addiu	v1,v0,5184
bfc00960:	3c02a000 	lui	v0,0xa000
bfc00964:	24421030 	addiu	v0,v0,4144
bfc00968:	ac4300b4 	sw	v1,180(v0)
D:\loongson\works\ls1d-demo-public-release\user/sysinit.c:49
		TEST.key.open = ls1d_key_open;
bfc0096c:	3c02a000 	lui	v0,0xa000
bfc00970:	24431030 	addiu	v1,v0,4144
bfc00974:	3c02bfc1 	lui	v0,0xbfc1
bfc00978:	24429750 	addiu	v0,v0,-26800
bfc0097c:	ac6200b8 	sw	v0,184(v1)
D:\loongson\works\ls1d-demo-public-release\user/sysinit.c:50
		TEST.key.close = ls1d_key_close;
bfc00980:	3c02a000 	lui	v0,0xa000
bfc00984:	24431030 	addiu	v1,v0,4144
bfc00988:	3c02bfc1 	lui	v0,0xbfc1
bfc0098c:	2442988c 	addiu	v0,v0,-26484
bfc00990:	ac6200bc 	sw	v0,188(v1)
D:\loongson\works\ls1d-demo-public-release\user/sysinit.c:51
		TEST.key.process = ls1d_key_delay;
bfc00994:	3c02a000 	lui	v0,0xa000
bfc00998:	24431030 	addiu	v1,v0,4144
bfc0099c:	3c02bfc0 	lui	v0,0xbfc0
bfc009a0:	24421830 	addiu	v0,v0,6192
bfc009a4:	ac6200c0 	sw	v0,192(v1)
D:\loongson\works\ls1d-demo-public-release\user/sysinit.c:52
		TEST.adc.init = ls1d_adc_init;
bfc009a8:	3c02a000 	lui	v0,0xa000
bfc009ac:	24431030 	addiu	v1,v0,4144
bfc009b0:	3c02bfc0 	lui	v0,0xbfc0
bfc009b4:	24421924 	addiu	v0,v0,6436
bfc009b8:	ac6200c4 	sw	v0,196(v1)
D:\loongson\works\ls1d-demo-public-release\user/sysinit.c:53
		TEST.adc.process = ls1d_ADC_MEASURE;
bfc009bc:	3c02a000 	lui	v0,0xa000
bfc009c0:	24431030 	addiu	v1,v0,4144
bfc009c4:	3c02bfc0 	lui	v0,0xbfc0
bfc009c8:	24427020 	addiu	v0,v0,28704
bfc009cc:	ac6200c8 	sw	v0,200(v1)
D:\loongson\works\ls1d-demo-public-release\user/sysinit.c:54
		TEST.adc.disable = ls1d_adc_disable;
bfc009d0:	3c02a000 	lui	v0,0xa000
bfc009d4:	24431030 	addiu	v1,v0,4144
bfc009d8:	3c02bfc0 	lui	v0,0xbfc0
bfc009dc:	244219fc 	addiu	v0,v0,6652
bfc009e0:	ac6200cc 	sw	v0,204(v1)
D:\loongson\works\ls1d-demo-public-release\user/sysinit.c:58

#if 0 //MBUS
#else //infrared
		TEST.com.init = ls1d_infrared_init;
bfc009e4:	3c02a000 	lui	v0,0xa000
bfc009e8:	24431030 	addiu	v1,v0,4144
bfc009ec:	3c02bfc0 	lui	v0,0xbfc0
bfc009f0:	24421a58 	addiu	v0,v0,6744
bfc009f4:	ac6200d0 	sw	v0,208(v1)
D:\loongson\works\ls1d-demo-public-release\user/sysinit.c:59
		TEST.com.disable = ls1d_infrared_disable;
bfc009f8:	3c02a000 	lui	v0,0xa000
bfc009fc:	24431030 	addiu	v1,v0,4144
bfc00a00:	3c02bfc0 	lui	v0,0xbfc0
bfc00a04:	24421b40 	addiu	v0,v0,6976
bfc00a08:	ac6200d4 	sw	v0,212(v1)
D:\loongson\works\ls1d-demo-public-release\user/sysinit.c:60
		TEST.com.process = ls1d_infrared_process;
bfc00a0c:	3c02a000 	lui	v0,0xa000
bfc00a10:	24431030 	addiu	v1,v0,4144
bfc00a14:	3c02bfc0 	lui	v0,0xbfc0
bfc00a18:	24421bc8 	addiu	v0,v0,7112
bfc00a1c:	ac6200e4 	sw	v0,228(v1)
D:\loongson\works\ls1d-demo-public-release\user/sysinit.c:61
		TEST.com.buf = (_u8 *)0xa0000000;
bfc00a20:	3c02a000 	lui	v0,0xa000
bfc00a24:	24431030 	addiu	v1,v0,4144
bfc00a28:	3c02a000 	lui	v0,0xa000
bfc00a2c:	ac6200d8 	sw	v0,216(v1)
D:\loongson\works\ls1d-demo-public-release\user/sysinit.c:62
		TEST.com.len = 0x20;
bfc00a30:	3c02a000 	lui	v0,0xa000
bfc00a34:	24431030 	addiu	v1,v0,4144
bfc00a38:	24020020 	li	v0,32
bfc00a3c:	ac6200e0 	sw	v0,224(v1)
D:\loongson\works\ls1d-demo-public-release\user/sysinit.c:64
#endif
		LS1D.uart_com = ls1d_infrared_process;
bfc00a40:	3c02bfc0 	lui	v0,0xbfc0
bfc00a44:	24431bc8 	addiu	v1,v0,7112
bfc00a48:	3c02a000 	lui	v0,0xa000
bfc00a4c:	24421150 	addiu	v0,v0,4432
bfc00a50:	ac4300f4 	sw	v1,244(v0)
D:\loongson\works\ls1d-demo-public-release\user/sysinit.c:65
		LS1D.ptr = (void *)&TEST;
bfc00a54:	3c02a000 	lui	v0,0xa000
bfc00a58:	24431150 	addiu	v1,v0,4432
bfc00a5c:	3c02a000 	lui	v0,0xa000
bfc00a60:	24421030 	addiu	v0,v0,4144
bfc00a64:	ac620104 	sw	v0,260(v1)
D:\loongson\works\ls1d-demo-public-release\user/sysinit.c:66
		LS1D.iic_process = ls1d_iic_test;
bfc00a68:	3c02bfc0 	lui	v0,0xbfc0
bfc00a6c:	24434fa8 	addiu	v1,v0,20392
bfc00a70:	3c02a000 	lui	v0,0xa000
bfc00a74:	24421150 	addiu	v0,v0,4432
bfc00a78:	ac4300f0 	sw	v1,240(v0)
D:\loongson\works\ls1d-demo-public-release\user/sysinit.c:67
		LS1D.exint_process = ls1d_exint_test;
bfc00a7c:	3c02a000 	lui	v0,0xa000
bfc00a80:	24431150 	addiu	v1,v0,4432
bfc00a84:	3c02bfc0 	lui	v0,0xbfc0
bfc00a88:	24425d20 	addiu	v0,v0,23840
bfc00a8c:	ac6200f8 	sw	v0,248(v1)
D:\loongson\works\ls1d-demo-public-release\user/sysinit.c:68
		LS1D.batfail_process = ls1d_batfail_test;
bfc00a90:	3c02a000 	lui	v0,0xa000
bfc00a94:	24431150 	addiu	v1,v0,4432
bfc00a98:	3c02bfc0 	lui	v0,0xbfc0
bfc00a9c:	24426c00 	addiu	v0,v0,27648
bfc00aa0:	ac6200ec 	sw	v0,236(v1)
D:\loongson\works\ls1d-demo-public-release\user/sysinit.c:70

		TEST.flash.write = Flash_Write;
bfc00aa4:	3c02a000 	lui	v0,0xa000
bfc00aa8:	24431030 	addiu	v1,v0,4144
bfc00aac:	3c02bfc1 	lui	v0,0xbfc1
bfc00ab0:	24429a70 	addiu	v0,v0,-26000
bfc00ab4:	ac6200e8 	sw	v0,232(v1)
D:\loongson\works\ls1d-demo-public-release\user/sysinit.c:71
		TEST.flash.erase = Flash_Erase;
bfc00ab8:	3c02a000 	lui	v0,0xa000
bfc00abc:	24431030 	addiu	v1,v0,4144
bfc00ac0:	3c02bfc1 	lui	v0,0xbfc1
bfc00ac4:	244299c4 	addiu	v0,v0,-26172
bfc00ac8:	ac6200ec 	sw	v0,236(v1)
D:\loongson\works\ls1d-demo-public-release\user/sysinit.c:72
		TEST.flash.change_bound = ls1d_flash_boundary;
bfc00acc:	3c02a000 	lui	v0,0xa000
bfc00ad0:	24431030 	addiu	v1,v0,4144
bfc00ad4:	3c02bfc1 	lui	v0,0xbfc1
bfc00ad8:	2442a5d0 	addiu	v0,v0,-23088
bfc00adc:	ac6200f0 	sw	v0,240(v1)
D:\loongson\works\ls1d-demo-public-release\user/sysinit.c:73
		TEST.flash.encrypt = ls1d_flash_encrypt;
bfc00ae0:	3c02a000 	lui	v0,0xa000
bfc00ae4:	24431030 	addiu	v1,v0,4144
bfc00ae8:	3c02bfc1 	lui	v0,0xbfc1
bfc00aec:	2442a63c 	addiu	v0,v0,-22980
bfc00af0:	ac6200f4 	sw	v0,244(v1)
D:\loongson\works\ls1d-demo-public-release\user/sysinit.c:74
		TEST.flash.verify = ls1d_flash_verify;
bfc00af4:	3c02a000 	lui	v0,0xa000
bfc00af8:	24431030 	addiu	v1,v0,4144
bfc00afc:	3c02bfc1 	lui	v0,0xbfc1
bfc00b00:	2442a6bc 	addiu	v0,v0,-22852
bfc00b04:	ac6200f8 	sw	v0,248(v1)
D:\loongson\works\ls1d-demo-public-release\user/sysinit.c:75
		TEST.i2c.master_init = ls1d_IIC_master_init;
bfc00b08:	3c02a000 	lui	v0,0xa000
bfc00b0c:	24431030 	addiu	v1,v0,4144
bfc00b10:	3c02bfc0 	lui	v0,0xbfc0
bfc00b14:	244271c0 	addiu	v0,v0,29120
bfc00b18:	ac6200fc 	sw	v0,252(v1)
D:\loongson\works\ls1d-demo-public-release\user/sysinit.c:76
		TEST.i2c.slave_init = ls1d_IIC_slave_init;
bfc00b1c:	3c02a000 	lui	v0,0xa000
bfc00b20:	24431030 	addiu	v1,v0,4144
bfc00b24:	3c02bfc0 	lui	v0,0xbfc0
bfc00b28:	244272a8 	addiu	v0,v0,29352
bfc00b2c:	ac620100 	sw	v0,256(v1)
D:\loongson\works\ls1d-demo-public-release\user/sysinit.c:77
		TEST.i2c.write_addr = ls1d_IIC_write_addr;
bfc00b30:	3c02a000 	lui	v0,0xa000
bfc00b34:	24431030 	addiu	v1,v0,4144
bfc00b38:	3c02bfc0 	lui	v0,0xbfc0
bfc00b3c:	24427390 	addiu	v0,v0,29584
bfc00b40:	ac620104 	sw	v0,260(v1)
D:\loongson\works\ls1d-demo-public-release\user/sysinit.c:78
		TEST.i2c.write_data = ls1d_IIC_write_data;
bfc00b44:	3c02a000 	lui	v0,0xa000
bfc00b48:	24431030 	addiu	v1,v0,4144
bfc00b4c:	3c02bfc0 	lui	v0,0xbfc0
bfc00b50:	2442746c 	addiu	v0,v0,29804
bfc00b54:	ac620108 	sw	v0,264(v1)
D:\loongson\works\ls1d-demo-public-release\user/sysinit.c:79
		TEST.i2c.write_the_last_data = ls1d_IIC_write_data_stop;
bfc00b58:	3c02a000 	lui	v0,0xa000
bfc00b5c:	24431030 	addiu	v1,v0,4144
bfc00b60:	3c02bfc0 	lui	v0,0xbfc0
bfc00b64:	244274e4 	addiu	v0,v0,29924
bfc00b68:	ac62010c 	sw	v0,268(v1)
D:\loongson\works\ls1d-demo-public-release\user/sysinit.c:80
		TEST.i2c.read = ls1d_IIC_read;
bfc00b6c:	3c02a000 	lui	v0,0xa000
bfc00b70:	24431030 	addiu	v1,v0,4144
bfc00b74:	3c02bfc0 	lui	v0,0xbfc0
bfc00b78:	2442755c 	addiu	v0,v0,30044
bfc00b7c:	ac620110 	sw	v0,272(v1)
D:\loongson\works\ls1d-demo-public-release\user/sysinit.c:81
		TEST.i2c.read_the_last_data = ls1d_IIC_read_stop;
bfc00b80:	3c02a000 	lui	v0,0xa000
bfc00b84:	24431030 	addiu	v1,v0,4144
bfc00b88:	3c02bfc0 	lui	v0,0xbfc0
bfc00b8c:	244275d0 	addiu	v0,v0,30160
bfc00b90:	ac620114 	sw	v0,276(v1)
D:\loongson\works\ls1d-demo-public-release\user/sysinit.c:82
		TEST.sleep = ls1d_sleep;
bfc00b94:	3c02bfc1 	lui	v0,0xbfc1
bfc00b98:	2443a4d0 	addiu	v1,v0,-23344
bfc00b9c:	3c02a000 	lui	v0,0xa000
bfc00ba0:	24421030 	addiu	v0,v0,4144
bfc00ba4:	ac430118 	sw	v1,280(v0)
D:\loongson\works\ls1d-demo-public-release\user/sysinit.c:83
		TEST.delay = my1d_delay;
bfc00ba8:	3c02a000 	lui	v0,0xa000
bfc00bac:	24431030 	addiu	v1,v0,4144
bfc00bb0:	3c02bfc1 	lui	v0,0xbfc1
bfc00bb4:	2442b410 	addiu	v0,v0,-19440
bfc00bb8:	ac62011c 	sw	v0,284(v1)
D:\loongson\works\ls1d-demo-public-release\user/sysinit.c:85

		board_init();
bfc00bbc:	3c02bfc0 	lui	v0,0xbfc0
bfc00bc0:	24591c70 	addiu	t9,v0,7280
bfc00bc4:	0320f809 	jalr	t9
bfc00bc8:	00000000 	nop
D:\loongson\works\ls1d-demo-public-release\user/sysinit.c:87

		PMU_SecToken = PMU_SecToken_chipctrl;
bfc00bcc:	3c02bfeb 	lui	v0,0xbfeb
bfc00bd0:	3443007c 	ori	v1,v0,0x7c
bfc00bd4:	3c0215da 	lui	v0,0x15da
bfc00bd8:	3442ed27 	ori	v0,v0,0xed27
bfc00bdc:	ac620000 	sw	v0,0(v1)
D:\loongson\works\ls1d-demo-public-release\user/sysinit.c:88
		PMU_ChipCtrl |= 0xf8000000;
bfc00be0:	3c02bfeb 	lui	v0,0xbfeb
bfc00be4:	3444000c 	ori	a0,v0,0xc
bfc00be8:	3c02bfeb 	lui	v0,0xbfeb
bfc00bec:	3442000c 	ori	v0,v0,0xc
bfc00bf0:	8c430000 	lw	v1,0(v0)
bfc00bf4:	3c02f800 	lui	v0,0xf800
bfc00bf8:	00621025 	or	v0,v1,v0
bfc00bfc:	ac820000 	sw	v0,0(a0)
D:\loongson\works\ls1d-demo-public-release\user/sysinit.c:91
	}

    return 0;
bfc00c00:	00001021 	move	v0,zero
D:\loongson\works\ls1d-demo-public-release\user/sysinit.c:93

}
bfc00c04:	03c0e821 	move	sp,s8
bfc00c08:	8fbf0014 	lw	ra,20(sp)
bfc00c0c:	8fbe0010 	lw	s8,16(sp)
bfc00c10:	27bd0018 	addiu	sp,sp,24
bfc00c14:	03e00008 	jr	ra
bfc00c18:	00000000 	nop
bfc00c1c:	00000000 	nop

bfc00c20 <ls1d_timer_process>:
ls1d_timer_process():
D:\loongson\works\ls1d-demo-public-release\user/board.c:71
#define KEY_OFF		0x800        //when the key is off, the key_bit of gpio_in will be high



void ls1d_timer_process()
{
bfc00c20:	27bdffe8 	addiu	sp,sp,-24
bfc00c24:	afbf0014 	sw	ra,20(sp)
bfc00c28:	afbe0010 	sw	s8,16(sp)
bfc00c2c:	03a0f021 	move	s8,sp
D:\loongson\works\ls1d-demo-public-release\user/board.c:72
	printf("\n...8MHz Timer interrupt...\r\n\n");
bfc00c30:	3c02bfc1 	lui	v0,0xbfc1
bfc00c34:	2444c474 	addiu	a0,v0,-15244
bfc00c38:	3c02bfc1 	lui	v0,0xbfc1
bfc00c3c:	2459bcb0 	addiu	t9,v0,-17232
bfc00c40:	0320f809 	jalr	t9
bfc00c44:	00000000 	nop
D:\loongson\works\ls1d-demo-public-release\user/board.c:73
}
bfc00c48:	03c0e821 	move	sp,s8
bfc00c4c:	8fbf0014 	lw	ra,20(sp)
bfc00c50:	8fbe0010 	lw	s8,16(sp)
bfc00c54:	27bd0018 	addiu	sp,sp,24
bfc00c58:	03e00008 	jr	ra
bfc00c5c:	00000000 	nop

bfc00c60 <ls1d_waker_process>:
ls1d_waker_process():
D:\loongson\works\ls1d-demo-public-release\user/board.c:75
void ls1d_waker_process()
{
bfc00c60:	27bdffe8 	addiu	sp,sp,-24
bfc00c64:	afbf0014 	sw	ra,20(sp)
bfc00c68:	afbe0010 	sw	s8,16(sp)
bfc00c6c:	03a0f021 	move	s8,sp
D:\loongson\works\ls1d-demo-public-release\user/board.c:76
	printf("\n...waker interrupt...\r\n\n");
bfc00c70:	3c02bfc1 	lui	v0,0xbfc1
bfc00c74:	2444c494 	addiu	a0,v0,-15212
bfc00c78:	3c02bfc1 	lui	v0,0xbfc1
bfc00c7c:	2459bcb0 	addiu	t9,v0,-17232
bfc00c80:	0320f809 	jalr	t9
bfc00c84:	00000000 	nop
D:\loongson\works\ls1d-demo-public-release\user/board.c:77
}
bfc00c88:	03c0e821 	move	sp,s8
bfc00c8c:	8fbf0014 	lw	ra,20(sp)
bfc00c90:	8fbe0010 	lw	s8,16(sp)
bfc00c94:	27bd0018 	addiu	sp,sp,24
bfc00c98:	03e00008 	jr	ra
bfc00c9c:	00000000 	nop

bfc00ca0 <ls1d_softint_process>:
ls1d_softint_process():
D:\loongson\works\ls1d-demo-public-release\user/board.c:79
void ls1d_softint_process()
{
bfc00ca0:	27bdffe8 	addiu	sp,sp,-24
bfc00ca4:	afbf0014 	sw	ra,20(sp)
bfc00ca8:	afbe0010 	sw	s8,16(sp)
bfc00cac:	03a0f021 	move	s8,sp
D:\loongson\works\ls1d-demo-public-release\user/board.c:80
	printf("\n...soft interrupt...\r\n\n");
bfc00cb0:	3c02bfc1 	lui	v0,0xbfc1
bfc00cb4:	2444c4b0 	addiu	a0,v0,-15184
bfc00cb8:	3c02bfc1 	lui	v0,0xbfc1
bfc00cbc:	2459bcb0 	addiu	t9,v0,-17232
bfc00cc0:	0320f809 	jalr	t9
bfc00cc4:	00000000 	nop
D:\loongson\works\ls1d-demo-public-release\user/board.c:81
}
bfc00cc8:	03c0e821 	move	sp,s8
bfc00ccc:	8fbf0014 	lw	ra,20(sp)
bfc00cd0:	8fbe0010 	lw	s8,16(sp)
bfc00cd4:	27bd0018 	addiu	sp,sp,24
bfc00cd8:	03e00008 	jr	ra
bfc00cdc:	00000000 	nop

bfc00ce0 <user_task>:
user_task():
D:\loongson\works\ls1d-demo-public-release\user/board.c:84

void user_task()
{
bfc00ce0:	27bdffe8 	addiu	sp,sp,-24
bfc00ce4:	afbf0014 	sw	ra,20(sp)
bfc00ce8:	afbe0010 	sw	s8,16(sp)
bfc00cec:	03a0f021 	move	s8,sp
D:\loongson\works\ls1d-demo-public-release\user/board.c:85
	if(TEST.task.softint) {
bfc00cf0:	3c02a000 	lui	v0,0xa000
bfc00cf4:	8c421030 	lw	v0,4144(v0)
bfc00cf8:	30420003 	andi	v0,v0,0x3
bfc00cfc:	10400014 	beqz	v0,bfc00d50 <user_task+0x70>
bfc00d00:	00000000 	nop
D:\loongson\works\ls1d-demo-public-release\user/board.c:86
		TEST.task.softint--;
bfc00d04:	3c02a000 	lui	v0,0xa000
bfc00d08:	8c421030 	lw	v0,4144(v0)
bfc00d0c:	30420003 	andi	v0,v0,0x3
bfc00d10:	304200ff 	andi	v0,v0,0xff
bfc00d14:	24420003 	addiu	v0,v0,3
bfc00d18:	30420003 	andi	v0,v0,0x3
bfc00d1c:	304200ff 	andi	v0,v0,0xff
bfc00d20:	3c04a000 	lui	a0,0xa000
bfc00d24:	30450003 	andi	a1,v0,0x3
bfc00d28:	8c831030 	lw	v1,4144(a0)
bfc00d2c:	2402fffc 	li	v0,-4
bfc00d30:	00621024 	and	v0,v1,v0
bfc00d34:	00451025 	or	v0,v0,a1
bfc00d38:	ac821030 	sw	v0,4144(a0)
D:\loongson\works\ls1d-demo-public-release\user/board.c:87
		TEST.softint.process();
bfc00d3c:	3c02a000 	lui	v0,0xa000
bfc00d40:	24421030 	addiu	v0,v0,4144
bfc00d44:	8c590050 	lw	t9,80(v0)
bfc00d48:	0320f809 	jalr	t9
bfc00d4c:	00000000 	nop
D:\loongson\works\ls1d-demo-public-release\user/board.c:89
	}
	if(TEST.task.timer) {
bfc00d50:	3c02a000 	lui	v0,0xa000
bfc00d54:	8c421030 	lw	v0,4144(v0)
bfc00d58:	3042000c 	andi	v0,v0,0xc
bfc00d5c:	10400016 	beqz	v0,bfc00db8 <user_task+0xd8>
bfc00d60:	00000000 	nop
D:\loongson\works\ls1d-demo-public-release\user/board.c:90
		TEST.task.timer--;
bfc00d64:	3c02a000 	lui	v0,0xa000
bfc00d68:	8c421030 	lw	v0,4144(v0)
bfc00d6c:	00021082 	srl	v0,v0,0x2
bfc00d70:	30420003 	andi	v0,v0,0x3
bfc00d74:	304200ff 	andi	v0,v0,0xff
bfc00d78:	24420003 	addiu	v0,v0,3
bfc00d7c:	30420003 	andi	v0,v0,0x3
bfc00d80:	304200ff 	andi	v0,v0,0xff
bfc00d84:	3c04a000 	lui	a0,0xa000
bfc00d88:	30420003 	andi	v0,v0,0x3
bfc00d8c:	00022880 	sll	a1,v0,0x2
bfc00d90:	8c831030 	lw	v1,4144(a0)
bfc00d94:	2402fff3 	li	v0,-13
bfc00d98:	00621024 	and	v0,v1,v0
bfc00d9c:	00451025 	or	v0,v0,a1
bfc00da0:	ac821030 	sw	v0,4144(a0)
D:\loongson\works\ls1d-demo-public-release\user/board.c:91
		TEST.timer.process();
bfc00da4:	3c02a000 	lui	v0,0xa000
bfc00da8:	24421030 	addiu	v0,v0,4144
bfc00dac:	8c59000c 	lw	t9,12(v0)
bfc00db0:	0320f809 	jalr	t9
bfc00db4:	00000000 	nop
D:\loongson\works\ls1d-demo-public-release\user/board.c:93
	}
	if(TEST.task.waker) {
bfc00db8:	3c02a000 	lui	v0,0xa000
bfc00dbc:	8c421030 	lw	v0,4144(v0)
bfc00dc0:	30420030 	andi	v0,v0,0x30
bfc00dc4:	10400016 	beqz	v0,bfc00e20 <user_task+0x140>
bfc00dc8:	00000000 	nop
D:\loongson\works\ls1d-demo-public-release\user/board.c:94
		TEST.task.waker--;
bfc00dcc:	3c02a000 	lui	v0,0xa000
bfc00dd0:	8c421030 	lw	v0,4144(v0)
bfc00dd4:	00021102 	srl	v0,v0,0x4
bfc00dd8:	30420003 	andi	v0,v0,0x3
bfc00ddc:	304200ff 	andi	v0,v0,0xff
bfc00de0:	24420003 	addiu	v0,v0,3
bfc00de4:	30420003 	andi	v0,v0,0x3
bfc00de8:	304200ff 	andi	v0,v0,0xff
bfc00dec:	3c04a000 	lui	a0,0xa000
bfc00df0:	30420003 	andi	v0,v0,0x3
bfc00df4:	00022900 	sll	a1,v0,0x4
bfc00df8:	8c831030 	lw	v1,4144(a0)
bfc00dfc:	2402ffcf 	li	v0,-49
bfc00e00:	00621024 	and	v0,v1,v0
bfc00e04:	00451025 	or	v0,v0,a1
bfc00e08:	ac821030 	sw	v0,4144(a0)
D:\loongson\works\ls1d-demo-public-release\user/board.c:95
		TEST.waker.process();
bfc00e0c:	3c02a000 	lui	v0,0xa000
bfc00e10:	24421030 	addiu	v0,v0,4144
bfc00e14:	8c590040 	lw	t9,64(v0)
bfc00e18:	0320f809 	jalr	t9
bfc00e1c:	00000000 	nop
D:\loongson\works\ls1d-demo-public-release\user/board.c:97
	}
	if(TEST.task.calendar) {
bfc00e20:	3c02a000 	lui	v0,0xa000
bfc00e24:	8c421030 	lw	v0,4144(v0)
bfc00e28:	304200c0 	andi	v0,v0,0xc0
bfc00e2c:	10400018 	beqz	v0,bfc00e90 <user_task+0x1b0>
bfc00e30:	00000000 	nop
D:\loongson\works\ls1d-demo-public-release\user/board.c:98
		TEST.task.calendar--;
bfc00e34:	3c02a000 	lui	v0,0xa000
bfc00e38:	8c421030 	lw	v0,4144(v0)
bfc00e3c:	00021182 	srl	v0,v0,0x6
bfc00e40:	30420003 	andi	v0,v0,0x3
bfc00e44:	304200ff 	andi	v0,v0,0xff
bfc00e48:	24420003 	addiu	v0,v0,3
bfc00e4c:	30420003 	andi	v0,v0,0x3
bfc00e50:	304200ff 	andi	v0,v0,0xff
bfc00e54:	3c04a000 	lui	a0,0xa000
bfc00e58:	30420003 	andi	v0,v0,0x3
bfc00e5c:	00022980 	sll	a1,v0,0x6
bfc00e60:	8c831030 	lw	v1,4144(a0)
bfc00e64:	2402ff3f 	li	v0,-193
bfc00e68:	00621024 	and	v0,v1,v0
bfc00e6c:	00451025 	or	v0,v0,a1
bfc00e70:	ac821030 	sw	v0,4144(a0)
D:\loongson\works\ls1d-demo-public-release\user/board.c:99
		TEST.rtc.process(&TEST.calendar);
bfc00e74:	3c02a000 	lui	v0,0xa000
bfc00e78:	24421030 	addiu	v0,v0,4144
bfc00e7c:	8c590048 	lw	t9,72(v0)
bfc00e80:	3c02a000 	lui	v0,0xa000
bfc00e84:	24441044 	addiu	a0,v0,4164
bfc00e88:	0320f809 	jalr	t9
bfc00e8c:	00000000 	nop
D:\loongson\works\ls1d-demo-public-release\user/board.c:101
	}
	if(TEST.task.lcd) {
bfc00e90:	3c02a000 	lui	v0,0xa000
bfc00e94:	8c421030 	lw	v0,4144(v0)
bfc00e98:	30420300 	andi	v0,v0,0x300
bfc00e9c:	10400018 	beqz	v0,bfc00f00 <user_task+0x220>
bfc00ea0:	00000000 	nop
D:\loongson\works\ls1d-demo-public-release\user/board.c:102
		TEST.task.lcd--;
bfc00ea4:	3c02a000 	lui	v0,0xa000
bfc00ea8:	8c421030 	lw	v0,4144(v0)
bfc00eac:	00021202 	srl	v0,v0,0x8
bfc00eb0:	30420003 	andi	v0,v0,0x3
bfc00eb4:	304200ff 	andi	v0,v0,0xff
bfc00eb8:	24420003 	addiu	v0,v0,3
bfc00ebc:	30420003 	andi	v0,v0,0x3
bfc00ec0:	304200ff 	andi	v0,v0,0xff
bfc00ec4:	3c04a000 	lui	a0,0xa000
bfc00ec8:	30420003 	andi	v0,v0,0x3
bfc00ecc:	00022a00 	sll	a1,v0,0x8
bfc00ed0:	8c831030 	lw	v1,4144(a0)
bfc00ed4:	2402fcff 	li	v0,-769
bfc00ed8:	00621024 	and	v0,v1,v0
bfc00edc:	00451025 	or	v0,v0,a1
bfc00ee0:	ac821030 	sw	v0,4144(a0)
D:\loongson\works\ls1d-demo-public-release\user/board.c:103
		TEST.lcd.process(&TEST.lcd);
bfc00ee4:	3c02a000 	lui	v0,0xa000
bfc00ee8:	24421030 	addiu	v0,v0,4144
bfc00eec:	8c59009c 	lw	t9,156(v0)
bfc00ef0:	3c02a000 	lui	v0,0xa000
bfc00ef4:	24441090 	addiu	a0,v0,4240
bfc00ef8:	0320f809 	jalr	t9
bfc00efc:	00000000 	nop
D:\loongson\works\ls1d-demo-public-release\user/board.c:105
	}
	if(TEST.task.key) {
bfc00f00:	3c02a000 	lui	v0,0xa000
bfc00f04:	8c421030 	lw	v0,4144(v0)
bfc00f08:	3042c000 	andi	v0,v0,0xc000
bfc00f0c:	10400017 	beqz	v0,bfc00f6c <user_task+0x28c>
bfc00f10:	00000000 	nop
D:\loongson\works\ls1d-demo-public-release\user/board.c:106
		TEST.task.key--;
bfc00f14:	3c02a000 	lui	v0,0xa000
bfc00f18:	8c421030 	lw	v0,4144(v0)
bfc00f1c:	00021382 	srl	v0,v0,0xe
bfc00f20:	30420003 	andi	v0,v0,0x3
bfc00f24:	304200ff 	andi	v0,v0,0xff
bfc00f28:	24420003 	addiu	v0,v0,3
bfc00f2c:	30420003 	andi	v0,v0,0x3
bfc00f30:	304200ff 	andi	v0,v0,0xff
bfc00f34:	3c05a000 	lui	a1,0xa000
bfc00f38:	30420003 	andi	v0,v0,0x3
bfc00f3c:	00022380 	sll	a0,v0,0xe
bfc00f40:	8ca31030 	lw	v1,4144(a1)
bfc00f44:	3c02ffff 	lui	v0,0xffff
bfc00f48:	34423fff 	ori	v0,v0,0x3fff
bfc00f4c:	00621024 	and	v0,v1,v0
bfc00f50:	00441025 	or	v0,v0,a0
bfc00f54:	aca21030 	sw	v0,4144(a1)
D:\loongson\works\ls1d-demo-public-release\user/board.c:107
		TEST.key.process();
bfc00f58:	3c02a000 	lui	v0,0xa000
bfc00f5c:	24421030 	addiu	v0,v0,4144
bfc00f60:	8c5900c0 	lw	t9,192(v0)
bfc00f64:	0320f809 	jalr	t9
bfc00f68:	00000000 	nop
D:\loongson\works\ls1d-demo-public-release\user/board.c:109
	}
	if(TEST.task.tdc_start) {
bfc00f6c:	3c02a000 	lui	v0,0xa000
bfc00f70:	8c421030 	lw	v0,4144(v0)
bfc00f74:	30420c00 	andi	v0,v0,0xc00
bfc00f78:	10400016 	beqz	v0,bfc00fd4 <user_task+0x2f4>
bfc00f7c:	00000000 	nop
D:\loongson\works\ls1d-demo-public-release\user/board.c:110
		TEST.task.tdc_start--;
bfc00f80:	3c02a000 	lui	v0,0xa000
bfc00f84:	8c421030 	lw	v0,4144(v0)
bfc00f88:	00021282 	srl	v0,v0,0xa
bfc00f8c:	30420003 	andi	v0,v0,0x3
bfc00f90:	304200ff 	andi	v0,v0,0xff
bfc00f94:	24420003 	addiu	v0,v0,3
bfc00f98:	30420003 	andi	v0,v0,0x3
bfc00f9c:	304200ff 	andi	v0,v0,0xff
bfc00fa0:	3c04a000 	lui	a0,0xa000
bfc00fa4:	30420003 	andi	v0,v0,0x3
bfc00fa8:	00022a80 	sll	a1,v0,0xa
bfc00fac:	8c831030 	lw	v1,4144(a0)
bfc00fb0:	2402f3ff 	li	v0,-3073
bfc00fb4:	00621024 	and	v0,v1,v0
bfc00fb8:	00451025 	or	v0,v0,a1
bfc00fbc:	ac821030 	sw	v0,4144(a0)
D:\loongson\works\ls1d-demo-public-release\user/board.c:111
		TEST.tdc.start();
bfc00fc0:	3c02a000 	lui	v0,0xa000
bfc00fc4:	24421030 	addiu	v0,v0,4144
bfc00fc8:	8c5900b0 	lw	t9,176(v0)
bfc00fcc:	0320f809 	jalr	t9
bfc00fd0:	00000000 	nop
D:\loongson\works\ls1d-demo-public-release\user/board.c:113
	}
	if(TEST.task.tdc_print) {
bfc00fd4:	3c02a000 	lui	v0,0xa000
bfc00fd8:	8c421030 	lw	v0,4144(v0)
bfc00fdc:	30423000 	andi	v0,v0,0x3000
bfc00fe0:	10400018 	beqz	v0,bfc01044 <user_task+0x364>
bfc00fe4:	00000000 	nop
D:\loongson\works\ls1d-demo-public-release\user/board.c:114
		TEST.task.tdc_print--;
bfc00fe8:	3c02a000 	lui	v0,0xa000
bfc00fec:	8c421030 	lw	v0,4144(v0)
bfc00ff0:	00021302 	srl	v0,v0,0xc
bfc00ff4:	30420003 	andi	v0,v0,0x3
bfc00ff8:	304200ff 	andi	v0,v0,0xff
bfc00ffc:	24420003 	addiu	v0,v0,3
bfc01000:	30420003 	andi	v0,v0,0x3
bfc01004:	304200ff 	andi	v0,v0,0xff
bfc01008:	3c04a000 	lui	a0,0xa000
bfc0100c:	30420003 	andi	v0,v0,0x3
bfc01010:	00022b00 	sll	a1,v0,0xc
bfc01014:	8c831030 	lw	v1,4144(a0)
bfc01018:	2402cfff 	li	v0,-12289
bfc0101c:	00621024 	and	v0,v1,v0
bfc01020:	00451025 	or	v0,v0,a1
bfc01024:	ac821030 	sw	v0,4144(a0)
D:\loongson\works\ls1d-demo-public-release\user/board.c:115
		TEST.tdc.print(&LS1D.tdc);
bfc01028:	3c02a000 	lui	v0,0xa000
bfc0102c:	24421030 	addiu	v0,v0,4144
bfc01030:	8c5900b4 	lw	t9,180(v0)
bfc01034:	3c02a000 	lui	v0,0xa000
bfc01038:	24441150 	addiu	a0,v0,4432
bfc0103c:	0320f809 	jalr	t9
bfc01040:	00000000 	nop
D:\loongson\works\ls1d-demo-public-release\user/board.c:118
	}

}
bfc01044:	03c0e821 	move	sp,s8
bfc01048:	8fbf0014 	lw	ra,20(sp)
bfc0104c:	8fbe0010 	lw	s8,16(sp)
bfc01050:	27bd0018 	addiu	sp,sp,24
bfc01054:	03e00008 	jr	ra
bfc01058:	00000000 	nop

bfc0105c <ls1d_scheduler>:
ls1d_scheduler():
D:\loongson\works\ls1d-demo-public-release\user/board.c:121

void ls1d_scheduler()
{
bfc0105c:	27bdffe8 	addiu	sp,sp,-24
bfc01060:	afbf0014 	sw	ra,20(sp)
bfc01064:	afbe0010 	sw	s8,16(sp)
bfc01068:	03a0f021 	move	s8,sp
D:\loongson\works\ls1d-demo-public-release\user/board.c:122
	if(LS1D.flag.softint) {
bfc0106c:	3c02a000 	lui	v0,0xa000
bfc01070:	24421150 	addiu	v0,v0,4432
bfc01074:	8c4200dc 	lw	v0,220(v0)
bfc01078:	30420001 	andi	v0,v0,0x1
bfc0107c:	10400015 	beqz	v0,bfc010d4 <ls1d_scheduler+0x78>
bfc01080:	00000000 	nop
D:\loongson\works\ls1d-demo-public-release\user/board.c:123
		LS1D.flag.softint = 0;
bfc01084:	3c02a000 	lui	v0,0xa000
bfc01088:	24441150 	addiu	a0,v0,4432
bfc0108c:	8c8300dc 	lw	v1,220(a0)
bfc01090:	2402fffe 	li	v0,-2
bfc01094:	00621024 	and	v0,v1,v0
bfc01098:	ac8200dc 	sw	v0,220(a0)
D:\loongson\works\ls1d-demo-public-release\user/board.c:124
		TEST.task.softint++;
bfc0109c:	3c02a000 	lui	v0,0xa000
bfc010a0:	8c421030 	lw	v0,4144(v0)
bfc010a4:	30420003 	andi	v0,v0,0x3
bfc010a8:	304200ff 	andi	v0,v0,0xff
bfc010ac:	24420001 	addiu	v0,v0,1
bfc010b0:	30420003 	andi	v0,v0,0x3
bfc010b4:	304200ff 	andi	v0,v0,0xff
bfc010b8:	3c04a000 	lui	a0,0xa000
bfc010bc:	30450003 	andi	a1,v0,0x3
bfc010c0:	8c831030 	lw	v1,4144(a0)
bfc010c4:	2402fffc 	li	v0,-4
bfc010c8:	00621024 	and	v0,v1,v0
bfc010cc:	00451025 	or	v0,v0,a1
bfc010d0:	ac821030 	sw	v0,4144(a0)
D:\loongson\works\ls1d-demo-public-release\user/board.c:127

	}
	if(LS1D.flag.timer) {
bfc010d4:	3c02a000 	lui	v0,0xa000
bfc010d8:	24421150 	addiu	v0,v0,4432
bfc010dc:	8c4200dc 	lw	v0,220(v0)
bfc010e0:	30420002 	andi	v0,v0,0x2
bfc010e4:	10400017 	beqz	v0,bfc01144 <ls1d_scheduler+0xe8>
bfc010e8:	00000000 	nop
D:\loongson\works\ls1d-demo-public-release\user/board.c:128
		LS1D.flag.timer = 0;
bfc010ec:	3c02a000 	lui	v0,0xa000
bfc010f0:	24441150 	addiu	a0,v0,4432
bfc010f4:	8c8300dc 	lw	v1,220(a0)
bfc010f8:	2402fffd 	li	v0,-3
bfc010fc:	00621024 	and	v0,v1,v0
bfc01100:	ac8200dc 	sw	v0,220(a0)
D:\loongson\works\ls1d-demo-public-release\user/board.c:129
		TEST.task.timer++;
bfc01104:	3c02a000 	lui	v0,0xa000
bfc01108:	8c421030 	lw	v0,4144(v0)
bfc0110c:	00021082 	srl	v0,v0,0x2
bfc01110:	30420003 	andi	v0,v0,0x3
bfc01114:	304200ff 	andi	v0,v0,0xff
bfc01118:	24420001 	addiu	v0,v0,1
bfc0111c:	30420003 	andi	v0,v0,0x3
bfc01120:	304200ff 	andi	v0,v0,0xff
bfc01124:	3c04a000 	lui	a0,0xa000
bfc01128:	30420003 	andi	v0,v0,0x3
bfc0112c:	00022880 	sll	a1,v0,0x2
bfc01130:	8c831030 	lw	v1,4144(a0)
bfc01134:	2402fff3 	li	v0,-13
bfc01138:	00621024 	and	v0,v1,v0
bfc0113c:	00451025 	or	v0,v0,a1
bfc01140:	ac821030 	sw	v0,4144(a0)
D:\loongson\works\ls1d-demo-public-release\user/board.c:132

	}
	if(LS1D.flag.waker) {
bfc01144:	3c02a000 	lui	v0,0xa000
bfc01148:	24421150 	addiu	v0,v0,4432
bfc0114c:	8c4200dc 	lw	v0,220(v0)
bfc01150:	30420004 	andi	v0,v0,0x4
bfc01154:	10400059 	beqz	v0,bfc012bc <ls1d_scheduler+0x260>
bfc01158:	00000000 	nop
D:\loongson\works\ls1d-demo-public-release\user/board.c:133
		LS1D.flag.waker = 0;
bfc0115c:	3c02a000 	lui	v0,0xa000
bfc01160:	24441150 	addiu	a0,v0,4432
bfc01164:	8c8300dc 	lw	v1,220(a0)
bfc01168:	2402fffb 	li	v0,-5
bfc0116c:	00621024 	and	v0,v1,v0
bfc01170:	ac8200dc 	sw	v0,220(a0)
D:\loongson\works\ls1d-demo-public-release\user/board.c:134
		TEST.task.waker++;
bfc01174:	3c02a000 	lui	v0,0xa000
bfc01178:	8c421030 	lw	v0,4144(v0)
bfc0117c:	00021102 	srl	v0,v0,0x4
bfc01180:	30420003 	andi	v0,v0,0x3
bfc01184:	304200ff 	andi	v0,v0,0xff
bfc01188:	24420001 	addiu	v0,v0,1
bfc0118c:	30420003 	andi	v0,v0,0x3
bfc01190:	304200ff 	andi	v0,v0,0xff
bfc01194:	3c04a000 	lui	a0,0xa000
bfc01198:	30420003 	andi	v0,v0,0x3
bfc0119c:	00022900 	sll	a1,v0,0x4
bfc011a0:	8c831030 	lw	v1,4144(a0)
bfc011a4:	2402ffcf 	li	v0,-49
bfc011a8:	00621024 	and	v0,v1,v0
bfc011ac:	00451025 	or	v0,v0,a1
bfc011b0:	ac821030 	sw	v0,4144(a0)
D:\loongson\works\ls1d-demo-public-release\user/board.c:135
		if(TEST.mask.calendar)
bfc011b4:	3c02a000 	lui	v0,0xa000
bfc011b8:	24421030 	addiu	v0,v0,4144
bfc011bc:	8c420004 	lw	v0,4(v0)
bfc011c0:	30420001 	andi	v0,v0,0x1
bfc011c4:	10400011 	beqz	v0,bfc0120c <ls1d_scheduler+0x1b0>
bfc011c8:	00000000 	nop
D:\loongson\works\ls1d-demo-public-release\user/board.c:136
			TEST.task.calendar++;
bfc011cc:	3c02a000 	lui	v0,0xa000
bfc011d0:	8c421030 	lw	v0,4144(v0)
bfc011d4:	00021182 	srl	v0,v0,0x6
bfc011d8:	30420003 	andi	v0,v0,0x3
bfc011dc:	304200ff 	andi	v0,v0,0xff
bfc011e0:	24420001 	addiu	v0,v0,1
bfc011e4:	30420003 	andi	v0,v0,0x3
bfc011e8:	304200ff 	andi	v0,v0,0xff
bfc011ec:	3c04a000 	lui	a0,0xa000
bfc011f0:	30420003 	andi	v0,v0,0x3
bfc011f4:	00022980 	sll	a1,v0,0x6
bfc011f8:	8c831030 	lw	v1,4144(a0)
bfc011fc:	2402ff3f 	li	v0,-193
bfc01200:	00621024 	and	v0,v1,v0
bfc01204:	00451025 	or	v0,v0,a1
bfc01208:	ac821030 	sw	v0,4144(a0)
D:\loongson\works\ls1d-demo-public-release\user/board.c:137
		if(TEST.mask.lcd)
bfc0120c:	3c02a000 	lui	v0,0xa000
bfc01210:	24421030 	addiu	v0,v0,4144
bfc01214:	8c420004 	lw	v0,4(v0)
bfc01218:	30420002 	andi	v0,v0,0x2
bfc0121c:	10400011 	beqz	v0,bfc01264 <ls1d_scheduler+0x208>
bfc01220:	00000000 	nop
D:\loongson\works\ls1d-demo-public-release\user/board.c:138
			TEST.task.lcd++;
bfc01224:	3c02a000 	lui	v0,0xa000
bfc01228:	8c421030 	lw	v0,4144(v0)
bfc0122c:	00021202 	srl	v0,v0,0x8
bfc01230:	30420003 	andi	v0,v0,0x3
bfc01234:	304200ff 	andi	v0,v0,0xff
bfc01238:	24420001 	addiu	v0,v0,1
bfc0123c:	30420003 	andi	v0,v0,0x3
bfc01240:	304200ff 	andi	v0,v0,0xff
bfc01244:	3c04a000 	lui	a0,0xa000
bfc01248:	30420003 	andi	v0,v0,0x3
bfc0124c:	00022a00 	sll	a1,v0,0x8
bfc01250:	8c831030 	lw	v1,4144(a0)
bfc01254:	2402fcff 	li	v0,-769
bfc01258:	00621024 	and	v0,v1,v0
bfc0125c:	00451025 	or	v0,v0,a1
bfc01260:	ac821030 	sw	v0,4144(a0)
D:\loongson\works\ls1d-demo-public-release\user/board.c:139
		if(TEST.mask.tdc)
bfc01264:	3c02a000 	lui	v0,0xa000
bfc01268:	24421030 	addiu	v0,v0,4144
bfc0126c:	8c420004 	lw	v0,4(v0)
bfc01270:	30420004 	andi	v0,v0,0x4
bfc01274:	10400011 	beqz	v0,bfc012bc <ls1d_scheduler+0x260>
bfc01278:	00000000 	nop
D:\loongson\works\ls1d-demo-public-release\user/board.c:140
			TEST.task.tdc_start++;
bfc0127c:	3c02a000 	lui	v0,0xa000
bfc01280:	8c421030 	lw	v0,4144(v0)
bfc01284:	00021282 	srl	v0,v0,0xa
bfc01288:	30420003 	andi	v0,v0,0x3
bfc0128c:	304200ff 	andi	v0,v0,0xff
bfc01290:	24420001 	addiu	v0,v0,1
bfc01294:	30420003 	andi	v0,v0,0x3
bfc01298:	304200ff 	andi	v0,v0,0xff
bfc0129c:	3c04a000 	lui	a0,0xa000
bfc012a0:	30420003 	andi	v0,v0,0x3
bfc012a4:	00022a80 	sll	a1,v0,0xa
bfc012a8:	8c831030 	lw	v1,4144(a0)
bfc012ac:	2402f3ff 	li	v0,-3073
bfc012b0:	00621024 	and	v0,v1,v0
bfc012b4:	00451025 	or	v0,v0,a1
bfc012b8:	ac821030 	sw	v0,4144(a0)
D:\loongson\works\ls1d-demo-public-release\user/board.c:143

	}
	if(LS1D.flag.key) {
bfc012bc:	3c02a000 	lui	v0,0xa000
bfc012c0:	24421150 	addiu	v0,v0,4432
bfc012c4:	8c4200dc 	lw	v0,220(v0)
bfc012c8:	30420008 	andi	v0,v0,0x8
bfc012cc:	10400018 	beqz	v0,bfc01330 <ls1d_scheduler+0x2d4>
bfc012d0:	00000000 	nop
D:\loongson\works\ls1d-demo-public-release\user/board.c:144
		LS1D.flag.key = 0;
bfc012d4:	3c02a000 	lui	v0,0xa000
bfc012d8:	24441150 	addiu	a0,v0,4432
bfc012dc:	8c8300dc 	lw	v1,220(a0)
bfc012e0:	2402fff7 	li	v0,-9
bfc012e4:	00621024 	and	v0,v1,v0
bfc012e8:	ac8200dc 	sw	v0,220(a0)
D:\loongson\works\ls1d-demo-public-release\user/board.c:145
		TEST.task.key++;
bfc012ec:	3c02a000 	lui	v0,0xa000
bfc012f0:	8c421030 	lw	v0,4144(v0)
bfc012f4:	00021382 	srl	v0,v0,0xe
bfc012f8:	30420003 	andi	v0,v0,0x3
bfc012fc:	304200ff 	andi	v0,v0,0xff
bfc01300:	24420001 	addiu	v0,v0,1
bfc01304:	30420003 	andi	v0,v0,0x3
bfc01308:	304200ff 	andi	v0,v0,0xff
bfc0130c:	3c05a000 	lui	a1,0xa000
bfc01310:	30420003 	andi	v0,v0,0x3
bfc01314:	00022380 	sll	a0,v0,0xe
bfc01318:	8ca31030 	lw	v1,4144(a1)
bfc0131c:	3c02ffff 	lui	v0,0xffff
bfc01320:	34423fff 	ori	v0,v0,0x3fff
bfc01324:	00621024 	and	v0,v1,v0
bfc01328:	00441025 	or	v0,v0,a0
bfc0132c:	aca21030 	sw	v0,4144(a1)
D:\loongson\works\ls1d-demo-public-release\user/board.c:148

	}
	if(LS1D.flag.res) {
bfc01330:	3c02a000 	lui	v0,0xa000
bfc01334:	24421150 	addiu	v0,v0,4432
bfc01338:	8c4200dc 	lw	v0,220(v0)
bfc0133c:	30420010 	andi	v0,v0,0x10
bfc01340:	10400017 	beqz	v0,bfc013a0 <ls1d_scheduler+0x344>
bfc01344:	00000000 	nop
D:\loongson\works\ls1d-demo-public-release\user/board.c:149
		LS1D.flag.res = 0;
bfc01348:	3c02a000 	lui	v0,0xa000
bfc0134c:	24441150 	addiu	a0,v0,4432
bfc01350:	8c8300dc 	lw	v1,220(a0)
bfc01354:	2402ffef 	li	v0,-17
bfc01358:	00621024 	and	v0,v1,v0
bfc0135c:	ac8200dc 	sw	v0,220(a0)
D:\loongson\works\ls1d-demo-public-release\user/board.c:150
		TEST.task.tdc_print++;
bfc01360:	3c02a000 	lui	v0,0xa000
bfc01364:	8c421030 	lw	v0,4144(v0)
bfc01368:	00021302 	srl	v0,v0,0xc
bfc0136c:	30420003 	andi	v0,v0,0x3
bfc01370:	304200ff 	andi	v0,v0,0xff
bfc01374:	24420001 	addiu	v0,v0,1
bfc01378:	30420003 	andi	v0,v0,0x3
bfc0137c:	304200ff 	andi	v0,v0,0xff
bfc01380:	3c04a000 	lui	a0,0xa000
bfc01384:	30420003 	andi	v0,v0,0x3
bfc01388:	00022b00 	sll	a1,v0,0xc
bfc0138c:	8c831030 	lw	v1,4144(a0)
bfc01390:	2402cfff 	li	v0,-12289
bfc01394:	00621024 	and	v0,v1,v0
bfc01398:	00451025 	or	v0,v0,a1
bfc0139c:	ac821030 	sw	v0,4144(a0)
D:\loongson\works\ls1d-demo-public-release\user/board.c:153

	}
	user_task();
bfc013a0:	0ff00338 	jal	bfc00ce0 <user_task>
bfc013a4:	00000000 	nop
D:\loongson\works\ls1d-demo-public-release\user/board.c:154
}
bfc013a8:	03c0e821 	move	sp,s8
bfc013ac:	8fbf0014 	lw	ra,20(sp)
bfc013b0:	8fbe0010 	lw	s8,16(sp)
bfc013b4:	27bd0018 	addiu	sp,sp,24
bfc013b8:	03e00008 	jr	ra
bfc013bc:	00000000 	nop

bfc013c0 <ls1d_Lcd_Init>:
ls1d_Lcd_Init():
D:\loongson\works\ls1d-demo-public-release\user/board.c:157

void ls1d_Lcd_Init(struct lcd_hw_interface *hw)
{
bfc013c0:	27bdffe8 	addiu	sp,sp,-24
bfc013c4:	afbf0014 	sw	ra,20(sp)
bfc013c8:	afbe0010 	sw	s8,16(sp)
bfc013cc:	03a0f021 	move	s8,sp
bfc013d0:	afc40018 	sw	a0,24(s8)
D:\loongson\works\ls1d-demo-public-release\user/board.c:158
	Lcd_HW_Init();
bfc013d4:	3c02bfc1 	lui	v0,0xbfc1
bfc013d8:	2459ae98 	addiu	t9,v0,-20840
bfc013dc:	0320f809 	jalr	t9
bfc013e0:	00000000 	nop
D:\loongson\works\ls1d-demo-public-release\user/board.c:159
	hw->number = LCD_NUMBER;
bfc013e4:	8fc30018 	lw	v1,24(s8)
bfc013e8:	3c02bfc1 	lui	v0,0xbfc1
bfc013ec:	2442c460 	addiu	v0,v0,-15264
bfc013f0:	ac620010 	sw	v0,16(v1)
D:\loongson\works\ls1d-demo-public-release\user/board.c:160
	hw->word = LCD_WORD;
bfc013f4:	8fc30018 	lw	v1,24(s8)
bfc013f8:	3c02bfc1 	lui	v0,0xbfc1
bfc013fc:	2442c46c 	addiu	v0,v0,-15252
bfc01400:	ac620014 	sw	v0,20(v1)
D:\loongson\works\ls1d-demo-public-release\user/board.c:161
	hw->minus = MINUS;
bfc01404:	8fc30018 	lw	v1,24(s8)
bfc01408:	24020004 	li	v0,4
bfc0140c:	a0620018 	sb	v0,24(v1)
D:\loongson\works\ls1d-demo-public-release\user/board.c:162
	hw->dot = DOT;
bfc01410:	8fc30018 	lw	v1,24(s8)
bfc01414:	24020010 	li	v0,16
bfc01418:	a0620019 	sb	v0,25(v1)
D:\loongson\works\ls1d-demo-public-release\user/board.c:163
	hw->num_length = LCD_NUM_LENGTH;
bfc0141c:	8fc30018 	lw	v1,24(s8)
bfc01420:	24020008 	li	v0,8
bfc01424:	ac62000c 	sw	v0,12(v1)
D:\loongson\works\ls1d-demo-public-release\user/board.c:165

}
bfc01428:	03c0e821 	move	sp,s8
bfc0142c:	8fbf0014 	lw	ra,20(sp)
bfc01430:	8fbe0010 	lw	s8,16(sp)
bfc01434:	27bd0018 	addiu	sp,sp,24
bfc01438:	03e00008 	jr	ra
bfc0143c:	00000000 	nop

bfc01440 <ls1d_tdc_print>:
ls1d_tdc_print():
D:\loongson\works\ls1d-demo-public-release\user/board.c:168

void ls1d_tdc_print(TDCINFO *TDC)
{
bfc01440:	27bdffb0 	addiu	sp,sp,-80
bfc01444:	afbf004c 	sw	ra,76(sp)
bfc01448:	afbe0048 	sw	s8,72(sp)
bfc0144c:	03a0f021 	move	s8,sp
bfc01450:	afc40050 	sw	a0,80(s8)
D:\loongson\works\ls1d-demo-public-release\user/board.c:172
	_fp32 tmp;
	_u32 i;

	if(TDC->err) {
bfc01454:	8fc20050 	lw	v0,80(s8)
bfc01458:	8c4200d8 	lw	v0,216(v0)
bfc0145c:	10400009 	beqz	v0,bfc01484 <ls1d_tdc_print+0x44>
bfc01460:	00000000 	nop
D:\loongson\works\ls1d-demo-public-release\user/board.c:173
		printf("error\n");
bfc01464:	3c02bfc1 	lui	v0,0xbfc1
bfc01468:	2444c4c8 	addiu	a0,v0,-15160
bfc0146c:	3c02bfc1 	lui	v0,0xbfc1
bfc01470:	2459bcb0 	addiu	t9,v0,-17232
bfc01474:	0320f809 	jalr	t9
bfc01478:	00000000 	nop
bfc0147c:	0bf00600 	j	bfc01800 <ls1d_tdc_print+0x3c0>
bfc01480:	00000000 	nop
D:\loongson\works\ls1d-demo-public-release\user/board.c:175
	} else {
		switch(TDC->mop) {
bfc01484:	8fc20050 	lw	v0,80(s8)
bfc01488:	8c4200d4 	lw	v0,212(v0)
bfc0148c:	afc20038 	sw	v0,56(s8)
bfc01490:	8fc30038 	lw	v1,56(s8)
bfc01494:	2c620005 	sltiu	v0,v1,5
bfc01498:	104000d9 	beqz	v0,bfc01800 <ls1d_tdc_print+0x3c0>
bfc0149c:	00000000 	nop
bfc014a0:	8fc20038 	lw	v0,56(s8)
bfc014a4:	00021880 	sll	v1,v0,0x2
bfc014a8:	3c02bfc1 	lui	v0,0xbfc1
bfc014ac:	2442c554 	addiu	v0,v0,-15020
bfc014b0:	00621021 	addu	v0,v1,v0
bfc014b4:	8c420000 	lw	v0,0(v0)
bfc014b8:	00400008 	jr	v0
bfc014bc:	00000000 	nop
D:\loongson\works\ls1d-demo-public-release\user/board.c:179
		case mode_0:
		case mode_2:
//			printf("\n------------flow-result:-----------------");
			for(i=0; i<16; i++)
bfc014c0:	afc00018 	sw	zero,24(s8)
bfc014c4:	0bf0056b 	j	bfc015ac <ls1d_tdc_print+0x16c>
bfc014c8:	00000000 	nop
D:\loongson\works\ls1d-demo-public-release\user/board.c:180
			if((i == 0)||(i == 1)||(i == 2)||(i == 6)||(i == 7)
bfc014cc:	8fc20018 	lw	v0,24(s8)
bfc014d0:	10400025 	beqz	v0,bfc01568 <ls1d_tdc_print+0x128>
bfc014d4:	00000000 	nop
bfc014d8:	8fc30018 	lw	v1,24(s8)
bfc014dc:	24020001 	li	v0,1
bfc014e0:	10620021 	beq	v1,v0,bfc01568 <ls1d_tdc_print+0x128>
bfc014e4:	00000000 	nop
bfc014e8:	8fc30018 	lw	v1,24(s8)
bfc014ec:	24020002 	li	v0,2
bfc014f0:	1062001d 	beq	v1,v0,bfc01568 <ls1d_tdc_print+0x128>
bfc014f4:	00000000 	nop
bfc014f8:	8fc30018 	lw	v1,24(s8)
bfc014fc:	24020006 	li	v0,6
bfc01500:	10620019 	beq	v1,v0,bfc01568 <ls1d_tdc_print+0x128>
bfc01504:	00000000 	nop
bfc01508:	8fc30018 	lw	v1,24(s8)
bfc0150c:	24020007 	li	v0,7
bfc01510:	10620015 	beq	v1,v0,bfc01568 <ls1d_tdc_print+0x128>
bfc01514:	00000000 	nop
bfc01518:	8fc30018 	lw	v1,24(s8)
bfc0151c:	24020008 	li	v0,8
bfc01520:	10620011 	beq	v1,v0,bfc01568 <ls1d_tdc_print+0x128>
bfc01524:	00000000 	nop
bfc01528:	8fc30018 	lw	v1,24(s8)
bfc0152c:	24020009 	li	v0,9
bfc01530:	1062000d 	beq	v1,v0,bfc01568 <ls1d_tdc_print+0x128>
bfc01534:	00000000 	nop
bfc01538:	8fc30018 	lw	v1,24(s8)
bfc0153c:	2402000a 	li	v0,10
bfc01540:	10620009 	beq	v1,v0,bfc01568 <ls1d_tdc_print+0x128>
bfc01544:	00000000 	nop
bfc01548:	8fc30018 	lw	v1,24(s8)
bfc0154c:	2402000e 	li	v0,14
bfc01550:	10620005 	beq	v1,v0,bfc01568 <ls1d_tdc_print+0x128>
bfc01554:	00000000 	nop
bfc01558:	8fc30018 	lw	v1,24(s8)
bfc0155c:	2402000f 	li	v0,15
bfc01560:	1462000f 	bne	v1,v0,bfc015a0 <ls1d_tdc_print+0x160>
bfc01564:	00000000 	nop
D:\loongson\works\ls1d-demo-public-release\user/board.c:182
					||(i == 8)||(i == 9)||(i == 10)||(i == 14)||(i == 15))
				printf("\nresult[%d]: 0x%x", i, TDC->result[i]);
bfc01568:	8fc20018 	lw	v0,24(s8)
bfc0156c:	8fc30050 	lw	v1,80(s8)
bfc01570:	2442000c 	addiu	v0,v0,12
bfc01574:	00021080 	sll	v0,v0,0x2
bfc01578:	00621021 	addu	v0,v1,v0
bfc0157c:	8c430004 	lw	v1,4(v0)
bfc01580:	3c02bfc1 	lui	v0,0xbfc1
bfc01584:	2444c4d0 	addiu	a0,v0,-15152
bfc01588:	8fc50018 	lw	a1,24(s8)
bfc0158c:	00603021 	move	a2,v1
bfc01590:	3c02bfc1 	lui	v0,0xbfc1
bfc01594:	2459be10 	addiu	t9,v0,-16880
bfc01598:	0320f809 	jalr	t9
bfc0159c:	00000000 	nop
D:\loongson\works\ls1d-demo-public-release\user/board.c:179
	} else {
		switch(TDC->mop) {
		case mode_0:
		case mode_2:
//			printf("\n------------flow-result:-----------------");
			for(i=0; i<16; i++)
bfc015a0:	8fc20018 	lw	v0,24(s8)
bfc015a4:	24420001 	addiu	v0,v0,1
bfc015a8:	afc20018 	sw	v0,24(s8)
bfc015ac:	8fc20018 	lw	v0,24(s8)
bfc015b0:	2c420010 	sltiu	v0,v0,16
bfc015b4:	1440ffc5 	bnez	v0,bfc014cc <ls1d_tdc_print+0x8c>
bfc015b8:	00000000 	nop
D:\loongson\works\ls1d-demo-public-release\user/board.c:184
			if((i == 0)||(i == 1)||(i == 2)||(i == 6)||(i == 7)
					||(i == 8)||(i == 9)||(i == 10)||(i == 14)||(i == 15))
				printf("\nresult[%d]: 0x%x", i, TDC->result[i]);

			printf("\nup:%d\tdown:%d\tdelta:%d",
bfc015bc:	8fc20050 	lw	v0,80(s8)
bfc015c0:	c4400024 	lwc1	$f0,36(v0)
bfc015c4:	e7c00034 	swc1	$f0,52(s8)
bfc015c8:	3c02bfc1 	lui	v0,0xbfc1
bfc015cc:	c441c5d4 	lwc1	$f1,-14892(v0)
bfc015d0:	e7c1003c 	swc1	$f1,60(s8)
bfc015d4:	c7c20034 	lwc1	$f2,52(s8)
bfc015d8:	c7c0003c 	lwc1	$f0,60(s8)
bfc015dc:	4602003e 	c.le.s	$f0,$f2
bfc015e0:	45010006 	bc1t	bfc015fc <ls1d_tdc_print+0x1bc>
bfc015e4:	00000000 	nop
bfc015e8:	c7c10034 	lwc1	$f1,52(s8)
bfc015ec:	4600084d 	trunc.w.s	$f1,$f1
bfc015f0:	e7c10030 	swc1	$f1,48(s8)
bfc015f4:	0bf00588 	j	bfc01620 <ls1d_tdc_print+0x1e0>
bfc015f8:	00000000 	nop
bfc015fc:	c7c20034 	lwc1	$f2,52(s8)
bfc01600:	c7c1003c 	lwc1	$f1,60(s8)
bfc01604:	46011001 	sub.s	$f0,$f2,$f1
bfc01608:	3c028000 	lui	v0,0x8000
bfc0160c:	4600000d 	trunc.w.s	$f0,$f0
bfc01610:	e7c00030 	swc1	$f0,48(s8)
bfc01614:	8fc30030 	lw	v1,48(s8)
bfc01618:	00621825 	or	v1,v1,v0
bfc0161c:	afc30030 	sw	v1,48(s8)
bfc01620:	8fc20050 	lw	v0,80(s8)
bfc01624:	c4400028 	lwc1	$f0,40(v0)
bfc01628:	e7c0002c 	swc1	$f0,44(s8)
bfc0162c:	3c02bfc1 	lui	v0,0xbfc1
bfc01630:	c441c5d4 	lwc1	$f1,-14892(v0)
bfc01634:	e7c10040 	swc1	$f1,64(s8)
bfc01638:	c7c2002c 	lwc1	$f2,44(s8)
bfc0163c:	c7c00040 	lwc1	$f0,64(s8)
bfc01640:	4602003e 	c.le.s	$f0,$f2
bfc01644:	45010006 	bc1t	bfc01660 <ls1d_tdc_print+0x220>
bfc01648:	00000000 	nop
bfc0164c:	c7c1002c 	lwc1	$f1,44(s8)
bfc01650:	4600084d 	trunc.w.s	$f1,$f1
bfc01654:	e7c10028 	swc1	$f1,40(s8)
bfc01658:	0bf005a1 	j	bfc01684 <ls1d_tdc_print+0x244>
bfc0165c:	00000000 	nop
bfc01660:	c7c2002c 	lwc1	$f2,44(s8)
bfc01664:	c7c10040 	lwc1	$f1,64(s8)
bfc01668:	46011001 	sub.s	$f0,$f2,$f1
bfc0166c:	3c028000 	lui	v0,0x8000
bfc01670:	4600000d 	trunc.w.s	$f0,$f0
bfc01674:	e7c00028 	swc1	$f0,40(s8)
bfc01678:	8fc30028 	lw	v1,40(s8)
bfc0167c:	00621825 	or	v1,v1,v0
bfc01680:	afc30028 	sw	v1,40(s8)
bfc01684:	8fc20050 	lw	v0,80(s8)
bfc01688:	c440002c 	lwc1	$f0,44(v0)
bfc0168c:	e7c00024 	swc1	$f0,36(s8)
bfc01690:	3c02bfc1 	lui	v0,0xbfc1
bfc01694:	c441c5d4 	lwc1	$f1,-14892(v0)
bfc01698:	e7c10044 	swc1	$f1,68(s8)
bfc0169c:	c7c20024 	lwc1	$f2,36(s8)
bfc016a0:	c7c00044 	lwc1	$f0,68(s8)
bfc016a4:	4602003e 	c.le.s	$f0,$f2
bfc016a8:	45010006 	bc1t	bfc016c4 <ls1d_tdc_print+0x284>
bfc016ac:	00000000 	nop
bfc016b0:	c7c10024 	lwc1	$f1,36(s8)
bfc016b4:	4600084d 	trunc.w.s	$f1,$f1
bfc016b8:	e7c10020 	swc1	$f1,32(s8)
bfc016bc:	0bf005ba 	j	bfc016e8 <ls1d_tdc_print+0x2a8>
bfc016c0:	00000000 	nop
bfc016c4:	c7c20024 	lwc1	$f2,36(s8)
bfc016c8:	c7c10044 	lwc1	$f1,68(s8)
bfc016cc:	46011001 	sub.s	$f0,$f2,$f1
bfc016d0:	3c028000 	lui	v0,0x8000
bfc016d4:	4600000d 	trunc.w.s	$f0,$f0
bfc016d8:	e7c00020 	swc1	$f0,32(s8)
bfc016dc:	8fc30020 	lw	v1,32(s8)
bfc016e0:	00621825 	or	v1,v1,v0
bfc016e4:	afc30020 	sw	v1,32(s8)
bfc016e8:	3c02bfc1 	lui	v0,0xbfc1
bfc016ec:	2444c4e4 	addiu	a0,v0,-15132
bfc016f0:	8fc50030 	lw	a1,48(s8)
bfc016f4:	8fc60028 	lw	a2,40(s8)
bfc016f8:	8fc70020 	lw	a3,32(s8)
bfc016fc:	3c02bfc1 	lui	v0,0xbfc1
bfc01700:	2459be10 	addiu	t9,v0,-16880
bfc01704:	0320f809 	jalr	t9
bfc01708:	00000000 	nop
bfc0170c:	0bf00600 	j	bfc01800 <ls1d_tdc_print+0x3c0>
bfc01710:	00000000 	nop
D:\loongson\works\ls1d-demo-public-release\user/board.c:197
#if 0
			for(i=0; i<4; i++)
				printf("PT%d: %d\t", i+1, (_u32)TDC->tdc_data.ptime[i]);
			printf("\n");
#else
			tmp = TDC->tdc_data.ptime[2] + TDC->tdc_data.ptime[3];
bfc01714:	8fc20050 	lw	v0,80(s8)
bfc01718:	c441001c 	lwc1	$f1,28(v0)
bfc0171c:	8fc20050 	lw	v0,80(s8)
bfc01720:	c4400020 	lwc1	$f0,32(v0)
bfc01724:	46000800 	add.s	$f0,$f1,$f0
bfc01728:	e7c0001c 	swc1	$f0,28(s8)
D:\loongson\works\ls1d-demo-public-release\user/board.c:198
			_fp32 temp1 = time_to_temp(TDC->tdc_data.ptime[0]*2, tmp);
bfc0172c:	8fc20050 	lw	v0,80(s8)
bfc01730:	c4400014 	lwc1	$f0,20(v0)
bfc01734:	46000000 	add.s	$f0,$f0,$f0
bfc01738:	46000306 	mov.s	$f12,$f0
bfc0173c:	c7cd001c 	lwc1	$f13,28(s8)
bfc01740:	3c02bfc0 	lui	v0,0xbfc0
bfc01744:	24596f9c 	addiu	t9,v0,28572
bfc01748:	0320f809 	jalr	t9
bfc0174c:	00000000 	nop
bfc01750:	e7c00014 	swc1	$f0,20(s8)
D:\loongson\works\ls1d-demo-public-release\user/board.c:199
			_fp32 temp2 = time_to_temp(TDC->tdc_data.ptime[1]*2, tmp);
bfc01754:	8fc20050 	lw	v0,80(s8)
bfc01758:	c4400018 	lwc1	$f0,24(v0)
bfc0175c:	46000000 	add.s	$f0,$f0,$f0
bfc01760:	46000306 	mov.s	$f12,$f0
bfc01764:	c7cd001c 	lwc1	$f13,28(s8)
bfc01768:	3c02bfc0 	lui	v0,0xbfc0
bfc0176c:	24596f9c 	addiu	t9,v0,28572
bfc01770:	0320f809 	jalr	t9
bfc01774:	00000000 	nop
bfc01778:	e7c00010 	swc1	$f0,16(s8)
D:\loongson\works\ls1d-demo-public-release\user/board.c:200
			printf("\ntemp1:");
bfc0177c:	3c02bfc1 	lui	v0,0xbfc1
bfc01780:	2444c4fc 	addiu	a0,v0,-15108
bfc01784:	3c02bfc1 	lui	v0,0xbfc1
bfc01788:	2459be10 	addiu	t9,v0,-16880
bfc0178c:	0320f809 	jalr	t9
bfc01790:	00000000 	nop
D:\loongson\works\ls1d-demo-public-release\user/board.c:201
			printf_float(temp1);
bfc01794:	c7cc0014 	lwc1	$f12,20(s8)
bfc01798:	3c02bfc1 	lui	v0,0xbfc1
bfc0179c:	2459af60 	addiu	t9,v0,-20640
bfc017a0:	0320f809 	jalr	t9
bfc017a4:	00000000 	nop
D:\loongson\works\ls1d-demo-public-release\user/board.c:202
			printf("\ttemp2:");
bfc017a8:	3c02bfc1 	lui	v0,0xbfc1
bfc017ac:	2444c504 	addiu	a0,v0,-15100
bfc017b0:	3c02bfc1 	lui	v0,0xbfc1
bfc017b4:	2459be10 	addiu	t9,v0,-16880
bfc017b8:	0320f809 	jalr	t9
bfc017bc:	00000000 	nop
D:\loongson\works\ls1d-demo-public-release\user/board.c:203
			printf_float(temp2);
bfc017c0:	c7cc0010 	lwc1	$f12,16(s8)
bfc017c4:	3c02bfc1 	lui	v0,0xbfc1
bfc017c8:	2459af60 	addiu	t9,v0,-20640
bfc017cc:	0320f809 	jalr	t9
bfc017d0:	00000000 	nop
bfc017d4:	0bf00600 	j	bfc01800 <ls1d_tdc_print+0x3c0>
bfc017d8:	00000000 	nop
D:\loongson\works\ls1d-demo-public-release\user/board.c:207
#endif
			break;
		case mode_4:
			printf("\ntdc->cal: %d\n", TDC->tdc_data.cal);
bfc017dc:	8fc20050 	lw	v0,80(s8)
bfc017e0:	8c430030 	lw	v1,48(v0)
bfc017e4:	3c02bfc1 	lui	v0,0xbfc1
bfc017e8:	2444c50c 	addiu	a0,v0,-15092
bfc017ec:	00602821 	move	a1,v1
bfc017f0:	3c02bfc1 	lui	v0,0xbfc1
bfc017f4:	2459be10 	addiu	t9,v0,-16880
bfc017f8:	0320f809 	jalr	t9
bfc017fc:	00000000 	nop
D:\loongson\works\ls1d-demo-public-release\user/board.c:215
			break;
		case mode_6:
			break;
		}
	}
	printf("\n--------------------------end---------------------\n\n");
bfc01800:	3c02bfc1 	lui	v0,0xbfc1
bfc01804:	2444c51c 	addiu	a0,v0,-15076
bfc01808:	3c02bfc1 	lui	v0,0xbfc1
bfc0180c:	2459bcb0 	addiu	t9,v0,-17232
bfc01810:	0320f809 	jalr	t9
bfc01814:	00000000 	nop
D:\loongson\works\ls1d-demo-public-release\user/board.c:219
//		PMU_SecToken = PMU_SecToken_command;
//		PMU_CommandW = 0x1;  //cpu power down

}
bfc01818:	03c0e821 	move	sp,s8
bfc0181c:	8fbf004c 	lw	ra,76(sp)
bfc01820:	8fbe0048 	lw	s8,72(sp)
bfc01824:	27bd0050 	addiu	sp,sp,80
bfc01828:	03e00008 	jr	ra
bfc0182c:	00000000 	nop

bfc01830 <ls1d_key_delay>:
ls1d_key_delay():
D:\loongson\works\ls1d-demo-public-release\user/board.c:221
void ls1d_key_delay()
{
bfc01830:	27bdffd8 	addiu	sp,sp,-40
bfc01834:	afbf0024 	sw	ra,36(sp)
bfc01838:	afbe0020 	sw	s8,32(sp)
bfc0183c:	03a0f021 	move	s8,sp
D:\loongson\works\ls1d-demo-public-release\user/board.c:223
	static _u32 last_count;
	_u32 count, gpio_in, key_delay = 0;
bfc01840:	afc00010 	sw	zero,16(s8)
D:\loongson\works\ls1d-demo-public-release\user/board.c:224
	count = now();
bfc01844:	3c02bfc0 	lui	v0,0xbfc0
bfc01848:	24597740 	addiu	t9,v0,30528
bfc0184c:	0320f809 	jalr	t9
bfc01850:	00000000 	nop
bfc01854:	afc20018 	sw	v0,24(s8)
D:\loongson\works\ls1d-demo-public-release\user/board.c:226

	gpio_in = PMU_GPIO_I;
bfc01858:	3c02bfeb 	lui	v0,0xbfeb
bfc0185c:	34420018 	ori	v0,v0,0x18
bfc01860:	8c420000 	lw	v0,0(v0)
bfc01864:	afc20014 	sw	v0,20(s8)
D:\loongson\works\ls1d-demo-public-release\user/board.c:227
	if(gpio_in & KEY_OFF)
bfc01868:	8fc20014 	lw	v0,20(s8)
bfc0186c:	30420800 	andi	v0,v0,0x800
bfc01870:	10400018 	beqz	v0,bfc018d4 <ls1d_key_delay+0xa4>
bfc01874:	00000000 	nop
D:\loongson\works\ls1d-demo-public-release\user/board.c:229
	{
		printf("\nkey_int: off\n");
bfc01878:	3c02bfc1 	lui	v0,0xbfc1
bfc0187c:	2444c568 	addiu	a0,v0,-15000
bfc01880:	3c02bfc1 	lui	v0,0xbfc1
bfc01884:	2459bcb0 	addiu	t9,v0,-17232
bfc01888:	0320f809 	jalr	t9
bfc0188c:	00000000 	nop
D:\loongson\works\ls1d-demo-public-release\user/board.c:230
		key_delay = (count - last_count)%0x100000;
bfc01890:	3c02a000 	lui	v0,0xa000
bfc01894:	8c431000 	lw	v1,4096(v0)
bfc01898:	8fc20018 	lw	v0,24(s8)
bfc0189c:	00431823 	subu	v1,v0,v1
bfc018a0:	3c02000f 	lui	v0,0xf
bfc018a4:	3442ffff 	ori	v0,v0,0xffff
bfc018a8:	00621024 	and	v0,v1,v0
bfc018ac:	afc20010 	sw	v0,16(s8)
D:\loongson\works\ls1d-demo-public-release\user/board.c:231
		printf("\tkey_delay: %d\n", key_delay);
bfc018b0:	3c02bfc1 	lui	v0,0xbfc1
bfc018b4:	2444c578 	addiu	a0,v0,-14984
bfc018b8:	8fc50010 	lw	a1,16(s8)
bfc018bc:	3c02bfc1 	lui	v0,0xbfc1
bfc018c0:	2459be10 	addiu	t9,v0,-16880
bfc018c4:	0320f809 	jalr	t9
bfc018c8:	00000000 	nop
bfc018cc:	0bf00643 	j	bfc0190c <ls1d_key_delay+0xdc>
bfc018d0:	00000000 	nop
D:\loongson\works\ls1d-demo-public-release\user/board.c:235
	}
	else
	{
		debugX(4, "key_int: on\n");
bfc018d4:	3c02a000 	lui	v0,0xa000
bfc018d8:	8c421258 	lw	v0,4696(v0)
bfc018dc:	2c420004 	sltiu	v0,v0,4
bfc018e0:	14400007 	bnez	v0,bfc01900 <ls1d_key_delay+0xd0>
bfc018e4:	00000000 	nop
bfc018e8:	3c02bfc1 	lui	v0,0xbfc1
bfc018ec:	2444c588 	addiu	a0,v0,-14968
bfc018f0:	3c02bfc1 	lui	v0,0xbfc1
bfc018f4:	2459bcb0 	addiu	t9,v0,-17232
bfc018f8:	0320f809 	jalr	t9
bfc018fc:	00000000 	nop
D:\loongson\works\ls1d-demo-public-release\user/board.c:236
		last_count = count;
bfc01900:	3c03a000 	lui	v1,0xa000
bfc01904:	8fc20018 	lw	v0,24(s8)
bfc01908:	ac621000 	sw	v0,4096(v1)
D:\loongson\works\ls1d-demo-public-release\user/board.c:239
	}

}
bfc0190c:	03c0e821 	move	sp,s8
bfc01910:	8fbf0024 	lw	ra,36(sp)
bfc01914:	8fbe0020 	lw	s8,32(sp)
bfc01918:	27bd0028 	addiu	sp,sp,40
bfc0191c:	03e00008 	jr	ra
bfc01920:	00000000 	nop

bfc01924 <ls1d_adc_init>:
ls1d_adc_init():
D:\loongson\works\ls1d-demo-public-release\user/board.c:242

_u32 ls1d_adc_init(_u8 channel)
{
bfc01924:	27bdfff8 	addiu	sp,sp,-8
bfc01928:	afbe0004 	sw	s8,4(sp)
bfc0192c:	03a0f021 	move	s8,sp
bfc01930:	00801021 	move	v0,a0
bfc01934:	a3c20008 	sb	v0,8(s8)
D:\loongson\works\ls1d-demo-public-release\user/board.c:243
	switch(channel) {
bfc01938:	93c20008 	lbu	v0,8(s8)
bfc0193c:	24420000 	addiu	v0,v0,0
bfc01940:	2c420002 	sltiu	v0,v0,2
bfc01944:	10400028 	beqz	v0,bfc019e8 <ls1d_adc_init+0xc4>
bfc01948:	00000000 	nop
D:\loongson\works\ls1d-demo-public-release\user/board.c:246
	case 0: /* adci_0*/
	case 1: /* adci_1*/
		INTERRUPT_DISABLE;
bfc0194c:	40086000 	mfc0	t0,c0_status
bfc01950:	3c09ffff 	lui	t1,0xffff
bfc01954:	352900fe 	ori	t1,t1,0xfe
bfc01958:	01095024 	and	t2,t0,t1
bfc0195c:	408a6000 	mtc0	t2,c0_status
D:\loongson\works\ls1d-demo-public-release\user/board.c:247
		PMU_SecToken = PMU_SecToken_chipctrl;
bfc01960:	3c02bfeb 	lui	v0,0xbfeb
bfc01964:	3443007c 	ori	v1,v0,0x7c
bfc01968:	3c0215da 	lui	v0,0x15da
bfc0196c:	3442ed27 	ori	v0,v0,0xed27
bfc01970:	ac620000 	sw	v0,0(v1)
D:\loongson\works\ls1d-demo-public-release\user/board.c:248
		PMU_ChipCtrl |= 0x40;
bfc01974:	3c02bfeb 	lui	v0,0xbfeb
bfc01978:	3443000c 	ori	v1,v0,0xc
bfc0197c:	3c02bfeb 	lui	v0,0xbfeb
bfc01980:	3442000c 	ori	v0,v0,0xc
bfc01984:	8c420000 	lw	v0,0(v0)
bfc01988:	34420040 	ori	v0,v0,0x40
bfc0198c:	ac620000 	sw	v0,0(v1)
D:\loongson\works\ls1d-demo-public-release\user/board.c:249
		INTERRUPT_ENABLE;
bfc01990:	40086000 	mfc0	t0,c0_status
bfc01994:	3c09ffff 	lui	t1,0xffff
bfc01998:	352900fe 	ori	t1,t1,0xfe
bfc0199c:	01095024 	and	t2,t0,t1
bfc019a0:	3409ff01 	li	t1,0xff01
bfc019a4:	01494025 	or	t0,t2,t1
bfc019a8:	40886000 	mtc0	t0,c0_status
D:\loongson\works\ls1d-demo-public-release\user/board.c:250
		PMU_GPIO_OE |= 0x1000;  //empi output
bfc019ac:	3c02bfeb 	lui	v0,0xbfeb
bfc019b0:	34430010 	ori	v1,v0,0x10
bfc019b4:	3c02bfeb 	lui	v0,0xbfeb
bfc019b8:	34420010 	ori	v0,v0,0x10
bfc019bc:	8c420000 	lw	v0,0(v0)
bfc019c0:	34421000 	ori	v0,v0,0x1000
bfc019c4:	ac620000 	sw	v0,0(v1)
D:\loongson\works\ls1d-demo-public-release\user/board.c:251
		PMU_GPIO_O &= ~0x1000;  //empi output '0'
bfc019c8:	3c02bfeb 	lui	v0,0xbfeb
bfc019cc:	34440014 	ori	a0,v0,0x14
bfc019d0:	3c02bfeb 	lui	v0,0xbfeb
bfc019d4:	34420014 	ori	v0,v0,0x14
bfc019d8:	8c430000 	lw	v1,0(v0)
bfc019dc:	2402efff 	li	v0,-4097
bfc019e0:	00621024 	and	v0,v1,v0
bfc019e4:	ac820000 	sw	v0,0(a0)
D:\loongson\works\ls1d-demo-public-release\user/board.c:259
	case 3: /* 1.0V*/
		break;
	default:
		break;
	}
	return 0;
bfc019e8:	00001021 	move	v0,zero
D:\loongson\works\ls1d-demo-public-release\user/board.c:260
}
bfc019ec:	03c0e821 	move	sp,s8
bfc019f0:	8fbe0004 	lw	s8,4(sp)
bfc019f4:	03e00008 	jr	ra
bfc019f8:	27bd0008 	addiu	sp,sp,8

bfc019fc <ls1d_adc_disable>:
ls1d_adc_disable():
D:\loongson\works\ls1d-demo-public-release\user/board.c:262
_u32 ls1d_adc_disable(_u8 channel)
{
bfc019fc:	27bdfff8 	addiu	sp,sp,-8
bfc01a00:	afbe0004 	sw	s8,4(sp)
bfc01a04:	03a0f021 	move	s8,sp
bfc01a08:	00801021 	move	v0,a0
bfc01a0c:	a3c20008 	sb	v0,8(s8)
D:\loongson\works\ls1d-demo-public-release\user/board.c:263
	switch(channel) {
bfc01a10:	93c20008 	lbu	v0,8(s8)
bfc01a14:	24420000 	addiu	v0,v0,0
bfc01a18:	2c420002 	sltiu	v0,v0,2
bfc01a1c:	10400008 	beqz	v0,bfc01a40 <ls1d_adc_disable+0x44>
bfc01a20:	00000000 	nop
D:\loongson\works\ls1d-demo-public-release\user/board.c:266
	case 0: /* adci_0*/
	case 1: /* adci_1*/
		PMU_GPIO_O |= 0x1000;  //empi output '1'
bfc01a24:	3c02bfeb 	lui	v0,0xbfeb
bfc01a28:	34430014 	ori	v1,v0,0x14
bfc01a2c:	3c02bfeb 	lui	v0,0xbfeb
bfc01a30:	34420014 	ori	v0,v0,0x14
bfc01a34:	8c420000 	lw	v0,0(v0)
bfc01a38:	34421000 	ori	v0,v0,0x1000
bfc01a3c:	ac620000 	sw	v0,0(v1)
D:\loongson\works\ls1d-demo-public-release\user/board.c:274
	case 3: /* 1.0V*/
		break;
	default:
		break;
	}
	return 0;
bfc01a40:	00001021 	move	v0,zero
D:\loongson\works\ls1d-demo-public-release\user/board.c:275
}
bfc01a44:	03c0e821 	move	sp,s8
bfc01a48:	8fbe0004 	lw	s8,4(sp)
bfc01a4c:	27bd0008 	addiu	sp,sp,8
bfc01a50:	03e00008 	jr	ra
bfc01a54:	00000000 	nop

bfc01a58 <ls1d_infrared_init>:
ls1d_infrared_init():
D:\loongson\works\ls1d-demo-public-release\user/board.c:278

void ls1d_infrared_init(_u32 select)
{
bfc01a58:	27bdffe8 	addiu	sp,sp,-24
bfc01a5c:	afbf0014 	sw	ra,20(sp)
bfc01a60:	afbe0010 	sw	s8,16(sp)
bfc01a64:	03a0f021 	move	s8,sp
bfc01a68:	afc40018 	sw	a0,24(s8)
D:\loongson\works\ls1d-demo-public-release\user/board.c:279
    PMU_GPIO_OE |= (1 << 10)|(1<<2);  //IRPWR -> GPIO output
bfc01a6c:	3c02bfeb 	lui	v0,0xbfeb
bfc01a70:	34430010 	ori	v1,v0,0x10
bfc01a74:	3c02bfeb 	lui	v0,0xbfeb
bfc01a78:	34420010 	ori	v0,v0,0x10
bfc01a7c:	8c420000 	lw	v0,0(v0)
bfc01a80:	34420404 	ori	v0,v0,0x404
bfc01a84:	ac620000 	sw	v0,0(v1)
D:\loongson\works\ls1d-demo-public-release\user/board.c:280
    PMU_GPIO_O |= (1 << 10)|(1<<2);  //IRPWR -> GPIO output
bfc01a88:	3c02bfeb 	lui	v0,0xbfeb
bfc01a8c:	34430014 	ori	v1,v0,0x14
bfc01a90:	3c02bfeb 	lui	v0,0xbfeb
bfc01a94:	34420014 	ori	v0,v0,0x14
bfc01a98:	8c420000 	lw	v0,0(v0)
bfc01a9c:	34420404 	ori	v0,v0,0x404
bfc01aa0:	ac620000 	sw	v0,0(v1)
D:\loongson\works\ls1d-demo-public-release\user/board.c:283
	//IR_PWR_ON();

    if(select == 0)
bfc01aa4:	8fc20018 	lw	v0,24(s8)
bfc01aa8:	14400011 	bnez	v0,bfc01af0 <ls1d_infrared_init+0x98>
bfc01aac:	00000000 	nop
D:\loongson\works\ls1d-demo-public-release\user/board.c:285
    {
    	Uart0_2400B();
bfc01ab0:	3c02bfc1 	lui	v0,0xbfc1
bfc01ab4:	2459aa48 	addiu	t9,v0,-21944
bfc01ab8:	0320f809 	jalr	t9
bfc01abc:	00000000 	nop
D:\loongson\works\ls1d-demo-public-release\user/board.c:286
    	Uart0_MCR |= 0x80; //0xa0;  	//MCR bit7: enable 38k;  bit6: Rx录芦;  bit5: Tx录芦
bfc01ac0:	3c02bfe8 	lui	v0,0xbfe8
bfc01ac4:	34440004 	ori	a0,v0,0x4
bfc01ac8:	3c02bfe8 	lui	v0,0xbfe8
bfc01acc:	34420004 	ori	v0,v0,0x4
bfc01ad0:	90420000 	lbu	v0,0(v0)
bfc01ad4:	304300ff 	andi	v1,v0,0xff
bfc01ad8:	2402ff80 	li	v0,-128
bfc01adc:	00621025 	or	v0,v1,v0
bfc01ae0:	304200ff 	andi	v0,v0,0xff
bfc01ae4:	a0820000 	sb	v0,0(a0)
bfc01ae8:	0bf006ca 	j	bfc01b28 <ls1d_infrared_init+0xd0>
bfc01aec:	00000000 	nop
D:\loongson\works\ls1d-demo-public-release\user/board.c:290
    }
    else
    {
    	Uart1_2400B();
bfc01af0:	3c02bfc1 	lui	v0,0xbfc1
bfc01af4:	2459a740 	addiu	t9,v0,-22720
bfc01af8:	0320f809 	jalr	t9
bfc01afc:	00000000 	nop
D:\loongson\works\ls1d-demo-public-release\user/board.c:291
    	Uart1_MCR |= 0x80; //0xa0;  	//MCR bit7: enable 38k;  bit6: Rx录芦;  bit5: Tx录芦
bfc01b00:	3c02bfe8 	lui	v0,0xbfe8
bfc01b04:	34448004 	ori	a0,v0,0x8004
bfc01b08:	3c02bfe8 	lui	v0,0xbfe8
bfc01b0c:	34428004 	ori	v0,v0,0x8004
bfc01b10:	90420000 	lbu	v0,0(v0)
bfc01b14:	304300ff 	andi	v1,v0,0xff
bfc01b18:	2402ff80 	li	v0,-128
bfc01b1c:	00621025 	or	v0,v1,v0
bfc01b20:	304200ff 	andi	v0,v0,0xff
bfc01b24:	a0820000 	sb	v0,0(a0)
D:\loongson\works\ls1d-demo-public-release\user/board.c:294
    }

}
bfc01b28:	03c0e821 	move	sp,s8
bfc01b2c:	8fbf0014 	lw	ra,20(sp)
bfc01b30:	8fbe0010 	lw	s8,16(sp)
bfc01b34:	27bd0018 	addiu	sp,sp,24
bfc01b38:	03e00008 	jr	ra
bfc01b3c:	00000000 	nop

bfc01b40 <ls1d_infrared_disable>:
ls1d_infrared_disable():
D:\loongson\works\ls1d-demo-public-release\user/board.c:297

void ls1d_infrared_disable(_u32 select)
{
bfc01b40:	27bdfff8 	addiu	sp,sp,-8
bfc01b44:	afbe0004 	sw	s8,4(sp)
bfc01b48:	03a0f021 	move	s8,sp
bfc01b4c:	afc40008 	sw	a0,8(s8)
D:\loongson\works\ls1d-demo-public-release\user/board.c:298
    PMU_GPIO_O &= ~((1 << 10)|(1<<2));  //IRPWR -> GPIO output
bfc01b50:	3c02bfeb 	lui	v0,0xbfeb
bfc01b54:	34440014 	ori	a0,v0,0x14
bfc01b58:	3c02bfeb 	lui	v0,0xbfeb
bfc01b5c:	34420014 	ori	v0,v0,0x14
bfc01b60:	8c430000 	lw	v1,0(v0)
bfc01b64:	2402fbfb 	li	v0,-1029
bfc01b68:	00621024 	and	v0,v1,v0
bfc01b6c:	ac820000 	sw	v0,0(a0)
D:\loongson\works\ls1d-demo-public-release\user/board.c:300
	//IR_PWR_OFF();
    if(select == 0)
bfc01b70:	8fc20008 	lw	v0,8(s8)
bfc01b74:	14400009 	bnez	v0,bfc01b9c <ls1d_infrared_disable+0x5c>
bfc01b78:	00000000 	nop
D:\loongson\works\ls1d-demo-public-release\user/board.c:301
    	INT_EN     &= ~0x08;		//disable uart0 int
bfc01b7c:	3c03bfea 	lui	v1,0xbfea
bfc01b80:	3c02bfea 	lui	v0,0xbfea
bfc01b84:	90420000 	lbu	v0,0(v0)
bfc01b88:	304200ff 	andi	v0,v0,0xff
bfc01b8c:	304200f7 	andi	v0,v0,0xf7
bfc01b90:	a0620000 	sb	v0,0(v1)
bfc01b94:	0bf006ed 	j	bfc01bb4 <ls1d_infrared_disable+0x74>
bfc01b98:	00000000 	nop
D:\loongson\works\ls1d-demo-public-release\user/board.c:303
    else
		INT_EN     &= ~0x04;		//disable uart1 int
bfc01b9c:	3c03bfea 	lui	v1,0xbfea
bfc01ba0:	3c02bfea 	lui	v0,0xbfea
bfc01ba4:	90420000 	lbu	v0,0(v0)
bfc01ba8:	304200ff 	andi	v0,v0,0xff
bfc01bac:	304200fb 	andi	v0,v0,0xfb
bfc01bb0:	a0620000 	sb	v0,0(v1)
D:\loongson\works\ls1d-demo-public-release\user/board.c:305

}
bfc01bb4:	03c0e821 	move	sp,s8
bfc01bb8:	8fbe0004 	lw	s8,4(sp)
bfc01bbc:	27bd0008 	addiu	sp,sp,8
bfc01bc0:	03e00008 	jr	ra
bfc01bc4:	00000000 	nop

bfc01bc8 <ls1d_infrared_process>:
ls1d_infrared_process():
D:\loongson\works\ls1d-demo-public-release\user/board.c:308

void ls1d_infrared_process(void *ptr, _u32 select)
{
bfc01bc8:	27bdfff0 	addiu	sp,sp,-16
bfc01bcc:	afbe000c 	sw	s8,12(sp)
bfc01bd0:	03a0f021 	move	s8,sp
bfc01bd4:	afc40010 	sw	a0,16(s8)
bfc01bd8:	afc50014 	sw	a1,20(s8)
D:\loongson\works\ls1d-demo-public-release\user/board.c:309
	struct LS1DTEST *TEST = (struct LS1DTEST *)ptr;
bfc01bdc:	8fc20010 	lw	v0,16(s8)
bfc01be0:	afc20000 	sw	v0,0(s8)
D:\loongson\works\ls1d-demo-public-release\user/board.c:310
	if(select == 0)
bfc01be4:	8fc20014 	lw	v0,20(s8)
bfc01be8:	1440000f 	bnez	v0,bfc01c28 <ls1d_infrared_process+0x60>
bfc01bec:	00000000 	nop
D:\loongson\works\ls1d-demo-public-release\user/board.c:311
		(*TEST).com.buf[(*TEST).com.ptr++] = Uart0_RxData;
bfc01bf0:	8fc20000 	lw	v0,0(s8)
bfc01bf4:	8c4300d8 	lw	v1,216(v0)
bfc01bf8:	8fc20000 	lw	v0,0(s8)
bfc01bfc:	8c4400dc 	lw	a0,220(v0)
bfc01c00:	00641821 	addu	v1,v1,a0
bfc01c04:	3c02bfe8 	lui	v0,0xbfe8
bfc01c08:	90420000 	lbu	v0,0(v0)
bfc01c0c:	304200ff 	andi	v0,v0,0xff
bfc01c10:	a0620000 	sb	v0,0(v1)
bfc01c14:	24830001 	addiu	v1,a0,1
bfc01c18:	8fc20000 	lw	v0,0(s8)
bfc01c1c:	ac4300dc 	sw	v1,220(v0)
bfc01c20:	0bf00717 	j	bfc01c5c <ls1d_infrared_process+0x94>
bfc01c24:	00000000 	nop
D:\loongson\works\ls1d-demo-public-release\user/board.c:313
	else
		(*TEST).com.buf[(*TEST).com.ptr++] = Uart1_RxData;
bfc01c28:	8fc20000 	lw	v0,0(s8)
bfc01c2c:	8c4300d8 	lw	v1,216(v0)
bfc01c30:	8fc20000 	lw	v0,0(s8)
bfc01c34:	8c4400dc 	lw	a0,220(v0)
bfc01c38:	00641821 	addu	v1,v1,a0
bfc01c3c:	3c02bfe8 	lui	v0,0xbfe8
bfc01c40:	34428000 	ori	v0,v0,0x8000
bfc01c44:	90420000 	lbu	v0,0(v0)
bfc01c48:	304200ff 	andi	v0,v0,0xff
bfc01c4c:	a0620000 	sb	v0,0(v1)
bfc01c50:	24830001 	addiu	v1,a0,1
bfc01c54:	8fc20000 	lw	v0,0(s8)
bfc01c58:	ac4300dc 	sw	v1,220(v0)
D:\loongson\works\ls1d-demo-public-release\user/board.c:315

}
bfc01c5c:	03c0e821 	move	sp,s8
bfc01c60:	8fbe000c 	lw	s8,12(sp)
bfc01c64:	27bd0010 	addiu	sp,sp,16
bfc01c68:	03e00008 	jr	ra
bfc01c6c:	00000000 	nop

bfc01c70 <board_init>:
board_init():
D:\loongson\works\ls1d-demo-public-release\user/board.c:318

void board_init()
{
bfc01c70:	27bdffe8 	addiu	sp,sp,-24
bfc01c74:	afbf0014 	sw	ra,20(sp)
bfc01c78:	afbe0010 	sw	s8,16(sp)
bfc01c7c:	03a0f021 	move	s8,sp
D:\loongson\works\ls1d-demo-public-release\user/board.c:319
	printf("\n%s: %s\nsoftware_version: %s\n",
bfc01c80:	3c02bfc1 	lui	v0,0xbfc1
bfc01c84:	2444c5a0 	addiu	a0,v0,-14944
bfc01c88:	3c02bfc1 	lui	v0,0xbfc1
bfc01c8c:	2445c594 	addiu	a1,v0,-14956
bfc01c90:	3c02bfc1 	lui	v0,0xbfc1
bfc01c94:	2446c5c0 	addiu	a2,v0,-14912
bfc01c98:	3c02bfc1 	lui	v0,0xbfc1
bfc01c9c:	2447c5d0 	addiu	a3,v0,-14896
bfc01ca0:	3c02bfc1 	lui	v0,0xbfc1
bfc01ca4:	2459be10 	addiu	t9,v0,-16880
bfc01ca8:	0320f809 	jalr	t9
bfc01cac:	00000000 	nop
D:\loongson\works\ls1d-demo-public-release\user/board.c:325
			__FUNCTION__,
			BOARD_INFO,
			SOFTWARE_VER);

	/* 上电后lcd屏幕全显 */
	PMU_SecToken = PMU_SecToken_chipctrl;
bfc01cb0:	3c02bfeb 	lui	v0,0xbfeb
bfc01cb4:	3443007c 	ori	v1,v0,0x7c
bfc01cb8:	3c0215da 	lui	v0,0x15da
bfc01cbc:	3442ed27 	ori	v0,v0,0xed27
bfc01cc0:	ac620000 	sw	v0,0(v1)
D:\loongson\works\ls1d-demo-public-release\user/board.c:326
	PMU_ChipCtrl &= ~(1<<9);
bfc01cc4:	3c02bfeb 	lui	v0,0xbfeb
bfc01cc8:	3444000c 	ori	a0,v0,0xc
bfc01ccc:	3c02bfeb 	lui	v0,0xbfeb
bfc01cd0:	3442000c 	ori	v0,v0,0xc
bfc01cd4:	8c430000 	lw	v1,0(v0)
bfc01cd8:	2402fdff 	li	v0,-513
bfc01cdc:	00621024 	and	v0,v1,v0
bfc01ce0:	ac820000 	sw	v0,0(a0)
D:\loongson\works\ls1d-demo-public-release\user/board.c:327
	PMU_SecToken = PMU_SecToken_chipctrl;
bfc01ce4:	3c02bfeb 	lui	v0,0xbfeb
bfc01ce8:	3443007c 	ori	v1,v0,0x7c
bfc01cec:	3c0215da 	lui	v0,0x15da
bfc01cf0:	3442ed27 	ori	v0,v0,0xed27
bfc01cf4:	ac620000 	sw	v0,0(v1)
D:\loongson\works\ls1d-demo-public-release\user/board.c:328
	PMU_ChipCtrl |= (1<<8);
bfc01cf8:	3c02bfeb 	lui	v0,0xbfeb
bfc01cfc:	3443000c 	ori	v1,v0,0xc
bfc01d00:	3c02bfeb 	lui	v0,0xbfeb
bfc01d04:	3442000c 	ori	v0,v0,0xc
bfc01d08:	8c420000 	lw	v0,0(v0)
bfc01d0c:	34420100 	ori	v0,v0,0x100
bfc01d10:	ac620000 	sw	v0,0(v1)
D:\loongson\works\ls1d-demo-public-release\user/board.c:329
	LCD_FB_0 = 0xffffffff;
bfc01d14:	3c02bfeb 	lui	v0,0xbfeb
bfc01d18:	3443c000 	ori	v1,v0,0xc000
bfc01d1c:	2402ffff 	li	v0,-1
bfc01d20:	ac620000 	sw	v0,0(v1)
D:\loongson\works\ls1d-demo-public-release\user/board.c:330
	LCD_FB_1 = 0xffffffff;
bfc01d24:	3c02bfeb 	lui	v0,0xbfeb
bfc01d28:	3443c004 	ori	v1,v0,0xc004
bfc01d2c:	2402ffff 	li	v0,-1
bfc01d30:	ac620000 	sw	v0,0(v1)
D:\loongson\works\ls1d-demo-public-release\user/board.c:331
	LCD_FB_2 = 0xffffffff;
bfc01d34:	3c02bfeb 	lui	v0,0xbfeb
bfc01d38:	3443c008 	ori	v1,v0,0xc008
bfc01d3c:	2402ffff 	li	v0,-1
bfc01d40:	ac620000 	sw	v0,0(v1)
D:\loongson\works\ls1d-demo-public-release\user/board.c:332
}
bfc01d44:	03c0e821 	move	sp,s8
bfc01d48:	8fbf0014 	lw	ra,20(sp)
bfc01d4c:	8fbe0010 	lw	s8,16(sp)
bfc01d50:	27bd0018 	addiu	sp,sp,24
bfc01d54:	03e00008 	jr	ra
bfc01d58:	00000000 	nop
bfc01d5c:	00000000 	nop

bfc01d60 <AddDay>:
AddDay():
D:\loongson\works\ls1d-mylib\lib\test/Calendar.c:16
bfc01d60:	27bdfff8 	addiu	sp,sp,-8
bfc01d64:	afbe0004 	sw	s8,4(sp)
bfc01d68:	03a0f021 	move	s8,sp
bfc01d6c:	afc40008 	sw	a0,8(s8)
D:\loongson\works\ls1d-mylib\lib\test/Calendar.c:17
bfc01d70:	8fc20008 	lw	v0,8(s8)
bfc01d74:	8c420008 	lw	v0,8(v0)
bfc01d78:	24430001 	addiu	v1,v0,1
bfc01d7c:	8fc20008 	lw	v0,8(s8)
bfc01d80:	ac430008 	sw	v1,8(v0)
D:\loongson\works\ls1d-mylib\lib\test/Calendar.c:18
bfc01d84:	03c0e821 	move	sp,s8
bfc01d88:	8fbe0004 	lw	s8,4(sp)
bfc01d8c:	27bd0008 	addiu	sp,sp,8
bfc01d90:	03e00008 	jr	ra
bfc01d94:	00000000 	nop

bfc01d98 <AddMonth>:
AddMonth():
D:\loongson\works\ls1d-mylib\lib\test/Calendar.c:21
bfc01d98:	27bdfff8 	addiu	sp,sp,-8
bfc01d9c:	afbe0004 	sw	s8,4(sp)
bfc01da0:	03a0f021 	move	s8,sp
bfc01da4:	afc40008 	sw	a0,8(s8)
D:\loongson\works\ls1d-mylib\lib\test/Calendar.c:22
bfc01da8:	8fc20008 	lw	v0,8(s8)
bfc01dac:	8c420004 	lw	v0,4(v0)
bfc01db0:	24430001 	addiu	v1,v0,1
bfc01db4:	8fc20008 	lw	v0,8(s8)
bfc01db8:	ac430004 	sw	v1,4(v0)
D:\loongson\works\ls1d-mylib\lib\test/Calendar.c:23
bfc01dbc:	8fc30008 	lw	v1,8(s8)
bfc01dc0:	24020001 	li	v0,1
bfc01dc4:	ac620008 	sw	v0,8(v1)
D:\loongson\works\ls1d-mylib\lib\test/Calendar.c:24
bfc01dc8:	03c0e821 	move	sp,s8
bfc01dcc:	8fbe0004 	lw	s8,4(sp)
bfc01dd0:	27bd0008 	addiu	sp,sp,8
bfc01dd4:	03e00008 	jr	ra
bfc01dd8:	00000000 	nop

bfc01ddc <AddYear>:
AddYear():
D:\loongson\works\ls1d-mylib\lib\test/Calendar.c:27
bfc01ddc:	27bdfff8 	addiu	sp,sp,-8
bfc01de0:	afbe0004 	sw	s8,4(sp)
bfc01de4:	03a0f021 	move	s8,sp
bfc01de8:	afc40008 	sw	a0,8(s8)
D:\loongson\works\ls1d-mylib\lib\test/Calendar.c:28
bfc01dec:	8fc20008 	lw	v0,8(s8)
bfc01df0:	8c420000 	lw	v0,0(v0)
bfc01df4:	24430001 	addiu	v1,v0,1
bfc01df8:	8fc20008 	lw	v0,8(s8)
bfc01dfc:	ac430000 	sw	v1,0(v0)
D:\loongson\works\ls1d-mylib\lib\test/Calendar.c:29
bfc01e00:	8fc30008 	lw	v1,8(s8)
bfc01e04:	24020001 	li	v0,1
bfc01e08:	ac620004 	sw	v0,4(v1)
D:\loongson\works\ls1d-mylib\lib\test/Calendar.c:30
bfc01e0c:	8fc30008 	lw	v1,8(s8)
bfc01e10:	24020001 	li	v0,1
bfc01e14:	ac620008 	sw	v0,8(v1)
D:\loongson\works\ls1d-mylib\lib\test/Calendar.c:31
bfc01e18:	03c0e821 	move	sp,s8
bfc01e1c:	8fbe0004 	lw	s8,4(sp)
bfc01e20:	27bd0008 	addiu	sp,sp,8
bfc01e24:	03e00008 	jr	ra
bfc01e28:	00000000 	nop

bfc01e2c <Rtc_Refresh>:
Rtc_Refresh():
D:\loongson\works\ls1d-mylib\lib\test/Calendar.c:34
bfc01e2c:	27bdffc8 	addiu	sp,sp,-56
bfc01e30:	afbf0034 	sw	ra,52(sp)
bfc01e34:	afbe0030 	sw	s8,48(sp)
bfc01e38:	03a0f021 	move	s8,sp
bfc01e3c:	afc40038 	sw	a0,56(s8)
bfc01e40:	afc5003c 	sw	a1,60(s8)
D:\loongson\works\ls1d-mylib\lib\test/Calendar.c:35
bfc01e44:	8fc2003c 	lw	v0,60(s8)
bfc01e48:	afc20010 	sw	v0,16(s8)
D:\loongson\works\ls1d-mylib\lib\test/Calendar.c:36
bfc01e4c:	8fc20010 	lw	v0,16(s8)
bfc01e50:	2c42003d 	sltiu	v0,v0,61
bfc01e54:	14400009 	bnez	v0,bfc01e7c <Rtc_Refresh+0x50>
bfc01e58:	00000000 	nop
D:\loongson\works\ls1d-mylib\lib\test/Calendar.c:37
bfc01e5c:	8fc20038 	lw	v0,56(s8)
bfc01e60:	8c420010 	lw	v0,16(v0)
bfc01e64:	24430001 	addiu	v1,v0,1
bfc01e68:	8fc20038 	lw	v0,56(s8)
bfc01e6c:	ac430010 	sw	v1,16(v0)
D:\loongson\works\ls1d-mylib\lib\test/Calendar.c:38
bfc01e70:	8fc20010 	lw	v0,16(s8)
bfc01e74:	2442ffc4 	addiu	v0,v0,-60
bfc01e78:	afc20010 	sw	v0,16(s8)
D:\loongson\works\ls1d-mylib\lib\test/Calendar.c:41
bfc01e7c:	8fc20038 	lw	v0,56(s8)
bfc01e80:	8c430014 	lw	v1,20(v0)
bfc01e84:	8fc20010 	lw	v0,16(s8)
bfc01e88:	00621821 	addu	v1,v1,v0
bfc01e8c:	8fc20038 	lw	v0,56(s8)
bfc01e90:	ac430014 	sw	v1,20(v0)
D:\loongson\works\ls1d-mylib\lib\test/Calendar.c:42
bfc01e94:	8fc20038 	lw	v0,56(s8)
bfc01e98:	8c420014 	lw	v0,20(v0)
bfc01e9c:	2c42003c 	sltiu	v0,v0,60
bfc01ea0:	1440001e 	bnez	v0,bfc01f1c <Rtc_Refresh+0xf0>
bfc01ea4:	00000000 	nop
D:\loongson\works\ls1d-mylib\lib\test/Calendar.c:43
bfc01ea8:	8fc20038 	lw	v0,56(s8)
bfc01eac:	8c440010 	lw	a0,16(v0)
bfc01eb0:	8fc20038 	lw	v0,56(s8)
bfc01eb4:	8c430014 	lw	v1,20(v0)
bfc01eb8:	3c028888 	lui	v0,0x8888
bfc01ebc:	34428889 	ori	v0,v0,0x8889
bfc01ec0:	00620019 	multu	v1,v0
bfc01ec4:	00001010 	mfhi	v0
bfc01ec8:	00021142 	srl	v0,v0,0x5
bfc01ecc:	00821821 	addu	v1,a0,v0
bfc01ed0:	8fc20038 	lw	v0,56(s8)
bfc01ed4:	ac430010 	sw	v1,16(v0)
D:\loongson\works\ls1d-mylib\lib\test/Calendar.c:44
bfc01ed8:	8fc20038 	lw	v0,56(s8)
bfc01edc:	8c440014 	lw	a0,20(v0)
bfc01ee0:	3c028888 	lui	v0,0x8888
bfc01ee4:	34428889 	ori	v0,v0,0x8889
bfc01ee8:	00820019 	multu	a0,v0
bfc01eec:	00001010 	mfhi	v0
bfc01ef0:	00021142 	srl	v0,v0,0x5
bfc01ef4:	afc2002c 	sw	v0,44(s8)
bfc01ef8:	8fc2002c 	lw	v0,44(s8)
bfc01efc:	00021880 	sll	v1,v0,0x2
bfc01f00:	00031100 	sll	v0,v1,0x4
bfc01f04:	00431023 	subu	v0,v0,v1
bfc01f08:	00821023 	subu	v0,a0,v0
bfc01f0c:	afc2002c 	sw	v0,44(s8)
bfc01f10:	8fc20038 	lw	v0,56(s8)
bfc01f14:	8fc3002c 	lw	v1,44(s8)
bfc01f18:	ac430014 	sw	v1,20(v0)
D:\loongson\works\ls1d-mylib\lib\test/Calendar.c:46
bfc01f1c:	8fc20038 	lw	v0,56(s8)
bfc01f20:	8c420010 	lw	v0,16(v0)
bfc01f24:	2c42003c 	sltiu	v0,v0,60
bfc01f28:	144000ee 	bnez	v0,bfc022e4 <Rtc_Refresh+0x4b8>
bfc01f2c:	00000000 	nop
D:\loongson\works\ls1d-mylib\lib\test/Calendar.c:47
bfc01f30:	8fc20038 	lw	v0,56(s8)
bfc01f34:	8c44000c 	lw	a0,12(v0)
bfc01f38:	8fc20038 	lw	v0,56(s8)
bfc01f3c:	8c430010 	lw	v1,16(v0)
bfc01f40:	3c028888 	lui	v0,0x8888
bfc01f44:	34428889 	ori	v0,v0,0x8889
bfc01f48:	00620019 	multu	v1,v0
bfc01f4c:	00001010 	mfhi	v0
bfc01f50:	00021142 	srl	v0,v0,0x5
bfc01f54:	00821821 	addu	v1,a0,v0
bfc01f58:	8fc20038 	lw	v0,56(s8)
bfc01f5c:	ac43000c 	sw	v1,12(v0)
D:\loongson\works\ls1d-mylib\lib\test/Calendar.c:48
bfc01f60:	8fc20038 	lw	v0,56(s8)
bfc01f64:	8c440010 	lw	a0,16(v0)
bfc01f68:	3c028888 	lui	v0,0x8888
bfc01f6c:	34428889 	ori	v0,v0,0x8889
bfc01f70:	00820019 	multu	a0,v0
bfc01f74:	00001010 	mfhi	v0
bfc01f78:	00021142 	srl	v0,v0,0x5
bfc01f7c:	afc20028 	sw	v0,40(s8)
bfc01f80:	8fc20028 	lw	v0,40(s8)
bfc01f84:	00021880 	sll	v1,v0,0x2
bfc01f88:	00031100 	sll	v0,v1,0x4
bfc01f8c:	00431023 	subu	v0,v0,v1
bfc01f90:	00821023 	subu	v0,a0,v0
bfc01f94:	afc20028 	sw	v0,40(s8)
bfc01f98:	8fc20038 	lw	v0,56(s8)
bfc01f9c:	8fc30028 	lw	v1,40(s8)
bfc01fa0:	ac430010 	sw	v1,16(v0)
bfc01fa4:	0bf008b9 	j	bfc022e4 <Rtc_Refresh+0x4b8>
bfc01fa8:	00000000 	nop
D:\loongson\works\ls1d-mylib\lib\test/Calendar.c:53
bfc01fac:	8fc20038 	lw	v0,56(s8)
bfc01fb0:	8c440000 	lw	a0,0(v0)
bfc01fb4:	3c0251eb 	lui	v0,0x51eb
bfc01fb8:	3442851f 	ori	v0,v0,0x851f
bfc01fbc:	00820019 	multu	a0,v0
bfc01fc0:	00001010 	mfhi	v0
bfc01fc4:	000211c2 	srl	v0,v0,0x7
bfc01fc8:	afc20024 	sw	v0,36(s8)
bfc01fcc:	8fc20024 	lw	v0,36(s8)
bfc01fd0:	00021100 	sll	v0,v0,0x4
bfc01fd4:	00021880 	sll	v1,v0,0x2
bfc01fd8:	00431021 	addu	v0,v0,v1
bfc01fdc:	00021880 	sll	v1,v0,0x2
bfc01fe0:	00431021 	addu	v0,v0,v1
bfc01fe4:	00821023 	subu	v0,a0,v0
bfc01fe8:	afc20024 	sw	v0,36(s8)
bfc01fec:	8fc20024 	lw	v0,36(s8)
bfc01ff0:	10400019 	beqz	v0,bfc02058 <Rtc_Refresh+0x22c>
bfc01ff4:	00000000 	nop
bfc01ff8:	8fc20038 	lw	v0,56(s8)
bfc01ffc:	8c420000 	lw	v0,0(v0)
bfc02000:	30420003 	andi	v0,v0,0x3
bfc02004:	14400064 	bnez	v0,bfc02198 <Rtc_Refresh+0x36c>
bfc02008:	00000000 	nop
bfc0200c:	8fc20038 	lw	v0,56(s8)
bfc02010:	8c440000 	lw	a0,0(v0)
bfc02014:	3c0251eb 	lui	v0,0x51eb
bfc02018:	3442851f 	ori	v0,v0,0x851f
bfc0201c:	00820019 	multu	a0,v0
bfc02020:	00001010 	mfhi	v0
bfc02024:	00021142 	srl	v0,v0,0x5
bfc02028:	afc20020 	sw	v0,32(s8)
bfc0202c:	8fc20020 	lw	v0,32(s8)
bfc02030:	00021080 	sll	v0,v0,0x2
bfc02034:	00021880 	sll	v1,v0,0x2
bfc02038:	00431021 	addu	v0,v0,v1
bfc0203c:	00021880 	sll	v1,v0,0x2
bfc02040:	00431021 	addu	v0,v0,v1
bfc02044:	00821023 	subu	v0,a0,v0
bfc02048:	afc20020 	sw	v0,32(s8)
bfc0204c:	8fc20020 	lw	v0,32(s8)
bfc02050:	10400051 	beqz	v0,bfc02198 <Rtc_Refresh+0x36c>
bfc02054:	00000000 	nop
D:\loongson\works\ls1d-mylib\lib\test/Calendar.c:54
bfc02058:	8fc20038 	lw	v0,56(s8)
bfc0205c:	8c420008 	lw	v0,8(v0)
bfc02060:	afc2001c 	sw	v0,28(s8)
bfc02064:	2402001e 	li	v0,30
bfc02068:	8fc3001c 	lw	v1,28(s8)
bfc0206c:	10620018 	beq	v1,v0,bfc020d0 <Rtc_Refresh+0x2a4>
bfc02070:	00000000 	nop
bfc02074:	2402001f 	li	v0,31
bfc02078:	8fc3001c 	lw	v1,28(s8)
bfc0207c:	10620032 	beq	v1,v0,bfc02148 <Rtc_Refresh+0x31c>
bfc02080:	00000000 	nop
bfc02084:	2402001d 	li	v0,29
bfc02088:	8fc3001c 	lw	v1,28(s8)
bfc0208c:	1462003d 	bne	v1,v0,bfc02184 <Rtc_Refresh+0x358>
bfc02090:	00000000 	nop
D:\loongson\works\ls1d-mylib\lib\test/Calendar.c:56
bfc02094:	8fc20038 	lw	v0,56(s8)
bfc02098:	8c430004 	lw	v1,4(v0)
bfc0209c:	24020002 	li	v0,2
bfc020a0:	14620006 	bne	v1,v0,bfc020bc <Rtc_Refresh+0x290>
bfc020a4:	00000000 	nop
bfc020a8:	8fc40038 	lw	a0,56(s8)
bfc020ac:	0ff00766 	jal	bfc01d98 <AddMonth>
bfc020b0:	00000000 	nop
bfc020b4:	0bf008b4 	j	bfc022d0 <Rtc_Refresh+0x4a4>
bfc020b8:	00000000 	nop
D:\loongson\works\ls1d-mylib\lib\test/Calendar.c:57
bfc020bc:	8fc40038 	lw	a0,56(s8)
bfc020c0:	0ff00758 	jal	bfc01d60 <AddDay>
bfc020c4:	00000000 	nop
bfc020c8:	0bf008b4 	j	bfc022d0 <Rtc_Refresh+0x4a4>
bfc020cc:	00000000 	nop
D:\loongson\works\ls1d-mylib\lib\test/Calendar.c:60
bfc020d0:	8fc20038 	lw	v0,56(s8)
bfc020d4:	8c430004 	lw	v1,4(v0)
bfc020d8:	24020004 	li	v0,4
bfc020dc:	10620010 	beq	v1,v0,bfc02120 <Rtc_Refresh+0x2f4>
bfc020e0:	00000000 	nop
bfc020e4:	8fc20038 	lw	v0,56(s8)
bfc020e8:	8c430004 	lw	v1,4(v0)
bfc020ec:	24020006 	li	v0,6
bfc020f0:	1062000b 	beq	v1,v0,bfc02120 <Rtc_Refresh+0x2f4>
bfc020f4:	00000000 	nop
bfc020f8:	8fc20038 	lw	v0,56(s8)
bfc020fc:	8c430004 	lw	v1,4(v0)
bfc02100:	24020009 	li	v0,9
bfc02104:	10620006 	beq	v1,v0,bfc02120 <Rtc_Refresh+0x2f4>
bfc02108:	00000000 	nop
bfc0210c:	8fc20038 	lw	v0,56(s8)
bfc02110:	8c430004 	lw	v1,4(v0)
bfc02114:	2402000b 	li	v0,11
bfc02118:	14620006 	bne	v1,v0,bfc02134 <Rtc_Refresh+0x308>
bfc0211c:	00000000 	nop
D:\loongson\works\ls1d-mylib\lib\test/Calendar.c:61
bfc02120:	8fc40038 	lw	a0,56(s8)
bfc02124:	0ff00766 	jal	bfc01d98 <AddMonth>
bfc02128:	00000000 	nop
bfc0212c:	0bf008b4 	j	bfc022d0 <Rtc_Refresh+0x4a4>
bfc02130:	00000000 	nop
D:\loongson\works\ls1d-mylib\lib\test/Calendar.c:62
bfc02134:	8fc40038 	lw	a0,56(s8)
bfc02138:	0ff00758 	jal	bfc01d60 <AddDay>
bfc0213c:	00000000 	nop
bfc02140:	0bf008b4 	j	bfc022d0 <Rtc_Refresh+0x4a4>
bfc02144:	00000000 	nop
D:\loongson\works\ls1d-mylib\lib\test/Calendar.c:65
bfc02148:	8fc20038 	lw	v0,56(s8)
bfc0214c:	8c430004 	lw	v1,4(v0)
bfc02150:	2402000c 	li	v0,12
bfc02154:	14620006 	bne	v1,v0,bfc02170 <Rtc_Refresh+0x344>
bfc02158:	00000000 	nop
bfc0215c:	8fc40038 	lw	a0,56(s8)
bfc02160:	0ff00777 	jal	bfc01ddc <AddYear>
bfc02164:	00000000 	nop
bfc02168:	0bf008b4 	j	bfc022d0 <Rtc_Refresh+0x4a4>
bfc0216c:	00000000 	nop
D:\loongson\works\ls1d-mylib\lib\test/Calendar.c:66
bfc02170:	8fc40038 	lw	a0,56(s8)
bfc02174:	0ff00766 	jal	bfc01d98 <AddMonth>
bfc02178:	00000000 	nop
bfc0217c:	0bf008b4 	j	bfc022d0 <Rtc_Refresh+0x4a4>
bfc02180:	00000000 	nop
D:\loongson\works\ls1d-mylib\lib\test/Calendar.c:69
bfc02184:	8fc40038 	lw	a0,56(s8)
bfc02188:	0ff00758 	jal	bfc01d60 <AddDay>
bfc0218c:	00000000 	nop
bfc02190:	0bf008b4 	j	bfc022d0 <Rtc_Refresh+0x4a4>
bfc02194:	00000000 	nop
D:\loongson\works\ls1d-mylib\lib\test/Calendar.c:74
bfc02198:	8fc20038 	lw	v0,56(s8)
bfc0219c:	8c420008 	lw	v0,8(v0)
bfc021a0:	afc20018 	sw	v0,24(s8)
bfc021a4:	2402001e 	li	v0,30
bfc021a8:	8fc30018 	lw	v1,24(s8)
bfc021ac:	10620018 	beq	v1,v0,bfc02210 <Rtc_Refresh+0x3e4>
bfc021b0:	00000000 	nop
bfc021b4:	2402001f 	li	v0,31
bfc021b8:	8fc30018 	lw	v1,24(s8)
bfc021bc:	10620032 	beq	v1,v0,bfc02288 <Rtc_Refresh+0x45c>
bfc021c0:	00000000 	nop
bfc021c4:	2402001c 	li	v0,28
bfc021c8:	8fc30018 	lw	v1,24(s8)
bfc021cc:	1462003d 	bne	v1,v0,bfc022c4 <Rtc_Refresh+0x498>
bfc021d0:	00000000 	nop
D:\loongson\works\ls1d-mylib\lib\test/Calendar.c:76
bfc021d4:	8fc20038 	lw	v0,56(s8)
bfc021d8:	8c430004 	lw	v1,4(v0)
bfc021dc:	24020002 	li	v0,2
bfc021e0:	14620006 	bne	v1,v0,bfc021fc <Rtc_Refresh+0x3d0>
bfc021e4:	00000000 	nop
bfc021e8:	8fc40038 	lw	a0,56(s8)
bfc021ec:	0ff00766 	jal	bfc01d98 <AddMonth>
bfc021f0:	00000000 	nop
bfc021f4:	0bf008b4 	j	bfc022d0 <Rtc_Refresh+0x4a4>
bfc021f8:	00000000 	nop
D:\loongson\works\ls1d-mylib\lib\test/Calendar.c:77
bfc021fc:	8fc40038 	lw	a0,56(s8)
bfc02200:	0ff00758 	jal	bfc01d60 <AddDay>
bfc02204:	00000000 	nop
bfc02208:	0bf008b4 	j	bfc022d0 <Rtc_Refresh+0x4a4>
bfc0220c:	00000000 	nop
D:\loongson\works\ls1d-mylib\lib\test/Calendar.c:80
bfc02210:	8fc20038 	lw	v0,56(s8)
bfc02214:	8c430004 	lw	v1,4(v0)
bfc02218:	24020004 	li	v0,4
bfc0221c:	10620010 	beq	v1,v0,bfc02260 <Rtc_Refresh+0x434>
bfc02220:	00000000 	nop
bfc02224:	8fc20038 	lw	v0,56(s8)
bfc02228:	8c430004 	lw	v1,4(v0)
bfc0222c:	24020006 	li	v0,6
bfc02230:	1062000b 	beq	v1,v0,bfc02260 <Rtc_Refresh+0x434>
bfc02234:	00000000 	nop
bfc02238:	8fc20038 	lw	v0,56(s8)
bfc0223c:	8c430004 	lw	v1,4(v0)
bfc02240:	24020009 	li	v0,9
bfc02244:	10620006 	beq	v1,v0,bfc02260 <Rtc_Refresh+0x434>
bfc02248:	00000000 	nop
bfc0224c:	8fc20038 	lw	v0,56(s8)
bfc02250:	8c430004 	lw	v1,4(v0)
bfc02254:	2402000b 	li	v0,11
bfc02258:	14620006 	bne	v1,v0,bfc02274 <Rtc_Refresh+0x448>
bfc0225c:	00000000 	nop
D:\loongson\works\ls1d-mylib\lib\test/Calendar.c:81
bfc02260:	8fc40038 	lw	a0,56(s8)
bfc02264:	0ff00766 	jal	bfc01d98 <AddMonth>
bfc02268:	00000000 	nop
bfc0226c:	0bf008b4 	j	bfc022d0 <Rtc_Refresh+0x4a4>
bfc02270:	00000000 	nop
D:\loongson\works\ls1d-mylib\lib\test/Calendar.c:82
bfc02274:	8fc40038 	lw	a0,56(s8)
bfc02278:	0ff00758 	jal	bfc01d60 <AddDay>
bfc0227c:	00000000 	nop
bfc02280:	0bf008b4 	j	bfc022d0 <Rtc_Refresh+0x4a4>
bfc02284:	00000000 	nop
D:\loongson\works\ls1d-mylib\lib\test/Calendar.c:85
bfc02288:	8fc20038 	lw	v0,56(s8)
bfc0228c:	8c430004 	lw	v1,4(v0)
bfc02290:	2402000c 	li	v0,12
bfc02294:	14620006 	bne	v1,v0,bfc022b0 <Rtc_Refresh+0x484>
bfc02298:	00000000 	nop
bfc0229c:	8fc40038 	lw	a0,56(s8)
bfc022a0:	0ff00777 	jal	bfc01ddc <AddYear>
bfc022a4:	00000000 	nop
bfc022a8:	0bf008b4 	j	bfc022d0 <Rtc_Refresh+0x4a4>
bfc022ac:	00000000 	nop
D:\loongson\works\ls1d-mylib\lib\test/Calendar.c:86
bfc022b0:	8fc40038 	lw	a0,56(s8)
bfc022b4:	0ff00766 	jal	bfc01d98 <AddMonth>
bfc022b8:	00000000 	nop
bfc022bc:	0bf008b4 	j	bfc022d0 <Rtc_Refresh+0x4a4>
bfc022c0:	00000000 	nop
D:\loongson\works\ls1d-mylib\lib\test/Calendar.c:89
bfc022c4:	8fc40038 	lw	a0,56(s8)
bfc022c8:	0ff00758 	jal	bfc01d60 <AddDay>
bfc022cc:	00000000 	nop
D:\loongson\works\ls1d-mylib\lib\test/Calendar.c:93
bfc022d0:	8fc20038 	lw	v0,56(s8)
bfc022d4:	8c42000c 	lw	v0,12(v0)
bfc022d8:	2443ffe8 	addiu	v1,v0,-24
bfc022dc:	8fc20038 	lw	v0,56(s8)
bfc022e0:	ac43000c 	sw	v1,12(v0)
D:\loongson\works\ls1d-mylib\lib\test/Calendar.c:50
bfc022e4:	8fc20038 	lw	v0,56(s8)
bfc022e8:	8c42000c 	lw	v0,12(v0)
bfc022ec:	2c420018 	sltiu	v0,v0,24
bfc022f0:	1040ff2e 	beqz	v0,bfc01fac <Rtc_Refresh+0x180>
bfc022f4:	00000000 	nop
D:\loongson\works\ls1d-mylib\lib\test/Calendar.c:96
bfc022f8:	03c0e821 	move	sp,s8
bfc022fc:	8fbf0034 	lw	ra,52(sp)
bfc02300:	8fbe0030 	lw	s8,48(sp)
bfc02304:	27bd0038 	addiu	sp,sp,56
bfc02308:	03e00008 	jr	ra
bfc0230c:	00000000 	nop

bfc02310 <Rtc_Init>:
Rtc_Init():
D:\loongson\works\ls1d-mylib\lib\test/Calendar.c:99
bfc02310:	27bdffe8 	addiu	sp,sp,-24
bfc02314:	afbf0014 	sw	ra,20(sp)
bfc02318:	afbe0010 	sw	s8,16(sp)
bfc0231c:	03a0f021 	move	s8,sp
bfc02320:	afc40018 	sw	a0,24(s8)
D:\loongson\works\ls1d-mylib\lib\test/Calendar.c:100
bfc02324:	8fc40018 	lw	a0,24(s8)
bfc02328:	00002821 	move	a1,zero
bfc0232c:	24060018 	li	a2,24
bfc02330:	3c02bfc1 	lui	v0,0xbfc1
bfc02334:	2459bb10 	addiu	t9,v0,-17648
bfc02338:	0320f809 	jalr	t9
bfc0233c:	00000000 	nop
D:\loongson\works\ls1d-mylib\lib\test/Calendar.c:101
bfc02340:	03c0e821 	move	sp,s8
bfc02344:	8fbf0014 	lw	ra,20(sp)
bfc02348:	8fbe0010 	lw	s8,16(sp)
bfc0234c:	27bd0018 	addiu	sp,sp,24
bfc02350:	03e00008 	jr	ra
bfc02354:	00000000 	nop

bfc02358 <Rtc_Modify>:
Rtc_Modify():
D:\loongson\works\ls1d-mylib\lib\test/Calendar.c:104
bfc02358:	27bdffe8 	addiu	sp,sp,-24
bfc0235c:	afbf0014 	sw	ra,20(sp)
bfc02360:	afbe0010 	sw	s8,16(sp)
bfc02364:	03a0f021 	move	s8,sp
bfc02368:	afc40018 	sw	a0,24(s8)
bfc0236c:	afc5001c 	sw	a1,28(s8)
D:\loongson\works\ls1d-mylib\lib\test/Calendar.c:105
bfc02370:	8fc40018 	lw	a0,24(s8)
bfc02374:	8fc5001c 	lw	a1,28(s8)
bfc02378:	24060018 	li	a2,24
bfc0237c:	3c02bfc1 	lui	v0,0xbfc1
bfc02380:	2459bb90 	addiu	t9,v0,-17520
bfc02384:	0320f809 	jalr	t9
bfc02388:	00000000 	nop
D:\loongson\works\ls1d-mylib\lib\test/Calendar.c:106
bfc0238c:	03c0e821 	move	sp,s8
bfc02390:	8fbf0014 	lw	ra,20(sp)
bfc02394:	8fbe0010 	lw	s8,16(sp)
bfc02398:	27bd0018 	addiu	sp,sp,24
bfc0239c:	03e00008 	jr	ra
bfc023a0:	00000000 	nop

bfc023a4 <Calendar_Init>:
Calendar_Init():
D:\loongson\works\ls1d-mylib\lib\test/Calendar.c:109
bfc023a4:	27bdffe8 	addiu	sp,sp,-24
bfc023a8:	afbf0014 	sw	ra,20(sp)
bfc023ac:	afbe0010 	sw	s8,16(sp)
bfc023b0:	03a0f021 	move	s8,sp
bfc023b4:	afc40018 	sw	a0,24(s8)
D:\loongson\works\ls1d-mylib\lib\test/Calendar.c:110
bfc023b8:	3c02bfc0 	lui	v0,0xbfc0
bfc023bc:	24432310 	addiu	v1,v0,8976
bfc023c0:	8fc20018 	lw	v0,24(s8)
bfc023c4:	ac43001c 	sw	v1,28(v0)
D:\loongson\works\ls1d-mylib\lib\test/Calendar.c:111
bfc023c8:	8fc20018 	lw	v0,24(s8)
bfc023cc:	8c59001c 	lw	t9,28(v0)
bfc023d0:	8fc20018 	lw	v0,24(s8)
bfc023d4:	00402021 	move	a0,v0
bfc023d8:	0320f809 	jalr	t9
bfc023dc:	00000000 	nop
D:\loongson\works\ls1d-mylib\lib\test/Calendar.c:112
bfc023e0:	3c02bfc0 	lui	v0,0xbfc0
bfc023e4:	24431e2c 	addiu	v1,v0,7724
bfc023e8:	8fc20018 	lw	v0,24(s8)
bfc023ec:	ac430020 	sw	v1,32(v0)
D:\loongson\works\ls1d-mylib\lib\test/Calendar.c:113
bfc023f0:	3c02bfc0 	lui	v0,0xbfc0
bfc023f4:	24432358 	addiu	v1,v0,9048
bfc023f8:	8fc20018 	lw	v0,24(s8)
bfc023fc:	ac430024 	sw	v1,36(v0)
D:\loongson\works\ls1d-mylib\lib\test/Calendar.c:114
bfc02400:	03c0e821 	move	sp,s8
bfc02404:	8fbf0014 	lw	ra,20(sp)
bfc02408:	8fbe0010 	lw	s8,16(sp)
bfc0240c:	27bd0018 	addiu	sp,sp,24
bfc02410:	03e00008 	jr	ra
bfc02414:	00000000 	nop

bfc02418 <Calendar_print>:
Calendar_print():
D:\loongson\works\ls1d-mylib\lib\test/Calendar.c:116
bfc02418:	27bdffd8 	addiu	sp,sp,-40
bfc0241c:	afbf0024 	sw	ra,36(sp)
bfc02420:	afbe0020 	sw	s8,32(sp)
bfc02424:	03a0f021 	move	s8,sp
bfc02428:	afc40028 	sw	a0,40(s8)
D:\loongson\works\ls1d-mylib\lib\test/Calendar.c:117
bfc0242c:	8fc20028 	lw	v0,40(s8)
bfc02430:	8c590020 	lw	t9,32(v0)
bfc02434:	8fc30028 	lw	v1,40(s8)
bfc02438:	8fc20028 	lw	v0,40(s8)
bfc0243c:	8c420018 	lw	v0,24(v0)
bfc02440:	00602021 	move	a0,v1
bfc02444:	00402821 	move	a1,v0
bfc02448:	0320f809 	jalr	t9
bfc0244c:	00000000 	nop
D:\loongson\works\ls1d-mylib\lib\test/Calendar.c:118
bfc02450:	8fc20028 	lw	v0,40(s8)
bfc02454:	8c450000 	lw	a1,0(v0)
bfc02458:	8fc20028 	lw	v0,40(s8)
bfc0245c:	8c460004 	lw	a2,4(v0)
bfc02460:	8fc20028 	lw	v0,40(s8)
bfc02464:	8c470008 	lw	a3,8(v0)
bfc02468:	8fc20028 	lw	v0,40(s8)
bfc0246c:	8c43000c 	lw	v1,12(v0)
bfc02470:	8fc20028 	lw	v0,40(s8)
bfc02474:	8c440010 	lw	a0,16(v0)
bfc02478:	8fc20028 	lw	v0,40(s8)
bfc0247c:	8c420014 	lw	v0,20(v0)
bfc02480:	afa30010 	sw	v1,16(sp)
bfc02484:	afa40014 	sw	a0,20(sp)
bfc02488:	afa20018 	sw	v0,24(sp)
bfc0248c:	3c02bfc1 	lui	v0,0xbfc1
bfc02490:	2444c5e0 	addiu	a0,v0,-14880
bfc02494:	3c02bfc1 	lui	v0,0xbfc1
bfc02498:	2459be10 	addiu	t9,v0,-16880
bfc0249c:	0320f809 	jalr	t9
bfc024a0:	00000000 	nop
D:\loongson\works\ls1d-mylib\lib\test/Calendar.c:125
bfc024a4:	03c0e821 	move	sp,s8
bfc024a8:	8fbf0024 	lw	ra,36(sp)
bfc024ac:	8fbe0020 	lw	s8,32(sp)
bfc024b0:	27bd0028 	addiu	sp,sp,40
bfc024b4:	03e00008 	jr	ra
bfc024b8:	00000000 	nop
bfc024bc:	00000000 	nop

bfc024c0 <LcdTest1>:
LcdTest1():
D:\loongson\works\ls1d-mylib\lib\test/lcd-test.c:6
bfc024c0:	27bdfff8 	addiu	sp,sp,-8
bfc024c4:	afbe0004 	sw	s8,4(sp)
bfc024c8:	03a0f021 	move	s8,sp
D:\loongson\works\ls1d-mylib\lib\test/lcd-test.c:10
bfc024cc:	3c02a000 	lui	v0,0xa000
bfc024d0:	8c421010 	lw	v0,4112(v0)
bfc024d4:	14400009 	bnez	v0,bfc024fc <LcdTest1+0x3c>
bfc024d8:	00000000 	nop
bfc024dc:	3c02bfeb 	lui	v0,0xbfeb
bfc024e0:	3442c008 	ori	v0,v0,0xc008
bfc024e4:	ac400000 	sw	zero,0(v0)
bfc024e8:	3c02bfeb 	lui	v0,0xbfeb
bfc024ec:	3443c000 	ori	v1,v0,0xc000
bfc024f0:	3c02a000 	lui	v0,0xa000
bfc024f4:	8c421014 	lw	v0,4116(v0)
bfc024f8:	ac620000 	sw	v0,0(v1)
D:\loongson\works\ls1d-mylib\lib\test/lcd-test.c:11
bfc024fc:	3c02a000 	lui	v0,0xa000
bfc02500:	8c431010 	lw	v1,4112(v0)
bfc02504:	24020001 	li	v0,1
bfc02508:	14620009 	bne	v1,v0,bfc02530 <LcdTest1+0x70>
bfc0250c:	00000000 	nop
bfc02510:	3c02bfeb 	lui	v0,0xbfeb
bfc02514:	3442c000 	ori	v0,v0,0xc000
bfc02518:	ac400000 	sw	zero,0(v0)
bfc0251c:	3c02bfeb 	lui	v0,0xbfeb
bfc02520:	3443c004 	ori	v1,v0,0xc004
bfc02524:	3c02a000 	lui	v0,0xa000
bfc02528:	8c421014 	lw	v0,4116(v0)
bfc0252c:	ac620000 	sw	v0,0(v1)
D:\loongson\works\ls1d-mylib\lib\test/lcd-test.c:12
bfc02530:	3c02a000 	lui	v0,0xa000
bfc02534:	8c431010 	lw	v1,4112(v0)
bfc02538:	24020002 	li	v0,2
bfc0253c:	14620009 	bne	v1,v0,bfc02564 <LcdTest1+0xa4>
bfc02540:	00000000 	nop
bfc02544:	3c02bfeb 	lui	v0,0xbfeb
bfc02548:	3442c004 	ori	v0,v0,0xc004
bfc0254c:	ac400000 	sw	zero,0(v0)
bfc02550:	3c02bfeb 	lui	v0,0xbfeb
bfc02554:	3443c008 	ori	v1,v0,0xc008
bfc02558:	3c02a000 	lui	v0,0xa000
bfc0255c:	8c421014 	lw	v0,4116(v0)
bfc02560:	ac620000 	sw	v0,0(v1)
D:\loongson\works\ls1d-mylib\lib\test/lcd-test.c:14
bfc02564:	3c02a000 	lui	v0,0xa000
bfc02568:	8c431010 	lw	v1,4112(v0)
bfc0256c:	24020002 	li	v0,2
bfc02570:	1462000c 	bne	v1,v0,bfc025a4 <LcdTest1+0xe4>
bfc02574:	00000000 	nop
D:\loongson\works\ls1d-mylib\lib\test/lcd-test.c:16
bfc02578:	3c02a000 	lui	v0,0xa000
bfc0257c:	8c431014 	lw	v1,4116(v0)
bfc02580:	34028000 	li	v0,0x8000
bfc02584:	14620013 	bne	v1,v0,bfc025d4 <LcdTest1+0x114>
bfc02588:	00000000 	nop
D:\loongson\works\ls1d-mylib\lib\test/lcd-test.c:18
bfc0258c:	3c02a000 	lui	v0,0xa000
bfc02590:	ac401014 	sw	zero,4116(v0)
D:\loongson\works\ls1d-mylib\lib\test/lcd-test.c:19
bfc02594:	3c02a000 	lui	v0,0xa000
bfc02598:	ac401010 	sw	zero,4112(v0)
bfc0259c:	0bf00975 	j	bfc025d4 <LcdTest1+0x114>
bfc025a0:	00000000 	nop
D:\loongson\works\ls1d-mylib\lib\test/lcd-test.c:24
bfc025a4:	3c02a000 	lui	v0,0xa000
bfc025a8:	8c431014 	lw	v1,4116(v0)
bfc025ac:	3c028000 	lui	v0,0x8000
bfc025b0:	14620008 	bne	v1,v0,bfc025d4 <LcdTest1+0x114>
bfc025b4:	00000000 	nop
D:\loongson\works\ls1d-mylib\lib\test/lcd-test.c:26
bfc025b8:	3c02a000 	lui	v0,0xa000
bfc025bc:	ac401014 	sw	zero,4116(v0)
D:\loongson\works\ls1d-mylib\lib\test/lcd-test.c:27
bfc025c0:	3c02a000 	lui	v0,0xa000
bfc025c4:	8c421010 	lw	v0,4112(v0)
bfc025c8:	24430001 	addiu	v1,v0,1
bfc025cc:	3c02a000 	lui	v0,0xa000
bfc025d0:	ac431010 	sw	v1,4112(v0)
D:\loongson\works\ls1d-mylib\lib\test/lcd-test.c:31
bfc025d4:	3c02a000 	lui	v0,0xa000
bfc025d8:	8c421014 	lw	v0,4116(v0)
bfc025dc:	14400008 	bnez	v0,bfc02600 <LcdTest1+0x140>
bfc025e0:	00000000 	nop
bfc025e4:	3c02a000 	lui	v0,0xa000
bfc025e8:	8c421014 	lw	v0,4116(v0)
bfc025ec:	24430001 	addiu	v1,v0,1
bfc025f0:	3c02a000 	lui	v0,0xa000
bfc025f4:	ac431014 	sw	v1,4116(v0)
bfc025f8:	0bf00985 	j	bfc02614 <LcdTest1+0x154>
bfc025fc:	00000000 	nop
D:\loongson\works\ls1d-mylib\lib\test/lcd-test.c:32
bfc02600:	3c02a000 	lui	v0,0xa000
bfc02604:	8c421014 	lw	v0,4116(v0)
bfc02608:	00021840 	sll	v1,v0,0x1
bfc0260c:	3c02a000 	lui	v0,0xa000
bfc02610:	ac431014 	sw	v1,4116(v0)
D:\loongson\works\ls1d-mylib\lib\test/lcd-test.c:34
bfc02614:	03c0e821 	move	sp,s8
bfc02618:	8fbe0004 	lw	s8,4(sp)
bfc0261c:	27bd0008 	addiu	sp,sp,8
bfc02620:	03e00008 	jr	ra
bfc02624:	00000000 	nop

bfc02628 <LcdTest2>:
LcdTest2():
D:\loongson\works\ls1d-mylib\lib\test/lcd-test.c:37
bfc02628:	27bdffe0 	addiu	sp,sp,-32
bfc0262c:	afbf001c 	sw	ra,28(sp)
bfc02630:	afbe0018 	sw	s8,24(sp)
bfc02634:	03a0f021 	move	s8,sp
bfc02638:	afc40020 	sw	a0,32(s8)
D:\loongson\works\ls1d-mylib\lib\test/lcd-test.c:41
bfc0263c:	8fc20020 	lw	v0,32(s8)
bfc02640:	afc20014 	sw	v0,20(s8)
D:\loongson\works\ls1d-mylib\lib\test/lcd-test.c:42
bfc02644:	8fc20020 	lw	v0,32(s8)
bfc02648:	8c420010 	lw	v0,16(v0)
bfc0264c:	afc20010 	sw	v0,16(s8)
D:\loongson\works\ls1d-mylib\lib\test/lcd-test.c:43
bfc02650:	3c02a000 	lui	v0,0xa000
bfc02654:	8c43101c 	lw	v1,4124(v0)
bfc02658:	8fc20014 	lw	v0,20(s8)
bfc0265c:	00432021 	addu	a0,v0,v1
bfc02660:	3c02a000 	lui	v0,0xa000
bfc02664:	8c431018 	lw	v1,4120(v0)
bfc02668:	8fc20010 	lw	v0,16(s8)
bfc0266c:	00431021 	addu	v0,v0,v1
bfc02670:	90420000 	lbu	v0,0(v0)
bfc02674:	a0820000 	sb	v0,0(a0)
bfc02678:	24630001 	addiu	v1,v1,1
bfc0267c:	3c02a000 	lui	v0,0xa000
bfc02680:	ac431018 	sw	v1,4120(v0)
D:\loongson\works\ls1d-mylib\lib\test/lcd-test.c:44
bfc02684:	3c02a000 	lui	v0,0xa000
bfc02688:	8c421258 	lw	v0,4696(v0)
bfc0268c:	2c420005 	sltiu	v0,v0,5
bfc02690:	14400017 	bnez	v0,bfc026f0 <LcdTest2+0xc8>
bfc02694:	00000000 	nop
bfc02698:	3c02a000 	lui	v0,0xa000
bfc0269c:	8c431018 	lw	v1,4120(v0)
bfc026a0:	8fc20010 	lw	v0,16(s8)
bfc026a4:	00431021 	addu	v0,v0,v1
bfc026a8:	90420000 	lbu	v0,0(v0)
bfc026ac:	00402821 	move	a1,v0
bfc026b0:	2463ffff 	addiu	v1,v1,-1
bfc026b4:	3c02a000 	lui	v0,0xa000
bfc026b8:	ac431018 	sw	v1,4120(v0)
bfc026bc:	3c02a000 	lui	v0,0xa000
bfc026c0:	8c43101c 	lw	v1,4124(v0)
bfc026c4:	8fc20014 	lw	v0,20(s8)
bfc026c8:	00431021 	addu	v0,v0,v1
bfc026cc:	90420000 	lbu	v0,0(v0)
bfc026d0:	00401821 	move	v1,v0
bfc026d4:	3c02bfc1 	lui	v0,0xbfc1
bfc026d8:	2444c610 	addiu	a0,v0,-14832
bfc026dc:	00603021 	move	a2,v1
bfc026e0:	3c02bfc1 	lui	v0,0xbfc1
bfc026e4:	2459be10 	addiu	t9,v0,-16880
bfc026e8:	0320f809 	jalr	t9
bfc026ec:	00000000 	nop
D:\loongson\works\ls1d-mylib\lib\test/lcd-test.c:45
bfc026f0:	3c02a000 	lui	v0,0xa000
bfc026f4:	8c431018 	lw	v1,4120(v0)
bfc026f8:	2402000a 	li	v0,10
bfc026fc:	14620010 	bne	v1,v0,bfc02740 <LcdTest2+0x118>
bfc02700:	00000000 	nop
D:\loongson\works\ls1d-mylib\lib\test/lcd-test.c:47
bfc02704:	3c02a000 	lui	v0,0xa000
bfc02708:	ac401018 	sw	zero,4120(v0)
D:\loongson\works\ls1d-mylib\lib\test/lcd-test.c:48
bfc0270c:	3c02a000 	lui	v0,0xa000
bfc02710:	8c42101c 	lw	v0,4124(v0)
bfc02714:	24430001 	addiu	v1,v0,1
bfc02718:	3c02a000 	lui	v0,0xa000
bfc0271c:	ac43101c 	sw	v1,4124(v0)
D:\loongson\works\ls1d-mylib\lib\test/lcd-test.c:49
bfc02720:	8fc20020 	lw	v0,32(s8)
bfc02724:	8c43000c 	lw	v1,12(v0)
bfc02728:	3c02a000 	lui	v0,0xa000
bfc0272c:	8c42101c 	lw	v0,4124(v0)
bfc02730:	14620003 	bne	v1,v0,bfc02740 <LcdTest2+0x118>
bfc02734:	00000000 	nop
D:\loongson\works\ls1d-mylib\lib\test/lcd-test.c:51
bfc02738:	3c02a000 	lui	v0,0xa000
bfc0273c:	ac40101c 	sw	zero,4124(v0)
D:\loongson\works\ls1d-mylib\lib\test/lcd-test.c:55
bfc02740:	8fc20020 	lw	v0,32(s8)
bfc02744:	8c590030 	lw	t9,48(v0)
bfc02748:	8fc20020 	lw	v0,32(s8)
bfc0274c:	00402021 	move	a0,v0
bfc02750:	0320f809 	jalr	t9
bfc02754:	00000000 	nop
D:\loongson\works\ls1d-mylib\lib\test/lcd-test.c:56
bfc02758:	03c0e821 	move	sp,s8
bfc0275c:	8fbf001c 	lw	ra,28(sp)
bfc02760:	8fbe0018 	lw	s8,24(sp)
bfc02764:	27bd0020 	addiu	sp,sp,32
bfc02768:	03e00008 	jr	ra
bfc0276c:	00000000 	nop

bfc02770 <LcdTest3>:
LcdTest3():
D:\loongson\works\ls1d-mylib\lib\test/lcd-test.c:59
bfc02770:	27bdffe0 	addiu	sp,sp,-32
bfc02774:	afbf001c 	sw	ra,28(sp)
bfc02778:	afbe0018 	sw	s8,24(sp)
bfc0277c:	03a0f021 	move	s8,sp
bfc02780:	afc40020 	sw	a0,32(s8)
D:\loongson\works\ls1d-mylib\lib\test/lcd-test.c:63
bfc02784:	8fc20020 	lw	v0,32(s8)
bfc02788:	afc20014 	sw	v0,20(s8)
D:\loongson\works\ls1d-mylib\lib\test/lcd-test.c:64
bfc0278c:	8fc20020 	lw	v0,32(s8)
bfc02790:	8c420014 	lw	v0,20(v0)
bfc02794:	afc20010 	sw	v0,16(s8)
D:\loongson\works\ls1d-mylib\lib\test/lcd-test.c:65
bfc02798:	3c02a000 	lui	v0,0xa000
bfc0279c:	8c431024 	lw	v1,4132(v0)
bfc027a0:	8fc20014 	lw	v0,20(s8)
bfc027a4:	00432021 	addu	a0,v0,v1
bfc027a8:	3c02a000 	lui	v0,0xa000
bfc027ac:	8c431020 	lw	v1,4128(v0)
bfc027b0:	8fc20010 	lw	v0,16(s8)
bfc027b4:	00431021 	addu	v0,v0,v1
bfc027b8:	90420000 	lbu	v0,0(v0)
bfc027bc:	a0820000 	sb	v0,0(a0)
bfc027c0:	24630001 	addiu	v1,v1,1
bfc027c4:	3c02a000 	lui	v0,0xa000
bfc027c8:	ac431020 	sw	v1,4128(v0)
D:\loongson\works\ls1d-mylib\lib\test/lcd-test.c:66
bfc027cc:	3c02a000 	lui	v0,0xa000
bfc027d0:	8c421258 	lw	v0,4696(v0)
bfc027d4:	2c420005 	sltiu	v0,v0,5
bfc027d8:	14400017 	bnez	v0,bfc02838 <LcdTest3+0xc8>
bfc027dc:	00000000 	nop
bfc027e0:	3c02a000 	lui	v0,0xa000
bfc027e4:	8c431020 	lw	v1,4128(v0)
bfc027e8:	8fc20010 	lw	v0,16(s8)
bfc027ec:	00431021 	addu	v0,v0,v1
bfc027f0:	90420000 	lbu	v0,0(v0)
bfc027f4:	00402821 	move	a1,v0
bfc027f8:	2463ffff 	addiu	v1,v1,-1
bfc027fc:	3c02a000 	lui	v0,0xa000
bfc02800:	ac431020 	sw	v1,4128(v0)
bfc02804:	3c02a000 	lui	v0,0xa000
bfc02808:	8c431024 	lw	v1,4132(v0)
bfc0280c:	8fc20014 	lw	v0,20(s8)
bfc02810:	00431021 	addu	v0,v0,v1
bfc02814:	90420000 	lbu	v0,0(v0)
bfc02818:	00401821 	move	v1,v0
bfc0281c:	3c02bfc1 	lui	v0,0xbfc1
bfc02820:	2444c610 	addiu	a0,v0,-14832
bfc02824:	00603021 	move	a2,v1
bfc02828:	3c02bfc1 	lui	v0,0xbfc1
bfc0282c:	2459be10 	addiu	t9,v0,-16880
bfc02830:	0320f809 	jalr	t9
bfc02834:	00000000 	nop
D:\loongson\works\ls1d-mylib\lib\test/lcd-test.c:67
bfc02838:	3c02a000 	lui	v0,0xa000
bfc0283c:	8c431020 	lw	v1,4128(v0)
bfc02840:	24020006 	li	v0,6
bfc02844:	14620010 	bne	v1,v0,bfc02888 <LcdTest3+0x118>
bfc02848:	00000000 	nop
D:\loongson\works\ls1d-mylib\lib\test/lcd-test.c:69
bfc0284c:	3c02a000 	lui	v0,0xa000
bfc02850:	ac401020 	sw	zero,4128(v0)
D:\loongson\works\ls1d-mylib\lib\test/lcd-test.c:70
bfc02854:	3c02a000 	lui	v0,0xa000
bfc02858:	8c421024 	lw	v0,4132(v0)
bfc0285c:	24430001 	addiu	v1,v0,1
bfc02860:	3c02a000 	lui	v0,0xa000
bfc02864:	ac431024 	sw	v1,4132(v0)
D:\loongson\works\ls1d-mylib\lib\test/lcd-test.c:71
bfc02868:	8fc20020 	lw	v0,32(s8)
bfc0286c:	8c43000c 	lw	v1,12(v0)
bfc02870:	3c02a000 	lui	v0,0xa000
bfc02874:	8c421024 	lw	v0,4132(v0)
bfc02878:	14620003 	bne	v1,v0,bfc02888 <LcdTest3+0x118>
bfc0287c:	00000000 	nop
D:\loongson\works\ls1d-mylib\lib\test/lcd-test.c:73
bfc02880:	3c02a000 	lui	v0,0xa000
bfc02884:	ac401024 	sw	zero,4132(v0)
D:\loongson\works\ls1d-mylib\lib\test/lcd-test.c:77
bfc02888:	8fc20020 	lw	v0,32(s8)
bfc0288c:	8c590030 	lw	t9,48(v0)
bfc02890:	8fc20020 	lw	v0,32(s8)
bfc02894:	00402021 	move	a0,v0
bfc02898:	0320f809 	jalr	t9
bfc0289c:	00000000 	nop
D:\loongson\works\ls1d-mylib\lib\test/lcd-test.c:78
bfc028a0:	03c0e821 	move	sp,s8
bfc028a4:	8fbf001c 	lw	ra,28(sp)
bfc028a8:	8fbe0018 	lw	s8,24(sp)
bfc028ac:	27bd0020 	addiu	sp,sp,32
bfc028b0:	03e00008 	jr	ra
bfc028b4:	00000000 	nop

bfc028b8 <lcd_print>:
lcd_print():
D:\loongson\works\ls1d-mylib\lib\test/lcd-test.c:81
bfc028b8:	27bdffd8 	addiu	sp,sp,-40
bfc028bc:	afbf0024 	sw	ra,36(sp)
bfc028c0:	afbe0020 	sw	s8,32(sp)
bfc028c4:	03a0f021 	move	s8,sp
bfc028c8:	afc40028 	sw	a0,40(s8)
D:\loongson\works\ls1d-mylib\lib\test/lcd-test.c:82
bfc028cc:	8fc20028 	lw	v0,40(s8)
bfc028d0:	8c420034 	lw	v0,52(v0)
bfc028d4:	afc20010 	sw	v0,16(s8)
D:\loongson\works\ls1d-mylib\lib\test/lcd-test.c:83
bfc028d8:	3c02a000 	lui	v0,0xa000
bfc028dc:	8c421258 	lw	v0,4696(v0)
bfc028e0:	2c420002 	sltiu	v0,v0,2
bfc028e4:	14400008 	bnez	v0,bfc02908 <lcd_print+0x50>
bfc028e8:	00000000 	nop
bfc028ec:	3c02bfc1 	lui	v0,0xbfc1
bfc028f0:	2444c61c 	addiu	a0,v0,-14820
bfc028f4:	8fc50010 	lw	a1,16(s8)
bfc028f8:	3c02bfc1 	lui	v0,0xbfc1
bfc028fc:	2459be10 	addiu	t9,v0,-16880
bfc02900:	0320f809 	jalr	t9
bfc02904:	00000000 	nop
D:\loongson\works\ls1d-mylib\lib\test/lcd-test.c:84
bfc02908:	8fc20010 	lw	v0,16(s8)
bfc0290c:	afc20018 	sw	v0,24(s8)
bfc02910:	24020001 	li	v0,1
bfc02914:	8fc30018 	lw	v1,24(s8)
bfc02918:	1062002d 	beq	v1,v0,bfc029d0 <lcd_print+0x118>
bfc0291c:	00000000 	nop
bfc02920:	8fc30018 	lw	v1,24(s8)
bfc02924:	2c620001 	sltiu	v0,v1,1
bfc02928:	1440000b 	bnez	v0,bfc02958 <lcd_print+0xa0>
bfc0292c:	00000000 	nop
bfc02930:	24020002 	li	v0,2
bfc02934:	8fc30018 	lw	v1,24(s8)
bfc02938:	10620037 	beq	v1,v0,bfc02a18 <lcd_print+0x160>
bfc0293c:	00000000 	nop
bfc02940:	24020003 	li	v0,3
bfc02944:	8fc30018 	lw	v1,24(s8)
bfc02948:	10620042 	beq	v1,v0,bfc02a54 <lcd_print+0x19c>
bfc0294c:	00000000 	nop
bfc02950:	0bf00aab 	j	bfc02aac <lcd_print+0x1f4>
bfc02954:	00000000 	nop
D:\loongson\works\ls1d-mylib\lib\test/lcd-test.c:86
bfc02958:	00002021 	move	a0,zero
bfc0295c:	00002821 	move	a1,zero
bfc02960:	3c02bfc0 	lui	v0,0xbfc0
bfc02964:	245934b8 	addiu	t9,v0,13496
bfc02968:	0320f809 	jalr	t9
bfc0296c:	00000000 	nop
D:\loongson\works\ls1d-mylib\lib\test/lcd-test.c:87
bfc02970:	8fc20028 	lw	v0,40(s8)
bfc02974:	8c590020 	lw	t9,32(v0)
bfc02978:	0320f809 	jalr	t9
bfc0297c:	00000000 	nop
D:\loongson\works\ls1d-mylib\lib\test/lcd-test.c:88
bfc02980:	8fc20028 	lw	v0,40(s8)
bfc02984:	8c59002c 	lw	t9,44(v0)
bfc02988:	8fc20028 	lw	v0,40(s8)
bfc0298c:	00402021 	move	a0,v0
bfc02990:	0320f809 	jalr	t9
bfc02994:	00000000 	nop
D:\loongson\works\ls1d-mylib\lib\test/lcd-test.c:89
bfc02998:	8fc20028 	lw	v0,40(s8)
bfc0299c:	8c590030 	lw	t9,48(v0)
bfc029a0:	8fc20028 	lw	v0,40(s8)
bfc029a4:	00402021 	move	a0,v0
bfc029a8:	0320f809 	jalr	t9
bfc029ac:	00000000 	nop
D:\loongson\works\ls1d-mylib\lib\test/lcd-test.c:90
bfc029b0:	3c02a000 	lui	v0,0xa000
bfc029b4:	24441030 	addiu	a0,v0,4144
bfc029b8:	8c830004 	lw	v1,4(a0)
bfc029bc:	2402fffd 	li	v0,-3
bfc029c0:	00621024 	and	v0,v1,v0
bfc029c4:	ac820004 	sw	v0,4(a0)
bfc029c8:	0bf00abf 	j	bfc02afc <lcd_print+0x244>
bfc029cc:	00000000 	nop
D:\loongson\works\ls1d-mylib\lib\test/lcd-test.c:93
bfc029d0:	00002021 	move	a0,zero
bfc029d4:	00002821 	move	a1,zero
bfc029d8:	3c02bfc0 	lui	v0,0xbfc0
bfc029dc:	245934b8 	addiu	t9,v0,13496
bfc029e0:	0320f809 	jalr	t9
bfc029e4:	00000000 	nop
D:\loongson\works\ls1d-mylib\lib\test/lcd-test.c:94
bfc029e8:	8fc20028 	lw	v0,40(s8)
bfc029ec:	8c590024 	lw	t9,36(v0)
bfc029f0:	0320f809 	jalr	t9
bfc029f4:	00000000 	nop
D:\loongson\works\ls1d-mylib\lib\test/lcd-test.c:95
bfc029f8:	3c02a000 	lui	v0,0xa000
bfc029fc:	24441030 	addiu	a0,v0,4144
bfc02a00:	8c830004 	lw	v1,4(a0)
bfc02a04:	2402fffd 	li	v0,-3
bfc02a08:	00621024 	and	v0,v1,v0
bfc02a0c:	ac820004 	sw	v0,4(a0)
bfc02a10:	0bf00abf 	j	bfc02afc <lcd_print+0x244>
bfc02a14:	00000000 	nop
D:\loongson\works\ls1d-mylib\lib\test/lcd-test.c:98
bfc02a18:	3c02a000 	lui	v0,0xa000
bfc02a1c:	8c421258 	lw	v0,4696(v0)
bfc02a20:	2c420003 	sltiu	v0,v0,3
bfc02a24:	14400007 	bnez	v0,bfc02a44 <lcd_print+0x18c>
bfc02a28:	00000000 	nop
bfc02a2c:	3c02bfc1 	lui	v0,0xbfc1
bfc02a30:	2444c62c 	addiu	a0,v0,-14804
bfc02a34:	3c02bfc1 	lui	v0,0xbfc1
bfc02a38:	2459bcb0 	addiu	t9,v0,-17232
bfc02a3c:	0320f809 	jalr	t9
bfc02a40:	00000000 	nop
D:\loongson\works\ls1d-mylib\lib\test/lcd-test.c:99
bfc02a44:	0ff00930 	jal	bfc024c0 <LcdTest1>
bfc02a48:	00000000 	nop
bfc02a4c:	0bf00abf 	j	bfc02afc <lcd_print+0x244>
bfc02a50:	00000000 	nop
D:\loongson\works\ls1d-mylib\lib\test/lcd-test.c:102
bfc02a54:	3c02a000 	lui	v0,0xa000
bfc02a58:	8c421258 	lw	v0,4696(v0)
bfc02a5c:	2c420003 	sltiu	v0,v0,3
bfc02a60:	14400007 	bnez	v0,bfc02a80 <lcd_print+0x1c8>
bfc02a64:	00000000 	nop
bfc02a68:	3c02bfc1 	lui	v0,0xbfc1
bfc02a6c:	2444c638 	addiu	a0,v0,-14792
bfc02a70:	3c02bfc1 	lui	v0,0xbfc1
bfc02a74:	2459bcb0 	addiu	t9,v0,-17232
bfc02a78:	0320f809 	jalr	t9
bfc02a7c:	00000000 	nop
D:\loongson\works\ls1d-mylib\lib\test/lcd-test.c:103
bfc02a80:	8fc20028 	lw	v0,40(s8)
bfc02a84:	8c590028 	lw	t9,40(v0)
bfc02a88:	8fc20028 	lw	v0,40(s8)
bfc02a8c:	00402021 	move	a0,v0
bfc02a90:	0320f809 	jalr	t9
bfc02a94:	00000000 	nop
D:\loongson\works\ls1d-mylib\lib\test/lcd-test.c:104
bfc02a98:	8fc40028 	lw	a0,40(s8)
bfc02a9c:	0ff0098a 	jal	bfc02628 <LcdTest2>
bfc02aa0:	00000000 	nop
bfc02aa4:	0bf00abf 	j	bfc02afc <lcd_print+0x244>
bfc02aa8:	00000000 	nop
D:\loongson\works\ls1d-mylib\lib\test/lcd-test.c:107
bfc02aac:	3c02a000 	lui	v0,0xa000
bfc02ab0:	8c421258 	lw	v0,4696(v0)
bfc02ab4:	2c420003 	sltiu	v0,v0,3
bfc02ab8:	14400007 	bnez	v0,bfc02ad8 <lcd_print+0x220>
bfc02abc:	00000000 	nop
bfc02ac0:	3c02bfc1 	lui	v0,0xbfc1
bfc02ac4:	2444c644 	addiu	a0,v0,-14780
bfc02ac8:	3c02bfc1 	lui	v0,0xbfc1
bfc02acc:	2459bcb0 	addiu	t9,v0,-17232
bfc02ad0:	0320f809 	jalr	t9
bfc02ad4:	00000000 	nop
D:\loongson\works\ls1d-mylib\lib\test/lcd-test.c:108
bfc02ad8:	8fc20028 	lw	v0,40(s8)
bfc02adc:	8c590028 	lw	t9,40(v0)
bfc02ae0:	8fc20028 	lw	v0,40(s8)
bfc02ae4:	00402021 	move	a0,v0
bfc02ae8:	0320f809 	jalr	t9
bfc02aec:	00000000 	nop
D:\loongson\works\ls1d-mylib\lib\test/lcd-test.c:109
bfc02af0:	8fc40028 	lw	a0,40(s8)
bfc02af4:	0ff009dc 	jal	bfc02770 <LcdTest3>
bfc02af8:	00000000 	nop
D:\loongson\works\ls1d-mylib\lib\test/lcd-test.c:113
bfc02afc:	03c0e821 	move	sp,s8
bfc02b00:	8fbf0024 	lw	ra,36(sp)
bfc02b04:	8fbe0020 	lw	s8,32(sp)
bfc02b08:	27bd0028 	addiu	sp,sp,40
bfc02b0c:	03e00008 	jr	ra
bfc02b10:	00000000 	nop
bfc02b14:	00000000 	nop
bfc02b18:	00000000 	nop
bfc02b1c:	00000000 	nop

bfc02b20 <do_d1>:
do_d1():
D:\loongson\works\ls1d-mylib\lib\test/cmd.c:11
bfc02b20:	27bdffd0 	addiu	sp,sp,-48
bfc02b24:	afbf002c 	sw	ra,44(sp)
bfc02b28:	afbe0028 	sw	s8,40(sp)
bfc02b2c:	03a0f021 	move	s8,sp
bfc02b30:	afc40030 	sw	a0,48(s8)
bfc02b34:	afc50034 	sw	a1,52(s8)
D:\loongson\works\ls1d-mylib\lib\test/cmd.c:14
bfc02b38:	8fc20030 	lw	v0,48(s8)
bfc02b3c:	28420002 	slti	v0,v0,2
bfc02b40:	10400010 	beqz	v0,bfc02b84 <do_d1+0x64>
bfc02b44:	00000000 	nop
D:\loongson\works\ls1d-mylib\lib\test/cmd.c:16
bfc02b48:	3c02a000 	lui	v0,0xa000
bfc02b4c:	8c421258 	lw	v0,4696(v0)
bfc02b50:	2c420002 	sltiu	v0,v0,2
bfc02b54:	14400007 	bnez	v0,bfc02b74 <do_d1+0x54>
bfc02b58:	00000000 	nop
bfc02b5c:	3c02bfc1 	lui	v0,0xbfc1
bfc02b60:	2444c650 	addiu	a0,v0,-14768
bfc02b64:	3c02bfc1 	lui	v0,0xbfc1
bfc02b68:	2459be10 	addiu	t9,v0,-16880
bfc02b6c:	0320f809 	jalr	t9
bfc02b70:	00000000 	nop
D:\loongson\works\ls1d-mylib\lib\test/cmd.c:17
bfc02b74:	24020001 	li	v0,1
bfc02b78:	afc20020 	sw	v0,32(s8)
bfc02b7c:	0bf00b2c 	j	bfc02cb0 <do_d1+0x190>
bfc02b80:	00000000 	nop
D:\loongson\works\ls1d-mylib\lib\test/cmd.c:19
bfc02b84:	8fc20034 	lw	v0,52(s8)
bfc02b88:	24420004 	addiu	v0,v0,4
bfc02b8c:	8c420000 	lw	v0,0(v0)
bfc02b90:	00402021 	move	a0,v0
bfc02b94:	3c02bfc1 	lui	v0,0xbfc1
bfc02b98:	2459b178 	addiu	t9,v0,-20104
bfc02b9c:	0320f809 	jalr	t9
bfc02ba0:	00000000 	nop
bfc02ba4:	afc20018 	sw	v0,24(s8)
D:\loongson\works\ls1d-mylib\lib\test/cmd.c:20
bfc02ba8:	8fc30030 	lw	v1,48(s8)
bfc02bac:	24020002 	li	v0,2
bfc02bb0:	14620005 	bne	v1,v0,bfc02bc8 <do_d1+0xa8>
bfc02bb4:	00000000 	nop
bfc02bb8:	24020001 	li	v0,1
bfc02bbc:	afc20010 	sw	v0,16(s8)
bfc02bc0:	0bf00afb 	j	bfc02bec <do_d1+0xcc>
bfc02bc4:	00000000 	nop
D:\loongson\works\ls1d-mylib\lib\test/cmd.c:21
bfc02bc8:	8fc20034 	lw	v0,52(s8)
bfc02bcc:	24420008 	addiu	v0,v0,8
bfc02bd0:	8c420000 	lw	v0,0(v0)
bfc02bd4:	00402021 	move	a0,v0
bfc02bd8:	3c02bfc1 	lui	v0,0xbfc1
bfc02bdc:	2459b178 	addiu	t9,v0,-20104
bfc02be0:	0320f809 	jalr	t9
bfc02be4:	00000000 	nop
bfc02be8:	afc20010 	sw	v0,16(s8)
D:\loongson\works\ls1d-mylib\lib\test/cmd.c:23
bfc02bec:	afc00014 	sw	zero,20(s8)
bfc02bf0:	0bf00b26 	j	bfc02c98 <do_d1+0x178>
bfc02bf4:	00000000 	nop
D:\loongson\works\ls1d-mylib\lib\test/cmd.c:25
bfc02bf8:	8fc20014 	lw	v0,20(s8)
bfc02bfc:	30420007 	andi	v0,v0,0x7
bfc02c00:	14400010 	bnez	v0,bfc02c44 <do_d1+0x124>
bfc02c04:	00000000 	nop
D:\loongson\works\ls1d-mylib\lib\test/cmd.c:26
bfc02c08:	3c02a000 	lui	v0,0xa000
bfc02c0c:	8c421258 	lw	v0,4696(v0)
bfc02c10:	2c420002 	sltiu	v0,v0,2
bfc02c14:	1440000b 	bnez	v0,bfc02c44 <do_d1+0x124>
bfc02c18:	00000000 	nop
bfc02c1c:	8fc30014 	lw	v1,20(s8)
bfc02c20:	8fc20018 	lw	v0,24(s8)
bfc02c24:	00621821 	addu	v1,v1,v0
bfc02c28:	3c02bfc1 	lui	v0,0xbfc1
bfc02c2c:	2444c668 	addiu	a0,v0,-14744
bfc02c30:	00602821 	move	a1,v1
bfc02c34:	3c02bfc1 	lui	v0,0xbfc1
bfc02c38:	2459be10 	addiu	t9,v0,-16880
bfc02c3c:	0320f809 	jalr	t9
bfc02c40:	00000000 	nop
D:\loongson\works\ls1d-mylib\lib\test/cmd.c:27
bfc02c44:	3c02a000 	lui	v0,0xa000
bfc02c48:	8c421258 	lw	v0,4696(v0)
bfc02c4c:	2c420002 	sltiu	v0,v0,2
bfc02c50:	1440000e 	bnez	v0,bfc02c8c <do_d1+0x16c>
bfc02c54:	00000000 	nop
bfc02c58:	8fc30014 	lw	v1,20(s8)
bfc02c5c:	8fc20018 	lw	v0,24(s8)
bfc02c60:	00621021 	addu	v0,v1,v0
bfc02c64:	90420000 	lbu	v0,0(v0)
bfc02c68:	304200ff 	andi	v0,v0,0xff
bfc02c6c:	00401821 	move	v1,v0
bfc02c70:	3c02bfc1 	lui	v0,0xbfc1
bfc02c74:	2444c674 	addiu	a0,v0,-14732
bfc02c78:	00602821 	move	a1,v1
bfc02c7c:	3c02bfc1 	lui	v0,0xbfc1
bfc02c80:	2459be10 	addiu	t9,v0,-16880
bfc02c84:	0320f809 	jalr	t9
bfc02c88:	00000000 	nop
D:\loongson\works\ls1d-mylib\lib\test/cmd.c:23
bfc02c8c:	8fc20014 	lw	v0,20(s8)
bfc02c90:	24420001 	addiu	v0,v0,1
bfc02c94:	afc20014 	sw	v0,20(s8)
bfc02c98:	8fc20014 	lw	v0,20(s8)
bfc02c9c:	8fc30010 	lw	v1,16(s8)
bfc02ca0:	0043102a 	slt	v0,v0,v1
bfc02ca4:	1440ffd4 	bnez	v0,bfc02bf8 <do_d1+0xd8>
bfc02ca8:	00000000 	nop
D:\loongson\works\ls1d-mylib\lib\test/cmd.c:30
bfc02cac:	afc00020 	sw	zero,32(s8)
bfc02cb0:	8fc20020 	lw	v0,32(s8)
D:\loongson\works\ls1d-mylib\lib\test/cmd.c:31
bfc02cb4:	03c0e821 	move	sp,s8
bfc02cb8:	8fbf002c 	lw	ra,44(sp)
bfc02cbc:	8fbe0028 	lw	s8,40(sp)
bfc02cc0:	27bd0030 	addiu	sp,sp,48
bfc02cc4:	03e00008 	jr	ra
bfc02cc8:	00000000 	nop

bfc02ccc <do_d4>:
do_d4():
D:\loongson\works\ls1d-mylib\lib\test/cmd.c:34
bfc02ccc:	27bdffd0 	addiu	sp,sp,-48
bfc02cd0:	afbf002c 	sw	ra,44(sp)
bfc02cd4:	afbe0028 	sw	s8,40(sp)
bfc02cd8:	03a0f021 	move	s8,sp
bfc02cdc:	afc40030 	sw	a0,48(s8)
bfc02ce0:	afc50034 	sw	a1,52(s8)
D:\loongson\works\ls1d-mylib\lib\test/cmd.c:37
bfc02ce4:	8fc20030 	lw	v0,48(s8)
bfc02ce8:	28420002 	slti	v0,v0,2
bfc02cec:	10400010 	beqz	v0,bfc02d30 <do_d4+0x64>
bfc02cf0:	00000000 	nop
D:\loongson\works\ls1d-mylib\lib\test/cmd.c:39
bfc02cf4:	3c02a000 	lui	v0,0xa000
bfc02cf8:	8c421258 	lw	v0,4696(v0)
bfc02cfc:	2c420002 	sltiu	v0,v0,2
bfc02d00:	14400007 	bnez	v0,bfc02d20 <do_d4+0x54>
bfc02d04:	00000000 	nop
bfc02d08:	3c02bfc1 	lui	v0,0xbfc1
bfc02d0c:	2444c67c 	addiu	a0,v0,-14724
bfc02d10:	3c02bfc1 	lui	v0,0xbfc1
bfc02d14:	2459be10 	addiu	t9,v0,-16880
bfc02d18:	0320f809 	jalr	t9
bfc02d1c:	00000000 	nop
D:\loongson\works\ls1d-mylib\lib\test/cmd.c:40
bfc02d20:	24020001 	li	v0,1
bfc02d24:	afc20020 	sw	v0,32(s8)
bfc02d28:	0bf00b99 	j	bfc02e64 <do_d4+0x198>
bfc02d2c:	00000000 	nop
D:\loongson\works\ls1d-mylib\lib\test/cmd.c:42
bfc02d30:	8fc20034 	lw	v0,52(s8)
bfc02d34:	24420004 	addiu	v0,v0,4
bfc02d38:	8c420000 	lw	v0,0(v0)
bfc02d3c:	00402021 	move	a0,v0
bfc02d40:	3c02bfc1 	lui	v0,0xbfc1
bfc02d44:	2459b178 	addiu	t9,v0,-20104
bfc02d48:	0320f809 	jalr	t9
bfc02d4c:	00000000 	nop
bfc02d50:	afc20018 	sw	v0,24(s8)
D:\loongson\works\ls1d-mylib\lib\test/cmd.c:43
bfc02d54:	8fc30030 	lw	v1,48(s8)
bfc02d58:	24020002 	li	v0,2
bfc02d5c:	14620005 	bne	v1,v0,bfc02d74 <do_d4+0xa8>
bfc02d60:	00000000 	nop
bfc02d64:	24020001 	li	v0,1
bfc02d68:	afc20010 	sw	v0,16(s8)
bfc02d6c:	0bf00b66 	j	bfc02d98 <do_d4+0xcc>
bfc02d70:	00000000 	nop
D:\loongson\works\ls1d-mylib\lib\test/cmd.c:44
bfc02d74:	8fc20034 	lw	v0,52(s8)
bfc02d78:	24420008 	addiu	v0,v0,8
bfc02d7c:	8c420000 	lw	v0,0(v0)
bfc02d80:	00402021 	move	a0,v0
bfc02d84:	3c02bfc1 	lui	v0,0xbfc1
bfc02d88:	2459b178 	addiu	t9,v0,-20104
bfc02d8c:	0320f809 	jalr	t9
bfc02d90:	00000000 	nop
bfc02d94:	afc20010 	sw	v0,16(s8)
D:\loongson\works\ls1d-mylib\lib\test/cmd.c:46
bfc02d98:	afc00014 	sw	zero,20(s8)
bfc02d9c:	0bf00b93 	j	bfc02e4c <do_d4+0x180>
bfc02da0:	00000000 	nop
D:\loongson\works\ls1d-mylib\lib\test/cmd.c:48
bfc02da4:	8fc20014 	lw	v0,20(s8)
bfc02da8:	30420003 	andi	v0,v0,0x3
bfc02dac:	14400012 	bnez	v0,bfc02df8 <do_d4+0x12c>
bfc02db0:	00000000 	nop
D:\loongson\works\ls1d-mylib\lib\test/cmd.c:49
bfc02db4:	3c02a000 	lui	v0,0xa000
bfc02db8:	8c421258 	lw	v0,4696(v0)
bfc02dbc:	2c420002 	sltiu	v0,v0,2
bfc02dc0:	1440000d 	bnez	v0,bfc02df8 <do_d4+0x12c>
bfc02dc4:	00000000 	nop
bfc02dc8:	8fc20014 	lw	v0,20(s8)
bfc02dcc:	00021080 	sll	v0,v0,0x2
bfc02dd0:	00401821 	move	v1,v0
bfc02dd4:	8fc20018 	lw	v0,24(s8)
bfc02dd8:	00621821 	addu	v1,v1,v0
bfc02ddc:	3c02bfc1 	lui	v0,0xbfc1
bfc02de0:	2444c668 	addiu	a0,v0,-14744
bfc02de4:	00602821 	move	a1,v1
bfc02de8:	3c02bfc1 	lui	v0,0xbfc1
bfc02dec:	2459be10 	addiu	t9,v0,-16880
bfc02df0:	0320f809 	jalr	t9
bfc02df4:	00000000 	nop
D:\loongson\works\ls1d-mylib\lib\test/cmd.c:50
bfc02df8:	3c02a000 	lui	v0,0xa000
bfc02dfc:	8c421258 	lw	v0,4696(v0)
bfc02e00:	2c420002 	sltiu	v0,v0,2
bfc02e04:	1440000e 	bnez	v0,bfc02e40 <do_d4+0x174>
bfc02e08:	00000000 	nop
bfc02e0c:	8fc20014 	lw	v0,20(s8)
bfc02e10:	00021080 	sll	v0,v0,0x2
bfc02e14:	00401821 	move	v1,v0
bfc02e18:	8fc20018 	lw	v0,24(s8)
bfc02e1c:	00621021 	addu	v0,v1,v0
bfc02e20:	8c430000 	lw	v1,0(v0)
bfc02e24:	3c02bfc1 	lui	v0,0xbfc1
bfc02e28:	2444c694 	addiu	a0,v0,-14700
bfc02e2c:	00602821 	move	a1,v1
bfc02e30:	3c02bfc1 	lui	v0,0xbfc1
bfc02e34:	2459be10 	addiu	t9,v0,-16880
bfc02e38:	0320f809 	jalr	t9
bfc02e3c:	00000000 	nop
D:\loongson\works\ls1d-mylib\lib\test/cmd.c:46
bfc02e40:	8fc20014 	lw	v0,20(s8)
bfc02e44:	24420001 	addiu	v0,v0,1
bfc02e48:	afc20014 	sw	v0,20(s8)
bfc02e4c:	8fc20014 	lw	v0,20(s8)
bfc02e50:	8fc30010 	lw	v1,16(s8)
bfc02e54:	0043102a 	slt	v0,v0,v1
bfc02e58:	1440ffd2 	bnez	v0,bfc02da4 <do_d4+0xd8>
bfc02e5c:	00000000 	nop
D:\loongson\works\ls1d-mylib\lib\test/cmd.c:53
bfc02e60:	afc00020 	sw	zero,32(s8)
bfc02e64:	8fc20020 	lw	v0,32(s8)
D:\loongson\works\ls1d-mylib\lib\test/cmd.c:54
bfc02e68:	03c0e821 	move	sp,s8
bfc02e6c:	8fbf002c 	lw	ra,44(sp)
bfc02e70:	8fbe0028 	lw	s8,40(sp)
bfc02e74:	27bd0030 	addiu	sp,sp,48
bfc02e78:	03e00008 	jr	ra
bfc02e7c:	00000000 	nop

bfc02e80 <do_m1>:
do_m1():
D:\loongson\works\ls1d-mylib\lib\test/cmd.c:57
bfc02e80:	27bdffd8 	addiu	sp,sp,-40
bfc02e84:	afbf0024 	sw	ra,36(sp)
bfc02e88:	afbe0020 	sw	s8,32(sp)
bfc02e8c:	03a0f021 	move	s8,sp
bfc02e90:	afc40028 	sw	a0,40(s8)
bfc02e94:	afc5002c 	sw	a1,44(s8)
D:\loongson\works\ls1d-mylib\lib\test/cmd.c:60
bfc02e98:	8fc20028 	lw	v0,40(s8)
bfc02e9c:	28420002 	slti	v0,v0,2
bfc02ea0:	10400010 	beqz	v0,bfc02ee4 <do_m1+0x64>
bfc02ea4:	00000000 	nop
D:\loongson\works\ls1d-mylib\lib\test/cmd.c:62
bfc02ea8:	3c02a000 	lui	v0,0xa000
bfc02eac:	8c421258 	lw	v0,4696(v0)
bfc02eb0:	2c420002 	sltiu	v0,v0,2
bfc02eb4:	14400007 	bnez	v0,bfc02ed4 <do_m1+0x54>
bfc02eb8:	00000000 	nop
bfc02ebc:	3c02bfc1 	lui	v0,0xbfc1
bfc02ec0:	2444c69c 	addiu	a0,v0,-14692
bfc02ec4:	3c02bfc1 	lui	v0,0xbfc1
bfc02ec8:	2459be10 	addiu	t9,v0,-16880
bfc02ecc:	0320f809 	jalr	t9
bfc02ed0:	00000000 	nop
D:\loongson\works\ls1d-mylib\lib\test/cmd.c:63
bfc02ed4:	24020001 	li	v0,1
bfc02ed8:	afc20018 	sw	v0,24(s8)
bfc02edc:	0bf00bcf 	j	bfc02f3c <do_m1+0xbc>
bfc02ee0:	00000000 	nop
D:\loongson\works\ls1d-mylib\lib\test/cmd.c:65
bfc02ee4:	8fc2002c 	lw	v0,44(s8)
bfc02ee8:	24420004 	addiu	v0,v0,4
bfc02eec:	8c420000 	lw	v0,0(v0)
bfc02ef0:	00402021 	move	a0,v0
bfc02ef4:	3c02bfc1 	lui	v0,0xbfc1
bfc02ef8:	2459b178 	addiu	t9,v0,-20104
bfc02efc:	0320f809 	jalr	t9
bfc02f00:	00000000 	nop
bfc02f04:	afc20014 	sw	v0,20(s8)
D:\loongson\works\ls1d-mylib\lib\test/cmd.c:66
bfc02f08:	8fc2002c 	lw	v0,44(s8)
bfc02f0c:	24420008 	addiu	v0,v0,8
bfc02f10:	8c420000 	lw	v0,0(v0)
bfc02f14:	00402021 	move	a0,v0
bfc02f18:	3c02bfc1 	lui	v0,0xbfc1
bfc02f1c:	2459b178 	addiu	t9,v0,-20104
bfc02f20:	0320f809 	jalr	t9
bfc02f24:	00000000 	nop
bfc02f28:	a3c20010 	sb	v0,16(s8)
D:\loongson\works\ls1d-mylib\lib\test/cmd.c:67
bfc02f2c:	8fc30014 	lw	v1,20(s8)
bfc02f30:	93c20010 	lbu	v0,16(s8)
bfc02f34:	a0620000 	sb	v0,0(v1)
D:\loongson\works\ls1d-mylib\lib\test/cmd.c:69
bfc02f38:	afc00018 	sw	zero,24(s8)
bfc02f3c:	8fc20018 	lw	v0,24(s8)
D:\loongson\works\ls1d-mylib\lib\test/cmd.c:70
bfc02f40:	03c0e821 	move	sp,s8
bfc02f44:	8fbf0024 	lw	ra,36(sp)
bfc02f48:	8fbe0020 	lw	s8,32(sp)
bfc02f4c:	27bd0028 	addiu	sp,sp,40
bfc02f50:	03e00008 	jr	ra
bfc02f54:	00000000 	nop

bfc02f58 <do_m4>:
do_m4():
D:\loongson\works\ls1d-mylib\lib\test/cmd.c:73
bfc02f58:	27bdffd8 	addiu	sp,sp,-40
bfc02f5c:	afbf0024 	sw	ra,36(sp)
bfc02f60:	afbe0020 	sw	s8,32(sp)
bfc02f64:	03a0f021 	move	s8,sp
bfc02f68:	afc40028 	sw	a0,40(s8)
bfc02f6c:	afc5002c 	sw	a1,44(s8)
D:\loongson\works\ls1d-mylib\lib\test/cmd.c:76
bfc02f70:	8fc20028 	lw	v0,40(s8)
bfc02f74:	28420002 	slti	v0,v0,2
bfc02f78:	10400010 	beqz	v0,bfc02fbc <do_m4+0x64>
bfc02f7c:	00000000 	nop
D:\loongson\works\ls1d-mylib\lib\test/cmd.c:78
bfc02f80:	3c02a000 	lui	v0,0xa000
bfc02f84:	8c421258 	lw	v0,4696(v0)
bfc02f88:	2c420002 	sltiu	v0,v0,2
bfc02f8c:	14400007 	bnez	v0,bfc02fac <do_m4+0x54>
bfc02f90:	00000000 	nop
bfc02f94:	3c02bfc1 	lui	v0,0xbfc1
bfc02f98:	2444c6b8 	addiu	a0,v0,-14664
bfc02f9c:	3c02bfc1 	lui	v0,0xbfc1
bfc02fa0:	2459be10 	addiu	t9,v0,-16880
bfc02fa4:	0320f809 	jalr	t9
bfc02fa8:	00000000 	nop
D:\loongson\works\ls1d-mylib\lib\test/cmd.c:79
bfc02fac:	24020001 	li	v0,1
bfc02fb0:	afc20018 	sw	v0,24(s8)
bfc02fb4:	0bf00c05 	j	bfc03014 <do_m4+0xbc>
bfc02fb8:	00000000 	nop
D:\loongson\works\ls1d-mylib\lib\test/cmd.c:81
bfc02fbc:	8fc2002c 	lw	v0,44(s8)
bfc02fc0:	24420004 	addiu	v0,v0,4
bfc02fc4:	8c420000 	lw	v0,0(v0)
bfc02fc8:	00402021 	move	a0,v0
bfc02fcc:	3c02bfc1 	lui	v0,0xbfc1
bfc02fd0:	2459b178 	addiu	t9,v0,-20104
bfc02fd4:	0320f809 	jalr	t9
bfc02fd8:	00000000 	nop
bfc02fdc:	afc20014 	sw	v0,20(s8)
D:\loongson\works\ls1d-mylib\lib\test/cmd.c:82
bfc02fe0:	8fc2002c 	lw	v0,44(s8)
bfc02fe4:	24420008 	addiu	v0,v0,8
bfc02fe8:	8c420000 	lw	v0,0(v0)
bfc02fec:	00402021 	move	a0,v0
bfc02ff0:	3c02bfc1 	lui	v0,0xbfc1
bfc02ff4:	2459b178 	addiu	t9,v0,-20104
bfc02ff8:	0320f809 	jalr	t9
bfc02ffc:	00000000 	nop
bfc03000:	afc20010 	sw	v0,16(s8)
D:\loongson\works\ls1d-mylib\lib\test/cmd.c:83
bfc03004:	8fc30014 	lw	v1,20(s8)
bfc03008:	8fc20010 	lw	v0,16(s8)
bfc0300c:	ac620000 	sw	v0,0(v1)
D:\loongson\works\ls1d-mylib\lib\test/cmd.c:85
bfc03010:	afc00018 	sw	zero,24(s8)
bfc03014:	8fc20018 	lw	v0,24(s8)
D:\loongson\works\ls1d-mylib\lib\test/cmd.c:86
bfc03018:	03c0e821 	move	sp,s8
bfc0301c:	8fbf0024 	lw	ra,36(sp)
bfc03020:	8fbe0020 	lw	s8,32(sp)
bfc03024:	27bd0028 	addiu	sp,sp,40
bfc03028:	03e00008 	jr	ra
bfc0302c:	00000000 	nop

bfc03030 <debug_level>:
debug_level():
D:\loongson\works\ls1d-mylib\lib\test/cmd.c:89
bfc03030:	27bdffd8 	addiu	sp,sp,-40
bfc03034:	afbf0024 	sw	ra,36(sp)
bfc03038:	afbe0020 	sw	s8,32(sp)
bfc0303c:	03a0f021 	move	s8,sp
bfc03040:	afc40028 	sw	a0,40(s8)
bfc03044:	afc5002c 	sw	a1,44(s8)
D:\loongson\works\ls1d-mylib\lib\test/cmd.c:91
bfc03048:	8fc20028 	lw	v0,40(s8)
bfc0304c:	28420002 	slti	v0,v0,2
bfc03050:	10400011 	beqz	v0,bfc03098 <debug_level+0x68>
bfc03054:	00000000 	nop
D:\loongson\works\ls1d-mylib\lib\test/cmd.c:93
bfc03058:	3c02a000 	lui	v0,0xa000
bfc0305c:	8c421258 	lw	v0,4696(v0)
bfc03060:	1040000a 	beqz	v0,bfc0308c <debug_level+0x5c>
bfc03064:	00000000 	nop
bfc03068:	3c02a000 	lui	v0,0xa000
bfc0306c:	8c431258 	lw	v1,4696(v0)
bfc03070:	3c02bfc1 	lui	v0,0xbfc1
bfc03074:	2444c6d4 	addiu	a0,v0,-14636
bfc03078:	00602821 	move	a1,v1
bfc0307c:	3c02bfc1 	lui	v0,0xbfc1
bfc03080:	2459be10 	addiu	t9,v0,-16880
bfc03084:	0320f809 	jalr	t9
bfc03088:	00000000 	nop
D:\loongson\works\ls1d-mylib\lib\test/cmd.c:94
bfc0308c:	afc00018 	sw	zero,24(s8)
bfc03090:	0bf00c33 	j	bfc030cc <debug_level+0x9c>
bfc03094:	00000000 	nop
D:\loongson\works\ls1d-mylib\lib\test/cmd.c:96
bfc03098:	8fc2002c 	lw	v0,44(s8)
bfc0309c:	24420004 	addiu	v0,v0,4
bfc030a0:	8c420000 	lw	v0,0(v0)
bfc030a4:	00402021 	move	a0,v0
bfc030a8:	3c02bfc1 	lui	v0,0xbfc1
bfc030ac:	2459b178 	addiu	t9,v0,-20104
bfc030b0:	0320f809 	jalr	t9
bfc030b4:	00000000 	nop
bfc030b8:	afc20010 	sw	v0,16(s8)
D:\loongson\works\ls1d-mylib\lib\test/cmd.c:97
bfc030bc:	3c03a000 	lui	v1,0xa000
bfc030c0:	8fc20010 	lw	v0,16(s8)
bfc030c4:	ac621258 	sw	v0,4696(v1)
D:\loongson\works\ls1d-mylib\lib\test/cmd.c:99
bfc030c8:	afc00018 	sw	zero,24(s8)
bfc030cc:	8fc20018 	lw	v0,24(s8)
D:\loongson\works\ls1d-mylib\lib\test/cmd.c:100
bfc030d0:	03c0e821 	move	sp,s8
bfc030d4:	8fbf0024 	lw	ra,36(sp)
bfc030d8:	8fbe0020 	lw	s8,32(sp)
bfc030dc:	27bd0028 	addiu	sp,sp,40
bfc030e0:	03e00008 	jr	ra
bfc030e4:	00000000 	nop

bfc030e8 <timer_test>:
timer_test():
D:\loongson\works\ls1d-mylib\lib\test/cmd.c:103
bfc030e8:	27bdffd8 	addiu	sp,sp,-40
bfc030ec:	afbf0024 	sw	ra,36(sp)
bfc030f0:	afbe0020 	sw	s8,32(sp)
bfc030f4:	afb0001c 	sw	s0,28(sp)
bfc030f8:	03a0f021 	move	s8,sp
bfc030fc:	afc40028 	sw	a0,40(s8)
bfc03100:	afc5002c 	sw	a1,44(s8)
D:\loongson\works\ls1d-mylib\lib\test/cmd.c:104
bfc03104:	3c02a000 	lui	v0,0xa000
bfc03108:	8c421258 	lw	v0,4696(v0)
bfc0310c:	2c420002 	sltiu	v0,v0,2
bfc03110:	14400007 	bnez	v0,bfc03130 <timer_test+0x48>
bfc03114:	00000000 	nop
bfc03118:	3c02bfc1 	lui	v0,0xbfc1
bfc0311c:	2444c6f0 	addiu	a0,v0,-14608
bfc03120:	3c02bfc1 	lui	v0,0xbfc1
bfc03124:	2459bcb0 	addiu	t9,v0,-17232
bfc03128:	0320f809 	jalr	t9
bfc0312c:	00000000 	nop
D:\loongson\works\ls1d-mylib\lib\test/cmd.c:106
bfc03130:	8fc20028 	lw	v0,40(s8)
bfc03134:	28420002 	slti	v0,v0,2
bfc03138:	10400010 	beqz	v0,bfc0317c <timer_test+0x94>
bfc0313c:	00000000 	nop
D:\loongson\works\ls1d-mylib\lib\test/cmd.c:108
bfc03140:	3c02a000 	lui	v0,0xa000
bfc03144:	8c421258 	lw	v0,4696(v0)
bfc03148:	2c420002 	sltiu	v0,v0,2
bfc0314c:	14400007 	bnez	v0,bfc0316c <timer_test+0x84>
bfc03150:	00000000 	nop
bfc03154:	3c02bfc1 	lui	v0,0xbfc1
bfc03158:	2444c704 	addiu	a0,v0,-14588
bfc0315c:	3c02bfc1 	lui	v0,0xbfc1
bfc03160:	2459be10 	addiu	t9,v0,-16880
bfc03164:	0320f809 	jalr	t9
bfc03168:	00000000 	nop
D:\loongson\works\ls1d-mylib\lib\test/cmd.c:109
bfc0316c:	24020001 	li	v0,1
bfc03170:	afc20010 	sw	v0,16(s8)
bfc03174:	0bf00c6f 	j	bfc031bc <timer_test+0xd4>
bfc03178:	00000000 	nop
D:\loongson\works\ls1d-mylib\lib\test/cmd.c:111
bfc0317c:	3c02a000 	lui	v0,0xa000
bfc03180:	24421030 	addiu	v0,v0,4144
bfc03184:	8c500008 	lw	s0,8(v0)
bfc03188:	8fc2002c 	lw	v0,44(s8)
bfc0318c:	24420004 	addiu	v0,v0,4
bfc03190:	8c420000 	lw	v0,0(v0)
bfc03194:	00402021 	move	a0,v0
bfc03198:	3c02bfc1 	lui	v0,0xbfc1
bfc0319c:	2459b178 	addiu	t9,v0,-20104
bfc031a0:	0320f809 	jalr	t9
bfc031a4:	00000000 	nop
bfc031a8:	00402021 	move	a0,v0
bfc031ac:	0200c821 	move	t9,s0
bfc031b0:	0320f809 	jalr	t9
bfc031b4:	00000000 	nop
D:\loongson\works\ls1d-mylib\lib\test/cmd.c:113
bfc031b8:	afc00010 	sw	zero,16(s8)
bfc031bc:	8fc20010 	lw	v0,16(s8)
D:\loongson\works\ls1d-mylib\lib\test/cmd.c:114
bfc031c0:	03c0e821 	move	sp,s8
bfc031c4:	8fbf0024 	lw	ra,36(sp)
bfc031c8:	8fbe0020 	lw	s8,32(sp)
bfc031cc:	8fb0001c 	lw	s0,28(sp)
bfc031d0:	27bd0028 	addiu	sp,sp,40
bfc031d4:	03e00008 	jr	ra
bfc031d8:	00000000 	nop

bfc031dc <do_sleep>:
do_sleep():
D:\loongson\works\ls1d-mylib\lib\test/cmd.c:118
bfc031dc:	27bdffd0 	addiu	sp,sp,-48
bfc031e0:	afbf002c 	sw	ra,44(sp)
bfc031e4:	afbe0028 	sw	s8,40(sp)
bfc031e8:	03a0f021 	move	s8,sp
bfc031ec:	afc40030 	sw	a0,48(s8)
bfc031f0:	afc50034 	sw	a1,52(s8)
D:\loongson\works\ls1d-mylib\lib\test/cmd.c:120
bfc031f4:	8fc20030 	lw	v0,48(s8)
bfc031f8:	28420003 	slti	v0,v0,3
bfc031fc:	10400010 	beqz	v0,bfc03240 <do_sleep+0x64>
bfc03200:	00000000 	nop
D:\loongson\works\ls1d-mylib\lib\test/cmd.c:122
bfc03204:	3c02a000 	lui	v0,0xa000
bfc03208:	8c421258 	lw	v0,4696(v0)
bfc0320c:	2c420002 	sltiu	v0,v0,2
bfc03210:	14400007 	bnez	v0,bfc03230 <do_sleep+0x54>
bfc03214:	00000000 	nop
bfc03218:	3c02bfc1 	lui	v0,0xbfc1
bfc0321c:	2444c720 	addiu	a0,v0,-14560
bfc03220:	3c02bfc1 	lui	v0,0xbfc1
bfc03224:	2459be10 	addiu	t9,v0,-16880
bfc03228:	0320f809 	jalr	t9
bfc0322c:	00000000 	nop
D:\loongson\works\ls1d-mylib\lib\test/cmd.c:123
bfc03230:	24020001 	li	v0,1
bfc03234:	afc20020 	sw	v0,32(s8)
bfc03238:	0bf00cb4 	j	bfc032d0 <do_sleep+0xf4>
bfc0323c:	00000000 	nop
D:\loongson\works\ls1d-mylib\lib\test/cmd.c:125
bfc03240:	8fc20034 	lw	v0,52(s8)
bfc03244:	24420004 	addiu	v0,v0,4
bfc03248:	8c420000 	lw	v0,0(v0)
bfc0324c:	00402021 	move	a0,v0
bfc03250:	3c02bfc1 	lui	v0,0xbfc1
bfc03254:	2459b178 	addiu	t9,v0,-20104
bfc03258:	0320f809 	jalr	t9
bfc0325c:	00000000 	nop
bfc03260:	afc20018 	sw	v0,24(s8)
D:\loongson\works\ls1d-mylib\lib\test/cmd.c:126
bfc03264:	8fc20034 	lw	v0,52(s8)
bfc03268:	24420008 	addiu	v0,v0,8
bfc0326c:	8c420000 	lw	v0,0(v0)
bfc03270:	00402021 	move	a0,v0
bfc03274:	3c02bfc1 	lui	v0,0xbfc1
bfc03278:	2459b178 	addiu	t9,v0,-20104
bfc0327c:	0320f809 	jalr	t9
bfc03280:	00000000 	nop
bfc03284:	afc20014 	sw	v0,20(s8)
D:\loongson\works\ls1d-mylib\lib\test/cmd.c:127
bfc03288:	8fc20034 	lw	v0,52(s8)
bfc0328c:	2442000c 	addiu	v0,v0,12
bfc03290:	8c420000 	lw	v0,0(v0)
bfc03294:	00402021 	move	a0,v0
bfc03298:	3c02bfc1 	lui	v0,0xbfc1
bfc0329c:	2459b178 	addiu	t9,v0,-20104
bfc032a0:	0320f809 	jalr	t9
bfc032a4:	00000000 	nop
bfc032a8:	afc20010 	sw	v0,16(s8)
D:\loongson\works\ls1d-mylib\lib\test/cmd.c:128
bfc032ac:	3c02a000 	lui	v0,0xa000
bfc032b0:	24421030 	addiu	v0,v0,4144
bfc032b4:	8c590118 	lw	t9,280(v0)
bfc032b8:	8fc40018 	lw	a0,24(s8)
bfc032bc:	8fc50014 	lw	a1,20(s8)
bfc032c0:	8fc60010 	lw	a2,16(s8)
bfc032c4:	0320f809 	jalr	t9
bfc032c8:	00000000 	nop
D:\loongson\works\ls1d-mylib\lib\test/cmd.c:130
bfc032cc:	afc00020 	sw	zero,32(s8)
bfc032d0:	8fc20020 	lw	v0,32(s8)
D:\loongson\works\ls1d-mylib\lib\test/cmd.c:131
bfc032d4:	03c0e821 	move	sp,s8
bfc032d8:	8fbf002c 	lw	ra,44(sp)
bfc032dc:	8fbe0028 	lw	s8,40(sp)
bfc032e0:	27bd0030 	addiu	sp,sp,48
bfc032e4:	03e00008 	jr	ra
bfc032e8:	00000000 	nop

bfc032ec <clock_test>:
clock_test():
D:\loongson\works\ls1d-mylib\lib\test/cmd.c:135
bfc032ec:	27bdffd0 	addiu	sp,sp,-48
bfc032f0:	afbf002c 	sw	ra,44(sp)
bfc032f4:	afbe0028 	sw	s8,40(sp)
bfc032f8:	03a0f021 	move	s8,sp
bfc032fc:	afc40030 	sw	a0,48(s8)
bfc03300:	afc50034 	sw	a1,52(s8)
D:\loongson\works\ls1d-mylib\lib\test/cmd.c:136
bfc03304:	3c02a000 	lui	v0,0xa000
bfc03308:	24421030 	addiu	v0,v0,4144
bfc0330c:	8c590044 	lw	t9,68(v0)
bfc03310:	3c02a000 	lui	v0,0xa000
bfc03314:	24441044 	addiu	a0,v0,4164
bfc03318:	0320f809 	jalr	t9
bfc0331c:	00000000 	nop
D:\loongson\works\ls1d-mylib\lib\test/cmd.c:138
bfc03320:	8fc20030 	lw	v0,48(s8)
bfc03324:	28420002 	slti	v0,v0,2
bfc03328:	1040000e 	beqz	v0,bfc03364 <clock_test+0x78>
bfc0332c:	00000000 	nop
D:\loongson\works\ls1d-mylib\lib\test/cmd.c:140
bfc03330:	3c02a000 	lui	v0,0xa000
bfc03334:	8c421258 	lw	v0,4696(v0)
bfc03338:	2c420002 	sltiu	v0,v0,2
bfc0333c:	14400048 	bnez	v0,bfc03460 <clock_test+0x174>
bfc03340:	00000000 	nop
bfc03344:	3c02bfc1 	lui	v0,0xbfc1
bfc03348:	2444c74c 	addiu	a0,v0,-14516
bfc0334c:	3c02bfc1 	lui	v0,0xbfc1
bfc03350:	2459bcb0 	addiu	t9,v0,-17232
bfc03354:	0320f809 	jalr	t9
bfc03358:	00000000 	nop
bfc0335c:	0bf00d18 	j	bfc03460 <clock_test+0x174>
bfc03360:	00000000 	nop
D:\loongson\works\ls1d-mylib\lib\test/cmd.c:145
bfc03364:	8fc20034 	lw	v0,52(s8)
bfc03368:	24420004 	addiu	v0,v0,4
bfc0336c:	8c420000 	lw	v0,0(v0)
bfc03370:	00402021 	move	a0,v0
bfc03374:	3c02bfc1 	lui	v0,0xbfc1
bfc03378:	2459b178 	addiu	t9,v0,-20104
bfc0337c:	0320f809 	jalr	t9
bfc03380:	00000000 	nop
bfc03384:	afc20010 	sw	v0,16(s8)
D:\loongson\works\ls1d-mylib\lib\test/cmd.c:146
bfc03388:	8fc20034 	lw	v0,52(s8)
bfc0338c:	24420008 	addiu	v0,v0,8
bfc03390:	8c420000 	lw	v0,0(v0)
bfc03394:	00402021 	move	a0,v0
bfc03398:	3c02bfc1 	lui	v0,0xbfc1
bfc0339c:	2459b178 	addiu	t9,v0,-20104
bfc033a0:	0320f809 	jalr	t9
bfc033a4:	00000000 	nop
bfc033a8:	afc20014 	sw	v0,20(s8)
D:\loongson\works\ls1d-mylib\lib\test/cmd.c:147
bfc033ac:	8fc20034 	lw	v0,52(s8)
bfc033b0:	2442000c 	addiu	v0,v0,12
bfc033b4:	8c420000 	lw	v0,0(v0)
bfc033b8:	00402021 	move	a0,v0
bfc033bc:	3c02bfc1 	lui	v0,0xbfc1
bfc033c0:	2459b178 	addiu	t9,v0,-20104
bfc033c4:	0320f809 	jalr	t9
bfc033c8:	00000000 	nop
bfc033cc:	afc20018 	sw	v0,24(s8)
D:\loongson\works\ls1d-mylib\lib\test/cmd.c:148
bfc033d0:	8fc20034 	lw	v0,52(s8)
bfc033d4:	24420010 	addiu	v0,v0,16
bfc033d8:	8c420000 	lw	v0,0(v0)
bfc033dc:	00402021 	move	a0,v0
bfc033e0:	3c02bfc1 	lui	v0,0xbfc1
bfc033e4:	2459b178 	addiu	t9,v0,-20104
bfc033e8:	0320f809 	jalr	t9
bfc033ec:	00000000 	nop
bfc033f0:	afc2001c 	sw	v0,28(s8)
D:\loongson\works\ls1d-mylib\lib\test/cmd.c:149
bfc033f4:	8fc20034 	lw	v0,52(s8)
bfc033f8:	24420014 	addiu	v0,v0,20
bfc033fc:	8c420000 	lw	v0,0(v0)
bfc03400:	00402021 	move	a0,v0
bfc03404:	3c02bfc1 	lui	v0,0xbfc1
bfc03408:	2459b178 	addiu	t9,v0,-20104
bfc0340c:	0320f809 	jalr	t9
bfc03410:	00000000 	nop
bfc03414:	afc20020 	sw	v0,32(s8)
D:\loongson\works\ls1d-mylib\lib\test/cmd.c:150
bfc03418:	8fc20034 	lw	v0,52(s8)
bfc0341c:	24420018 	addiu	v0,v0,24
bfc03420:	8c420000 	lw	v0,0(v0)
bfc03424:	00402021 	move	a0,v0
bfc03428:	3c02bfc1 	lui	v0,0xbfc1
bfc0342c:	2459b178 	addiu	t9,v0,-20104
bfc03430:	0320f809 	jalr	t9
bfc03434:	00000000 	nop
bfc03438:	afc20024 	sw	v0,36(s8)
D:\loongson\works\ls1d-mylib\lib\test/cmd.c:151
bfc0343c:	3c02a000 	lui	v0,0xa000
bfc03440:	24421030 	addiu	v0,v0,4144
bfc03444:	8c590038 	lw	t9,56(v0)
bfc03448:	3c02a000 	lui	v0,0xa000
bfc0344c:	24441044 	addiu	a0,v0,4164
bfc03450:	27c20010 	addiu	v0,s8,16
bfc03454:	00402821 	move	a1,v0
bfc03458:	0320f809 	jalr	t9
bfc0345c:	00000000 	nop
D:\loongson\works\ls1d-mylib\lib\test/cmd.c:154
bfc03460:	3c02a000 	lui	v0,0xa000
bfc03464:	24421030 	addiu	v0,v0,4144
bfc03468:	8c59003c 	lw	t9,60(v0)
bfc0346c:	24040010 	li	a0,16
bfc03470:	0320f809 	jalr	t9
bfc03474:	00000000 	nop
D:\loongson\works\ls1d-mylib\lib\test/cmd.c:155
bfc03478:	3c02a000 	lui	v0,0xa000
bfc0347c:	24431030 	addiu	v1,v0,4144
bfc03480:	24020001 	li	v0,1
bfc03484:	ac62002c 	sw	v0,44(v1)
D:\loongson\works\ls1d-mylib\lib\test/cmd.c:156
bfc03488:	3c02a000 	lui	v0,0xa000
bfc0348c:	24431030 	addiu	v1,v0,4144
bfc03490:	8c620004 	lw	v0,4(v1)
bfc03494:	34420001 	ori	v0,v0,0x1
bfc03498:	ac620004 	sw	v0,4(v1)
D:\loongson\works\ls1d-mylib\lib\test/cmd.c:158
bfc0349c:	00001021 	move	v0,zero
D:\loongson\works\ls1d-mylib\lib\test/cmd.c:159
bfc034a0:	03c0e821 	move	sp,s8
bfc034a4:	8fbf002c 	lw	ra,44(sp)
bfc034a8:	8fbe0028 	lw	s8,40(sp)
bfc034ac:	27bd0030 	addiu	sp,sp,48
bfc034b0:	03e00008 	jr	ra
bfc034b4:	00000000 	nop

bfc034b8 <disable_timer>:
disable_timer():
D:\loongson\works\ls1d-mylib\lib\test/cmd.c:163
bfc034b8:	27bdffe8 	addiu	sp,sp,-24
bfc034bc:	afbf0014 	sw	ra,20(sp)
bfc034c0:	afbe0010 	sw	s8,16(sp)
bfc034c4:	03a0f021 	move	s8,sp
bfc034c8:	afc40018 	sw	a0,24(s8)
bfc034cc:	afc5001c 	sw	a1,28(s8)
D:\loongson\works\ls1d-mylib\lib\test/cmd.c:164
bfc034d0:	3c02a000 	lui	v0,0xa000
bfc034d4:	24421030 	addiu	v0,v0,4144
bfc034d8:	8c590010 	lw	t9,16(v0)
bfc034dc:	0320f809 	jalr	t9
bfc034e0:	00000000 	nop
D:\loongson\works\ls1d-mylib\lib\test/cmd.c:165
bfc034e4:	3c02a000 	lui	v0,0xa000
bfc034e8:	24421030 	addiu	v0,v0,4144
bfc034ec:	8c59005c 	lw	t9,92(v0)
bfc034f0:	0320f809 	jalr	t9
bfc034f4:	00000000 	nop
D:\loongson\works\ls1d-mylib\lib\test/cmd.c:166
bfc034f8:	3c02a000 	lui	v0,0xa000
bfc034fc:	24441030 	addiu	a0,v0,4144
bfc03500:	8c830004 	lw	v1,4(a0)
bfc03504:	2402fffe 	li	v0,-2
bfc03508:	00621024 	and	v0,v1,v0
bfc0350c:	ac820004 	sw	v0,4(a0)
D:\loongson\works\ls1d-mylib\lib\test/cmd.c:167
bfc03510:	3c02a000 	lui	v0,0xa000
bfc03514:	24441030 	addiu	a0,v0,4144
bfc03518:	8c830004 	lw	v1,4(a0)
bfc0351c:	2402fffd 	li	v0,-3
bfc03520:	00621024 	and	v0,v1,v0
bfc03524:	ac820004 	sw	v0,4(a0)
D:\loongson\works\ls1d-mylib\lib\test/cmd.c:168
bfc03528:	3c02a000 	lui	v0,0xa000
bfc0352c:	24441030 	addiu	a0,v0,4144
bfc03530:	8c830004 	lw	v1,4(a0)
bfc03534:	2402fffb 	li	v0,-5
bfc03538:	00621024 	and	v0,v1,v0
bfc0353c:	ac820004 	sw	v0,4(a0)
D:\loongson\works\ls1d-mylib\lib\test/cmd.c:170
bfc03540:	00001021 	move	v0,zero
D:\loongson\works\ls1d-mylib\lib\test/cmd.c:171
bfc03544:	03c0e821 	move	sp,s8
bfc03548:	8fbf0014 	lw	ra,20(sp)
bfc0354c:	8fbe0010 	lw	s8,16(sp)
bfc03550:	27bd0018 	addiu	sp,sp,24
bfc03554:	03e00008 	jr	ra
bfc03558:	00000000 	nop

bfc0355c <softint_test>:
softint_test():
D:\loongson\works\ls1d-mylib\lib\test/cmd.c:174
bfc0355c:	27bdffe8 	addiu	sp,sp,-24
bfc03560:	afbf0014 	sw	ra,20(sp)
bfc03564:	afbe0010 	sw	s8,16(sp)
bfc03568:	03a0f021 	move	s8,sp
bfc0356c:	afc40018 	sw	a0,24(s8)
bfc03570:	afc5001c 	sw	a1,28(s8)
D:\loongson\works\ls1d-mylib\lib\test/cmd.c:175
bfc03574:	3c02a000 	lui	v0,0xa000
bfc03578:	24421030 	addiu	v0,v0,4144
bfc0357c:	8c59004c 	lw	t9,76(v0)
bfc03580:	0320f809 	jalr	t9
bfc03584:	00000000 	nop
D:\loongson\works\ls1d-mylib\lib\test/cmd.c:177
bfc03588:	00001021 	move	v0,zero
D:\loongson\works\ls1d-mylib\lib\test/cmd.c:178
bfc0358c:	03c0e821 	move	sp,s8
bfc03590:	8fbf0014 	lw	ra,20(sp)
bfc03594:	8fbe0010 	lw	s8,16(sp)
bfc03598:	27bd0018 	addiu	sp,sp,24
bfc0359c:	03e00008 	jr	ra
bfc035a0:	00000000 	nop

bfc035a4 <wdt_test>:
wdt_test():
D:\loongson\works\ls1d-mylib\lib\test/cmd.c:182
bfc035a4:	27bdffd8 	addiu	sp,sp,-40
bfc035a8:	afbf0024 	sw	ra,36(sp)
bfc035ac:	afbe0020 	sw	s8,32(sp)
bfc035b0:	03a0f021 	move	s8,sp
bfc035b4:	afc40028 	sw	a0,40(s8)
bfc035b8:	afc5002c 	sw	a1,44(s8)
D:\loongson\works\ls1d-mylib\lib\test/cmd.c:183
bfc035bc:	8fc20028 	lw	v0,40(s8)
bfc035c0:	28420002 	slti	v0,v0,2
bfc035c4:	10400010 	beqz	v0,bfc03608 <wdt_test+0x64>
bfc035c8:	00000000 	nop
D:\loongson\works\ls1d-mylib\lib\test/cmd.c:185
bfc035cc:	3c02a000 	lui	v0,0xa000
bfc035d0:	8c421258 	lw	v0,4696(v0)
bfc035d4:	2c420002 	sltiu	v0,v0,2
bfc035d8:	14400007 	bnez	v0,bfc035f8 <wdt_test+0x54>
bfc035dc:	00000000 	nop
bfc035e0:	3c02bfc1 	lui	v0,0xbfc1
bfc035e4:	2444c760 	addiu	a0,v0,-14496
bfc035e8:	3c02bfc1 	lui	v0,0xbfc1
bfc035ec:	2459be10 	addiu	t9,v0,-16880
bfc035f0:	0320f809 	jalr	t9
bfc035f4:	00000000 	nop
D:\loongson\works\ls1d-mylib\lib\test/cmd.c:186
bfc035f8:	24020001 	li	v0,1
bfc035fc:	afc20018 	sw	v0,24(s8)
bfc03600:	0bf00db0 	j	bfc036c0 <wdt_test+0x11c>
bfc03604:	00000000 	nop
D:\loongson\works\ls1d-mylib\lib\test/cmd.c:190
bfc03608:	8fc2002c 	lw	v0,44(s8)
bfc0360c:	24420004 	addiu	v0,v0,4
bfc03610:	8c420000 	lw	v0,0(v0)
bfc03614:	00402021 	move	a0,v0
bfc03618:	3c02bfc1 	lui	v0,0xbfc1
bfc0361c:	2459b178 	addiu	t9,v0,-20104
bfc03620:	0320f809 	jalr	t9
bfc03624:	00000000 	nop
bfc03628:	afc20014 	sw	v0,20(s8)
D:\loongson\works\ls1d-mylib\lib\test/cmd.c:191
bfc0362c:	8fc2002c 	lw	v0,44(s8)
bfc03630:	24420008 	addiu	v0,v0,8
bfc03634:	8c420000 	lw	v0,0(v0)
bfc03638:	00402021 	move	a0,v0
bfc0363c:	3c02bfc1 	lui	v0,0xbfc1
bfc03640:	2459b178 	addiu	t9,v0,-20104
bfc03644:	0320f809 	jalr	t9
bfc03648:	00000000 	nop
bfc0364c:	afc20010 	sw	v0,16(s8)
D:\loongson\works\ls1d-mylib\lib\test/cmd.c:193
bfc03650:	3c02a000 	lui	v0,0xa000
bfc03654:	24421030 	addiu	v0,v0,4144
bfc03658:	8c590054 	lw	t9,84(v0)
bfc0365c:	8fc40014 	lw	a0,20(s8)
bfc03660:	0320f809 	jalr	t9
bfc03664:	00000000 	nop
bfc03668:	0bf00dac 	j	bfc036b0 <wdt_test+0x10c>
bfc0366c:	00000000 	nop
D:\loongson\works\ls1d-mylib\lib\test/cmd.c:195
bfc03670:	3c02a000 	lui	v0,0xa000
bfc03674:	8c421258 	lw	v0,4696(v0)
bfc03678:	2c420002 	sltiu	v0,v0,2
bfc0367c:	14400007 	bnez	v0,bfc0369c <wdt_test+0xf8>
bfc03680:	00000000 	nop
bfc03684:	3c02bfc1 	lui	v0,0xbfc1
bfc03688:	2444c780 	addiu	a0,v0,-14464
bfc0368c:	3c02bfc1 	lui	v0,0xbfc1
bfc03690:	2459be10 	addiu	t9,v0,-16880
bfc03694:	0320f809 	jalr	t9
bfc03698:	00000000 	nop
D:\loongson\works\ls1d-mylib\lib\test/cmd.c:196
bfc0369c:	3c02a000 	lui	v0,0xa000
bfc036a0:	24421030 	addiu	v0,v0,4144
bfc036a4:	8c590058 	lw	t9,88(v0)
bfc036a8:	0320f809 	jalr	t9
bfc036ac:	00000000 	nop
D:\loongson\works\ls1d-mylib\lib\test/cmd.c:194
bfc036b0:	8fc20010 	lw	v0,16(s8)
bfc036b4:	1440ffee 	bnez	v0,bfc03670 <wdt_test+0xcc>
bfc036b8:	00000000 	nop
D:\loongson\works\ls1d-mylib\lib\test/cmd.c:201
bfc036bc:	afc00018 	sw	zero,24(s8)
bfc036c0:	8fc20018 	lw	v0,24(s8)
D:\loongson\works\ls1d-mylib\lib\test/cmd.c:202
bfc036c4:	03c0e821 	move	sp,s8
bfc036c8:	8fbf0024 	lw	ra,36(sp)
bfc036cc:	8fbe0020 	lw	s8,32(sp)
bfc036d0:	27bd0028 	addiu	sp,sp,40
bfc036d4:	03e00008 	jr	ra
bfc036d8:	00000000 	nop

bfc036dc <lcd_test>:
lcd_test():
D:\loongson\works\ls1d-mylib\lib\test/cmd.c:205
bfc036dc:	27bdffe0 	addiu	sp,sp,-32
bfc036e0:	afbf001c 	sw	ra,28(sp)
bfc036e4:	afbe0018 	sw	s8,24(sp)
bfc036e8:	03a0f021 	move	s8,sp
bfc036ec:	afc40020 	sw	a0,32(s8)
bfc036f0:	afc50024 	sw	a1,36(s8)
D:\loongson\works\ls1d-mylib\lib\test/cmd.c:206
bfc036f4:	3c02a000 	lui	v0,0xa000
bfc036f8:	24421030 	addiu	v0,v0,4144
bfc036fc:	8c590098 	lw	t9,152(v0)
bfc03700:	3c02a000 	lui	v0,0xa000
bfc03704:	24441090 	addiu	a0,v0,4240
bfc03708:	0320f809 	jalr	t9
bfc0370c:	00000000 	nop
D:\loongson\works\ls1d-mylib\lib\test/cmd.c:209
bfc03710:	8fc20020 	lw	v0,32(s8)
bfc03714:	28420002 	slti	v0,v0,2
bfc03718:	10400005 	beqz	v0,bfc03730 <lcd_test+0x54>
bfc0371c:	00000000 	nop
D:\loongson\works\ls1d-mylib\lib\test/cmd.c:211
bfc03720:	24020001 	li	v0,1
bfc03724:	afc20010 	sw	v0,16(s8)
bfc03728:	0bf00dd5 	j	bfc03754 <lcd_test+0x78>
bfc0372c:	00000000 	nop
D:\loongson\works\ls1d-mylib\lib\test/cmd.c:215
bfc03730:	8fc20024 	lw	v0,36(s8)
bfc03734:	24420004 	addiu	v0,v0,4
bfc03738:	8c420000 	lw	v0,0(v0)
bfc0373c:	00402021 	move	a0,v0
bfc03740:	3c02bfc1 	lui	v0,0xbfc1
bfc03744:	2459b178 	addiu	t9,v0,-20104
bfc03748:	0320f809 	jalr	t9
bfc0374c:	00000000 	nop
bfc03750:	afc20010 	sw	v0,16(s8)
D:\loongson\works\ls1d-mylib\lib\test/cmd.c:217
bfc03754:	3c02a000 	lui	v0,0xa000
bfc03758:	24431030 	addiu	v1,v0,4144
bfc0375c:	8fc20010 	lw	v0,16(s8)
bfc03760:	ac620094 	sw	v0,148(v1)
D:\loongson\works\ls1d-mylib\lib\test/cmd.c:219
bfc03764:	3c02a000 	lui	v0,0xa000
bfc03768:	24421030 	addiu	v0,v0,4144
bfc0376c:	8c59003c 	lw	t9,60(v0)
bfc03770:	24040010 	li	a0,16
bfc03774:	0320f809 	jalr	t9
bfc03778:	00000000 	nop
D:\loongson\works\ls1d-mylib\lib\test/cmd.c:220
bfc0377c:	3c02a000 	lui	v0,0xa000
bfc03780:	24431030 	addiu	v1,v0,4144
bfc03784:	8c620004 	lw	v0,4(v1)
bfc03788:	34420002 	ori	v0,v0,0x2
bfc0378c:	ac620004 	sw	v0,4(v1)
D:\loongson\works\ls1d-mylib\lib\test/cmd.c:221
bfc03790:	00001021 	move	v0,zero
D:\loongson\works\ls1d-mylib\lib\test/cmd.c:222
bfc03794:	03c0e821 	move	sp,s8
bfc03798:	8fbf001c 	lw	ra,28(sp)
bfc0379c:	8fbe0018 	lw	s8,24(sp)
bfc037a0:	27bd0020 	addiu	sp,sp,32
bfc037a4:	03e00008 	jr	ra
bfc037a8:	00000000 	nop

bfc037ac <float_test>:
float_test():
D:\loongson\works\ls1d-mylib\lib\test/cmd.c:226
bfc037ac:	27bdffd0 	addiu	sp,sp,-48
bfc037b0:	afbf002c 	sw	ra,44(sp)
bfc037b4:	afbe0028 	sw	s8,40(sp)
bfc037b8:	03a0f021 	move	s8,sp
bfc037bc:	afc40030 	sw	a0,48(s8)
bfc037c0:	afc50034 	sw	a1,52(s8)
D:\loongson\works\ls1d-mylib\lib\test/cmd.c:227
bfc037c4:	24020001 	li	v0,1
bfc037c8:	afc20020 	sw	v0,32(s8)
D:\loongson\works\ls1d-mylib\lib\test/cmd.c:229
bfc037cc:	afc00018 	sw	zero,24(s8)
bfc037d0:	0bf00e10 	j	bfc03840 <float_test+0x94>
bfc037d4:	00000000 	nop
D:\loongson\works\ls1d-mylib\lib\test/cmd.c:232
bfc037d8:	c7c00020 	lwc1	$f0,32(s8)
bfc037dc:	46800020 	cvt.s.w	$f0,$f0
bfc037e0:	4600000d 	trunc.w.s	$f0,$f0
bfc037e4:	e7c0001c 	swc1	$f0,28(s8)
D:\loongson\works\ls1d-mylib\lib\test/cmd.c:233
bfc037e8:	8fc30020 	lw	v1,32(s8)
bfc037ec:	8fc2001c 	lw	v0,28(s8)
bfc037f0:	10620003 	beq	v1,v0,bfc03800 <float_test+0x54>
bfc037f4:	00000000 	nop
bfc037f8:	24020001 	li	v0,1
bfc037fc:	afc20018 	sw	v0,24(s8)
D:\loongson\works\ls1d-mylib\lib\test/cmd.c:234
bfc03800:	3c02a000 	lui	v0,0xa000
bfc03804:	8c421258 	lw	v0,4696(v0)
bfc03808:	2c420004 	sltiu	v0,v0,4
bfc0380c:	14400009 	bnez	v0,bfc03834 <float_test+0x88>
bfc03810:	00000000 	nop
bfc03814:	3c02bfc1 	lui	v0,0xbfc1
bfc03818:	2444c790 	addiu	a0,v0,-14448
bfc0381c:	8fc50020 	lw	a1,32(s8)
bfc03820:	8fc6001c 	lw	a2,28(s8)
bfc03824:	3c02bfc1 	lui	v0,0xbfc1
bfc03828:	2459be10 	addiu	t9,v0,-16880
bfc0382c:	0320f809 	jalr	t9
bfc03830:	00000000 	nop
D:\loongson\works\ls1d-mylib\lib\test/cmd.c:235
bfc03834:	8fc20020 	lw	v0,32(s8)
bfc03838:	00021040 	sll	v0,v0,0x1
bfc0383c:	afc20020 	sw	v0,32(s8)
D:\loongson\works\ls1d-mylib\lib\test/cmd.c:231
bfc03840:	8fc20020 	lw	v0,32(s8)
bfc03844:	1440ffe4 	bnez	v0,bfc037d8 <float_test+0x2c>
bfc03848:	00000000 	nop
D:\loongson\works\ls1d-mylib\lib\test/cmd.c:238
bfc0384c:	3c02bfc1 	lui	v0,0xbfc1
bfc03850:	c440ca30 	lwc1	$f0,-13776(v0)
bfc03854:	e7c00014 	swc1	$f0,20(s8)
bfc03858:	0bf00e3f 	j	bfc038fc <float_test+0x150>
bfc0385c:	00000000 	nop
D:\loongson\works\ls1d-mylib\lib\test/cmd.c:241
bfc03860:	c7c00014 	lwc1	$f0,20(s8)
bfc03864:	4600000d 	trunc.w.s	$f0,$f0
bfc03868:	46800020 	cvt.s.w	$f0,$f0
bfc0386c:	e7c00010 	swc1	$f0,16(s8)
D:\loongson\works\ls1d-mylib\lib\test/cmd.c:242
bfc03870:	c7c10010 	lwc1	$f1,16(s8)
bfc03874:	44800000 	mtc1	zero,$f0
bfc03878:	46000832 	c.eq.s	$f1,$f0
bfc0387c:	45010003 	bc1t	bfc0388c <float_test+0xe0>
bfc03880:	00000000 	nop
bfc03884:	24020001 	li	v0,1
bfc03888:	afc20018 	sw	v0,24(s8)
D:\loongson\works\ls1d-mylib\lib\test/cmd.c:243
bfc0388c:	3c02a000 	lui	v0,0xa000
bfc03890:	8c421258 	lw	v0,4696(v0)
bfc03894:	2c420004 	sltiu	v0,v0,4
bfc03898:	14400013 	bnez	v0,bfc038e8 <float_test+0x13c>
bfc0389c:	00000000 	nop
bfc038a0:	c7c10014 	lwc1	$f1,20(s8)
bfc038a4:	3c02bfc1 	lui	v0,0xbfc1
bfc038a8:	c440ca34 	lwc1	$f0,-13772(v0)
bfc038ac:	46000802 	mul.s	$f0,$f1,$f0
bfc038b0:	4600008d 	trunc.w.s	$f2,$f0
bfc038b4:	c7c10010 	lwc1	$f1,16(s8)
bfc038b8:	3c02bfc1 	lui	v0,0xbfc1
bfc038bc:	c440ca34 	lwc1	$f0,-13772(v0)
bfc038c0:	46000802 	mul.s	$f0,$f1,$f0
bfc038c4:	4600000d 	trunc.w.s	$f0,$f0
bfc038c8:	3c02bfc1 	lui	v0,0xbfc1
bfc038cc:	2444c798 	addiu	a0,v0,-14440
bfc038d0:	44051000 	mfc1	a1,$f2
bfc038d4:	44060000 	mfc1	a2,$f0
bfc038d8:	3c02bfc1 	lui	v0,0xbfc1
bfc038dc:	2459be10 	addiu	t9,v0,-16880
bfc038e0:	0320f809 	jalr	t9
bfc038e4:	00000000 	nop
D:\loongson\works\ls1d-mylib\lib\test/cmd.c:244
bfc038e8:	c7c10014 	lwc1	$f1,20(s8)
bfc038ec:	3c02bfc1 	lui	v0,0xbfc1
bfc038f0:	c440ca38 	lwc1	$f0,-13768(v0)
bfc038f4:	46000801 	sub.s	$f0,$f1,$f0
bfc038f8:	e7c00014 	swc1	$f0,20(s8)
D:\loongson\works\ls1d-mylib\lib\test/cmd.c:240
bfc038fc:	c7c00014 	lwc1	$f0,20(s8)
bfc03900:	44800800 	mtc1	zero,$f1
bfc03904:	4600083c 	c.lt.s	$f1,$f0
bfc03908:	4501ffd5 	bc1t	bfc03860 <float_test+0xb4>
bfc0390c:	00000000 	nop
D:\loongson\works\ls1d-mylib\lib\test/cmd.c:247
bfc03910:	8fc20018 	lw	v0,24(s8)
bfc03914:	1440000e 	bnez	v0,bfc03950 <float_test+0x1a4>
bfc03918:	00000000 	nop
D:\loongson\works\ls1d-mylib\lib\test/cmd.c:249
bfc0391c:	3c02a000 	lui	v0,0xa000
bfc03920:	8c421258 	lw	v0,4696(v0)
bfc03924:	2c420002 	sltiu	v0,v0,2
bfc03928:	14400014 	bnez	v0,bfc0397c <float_test+0x1d0>
bfc0392c:	00000000 	nop
bfc03930:	3c02bfc1 	lui	v0,0xbfc1
bfc03934:	2444c7a4 	addiu	a0,v0,-14428
bfc03938:	3c02bfc1 	lui	v0,0xbfc1
bfc0393c:	2459be10 	addiu	t9,v0,-16880
bfc03940:	0320f809 	jalr	t9
bfc03944:	00000000 	nop
bfc03948:	0bf00e5f 	j	bfc0397c <float_test+0x1d0>
bfc0394c:	00000000 	nop
D:\loongson\works\ls1d-mylib\lib\test/cmd.c:253
bfc03950:	3c02a000 	lui	v0,0xa000
bfc03954:	8c421258 	lw	v0,4696(v0)
bfc03958:	2c420002 	sltiu	v0,v0,2
bfc0395c:	14400007 	bnez	v0,bfc0397c <float_test+0x1d0>
bfc03960:	00000000 	nop
bfc03964:	3c02bfc1 	lui	v0,0xbfc1
bfc03968:	2444c7bc 	addiu	a0,v0,-14404
bfc0396c:	3c02bfc1 	lui	v0,0xbfc1
bfc03970:	2459be10 	addiu	t9,v0,-16880
bfc03974:	0320f809 	jalr	t9
bfc03978:	00000000 	nop
D:\loongson\works\ls1d-mylib\lib\test/cmd.c:256
bfc0397c:	00001021 	move	v0,zero
D:\loongson\works\ls1d-mylib\lib\test/cmd.c:257
bfc03980:	03c0e821 	move	sp,s8
bfc03984:	8fbf002c 	lw	ra,44(sp)
bfc03988:	8fbe0028 	lw	s8,40(sp)
bfc0398c:	27bd0030 	addiu	sp,sp,48
bfc03990:	03e00008 	jr	ra
bfc03994:	00000000 	nop

bfc03998 <key_test>:
key_test():
D:\loongson\works\ls1d-mylib\lib\test/cmd.c:260
bfc03998:	27bdffd0 	addiu	sp,sp,-48
bfc0399c:	afbf002c 	sw	ra,44(sp)
bfc039a0:	afbe0028 	sw	s8,40(sp)
bfc039a4:	03a0f021 	move	s8,sp
bfc039a8:	afc40030 	sw	a0,48(s8)
bfc039ac:	afc50034 	sw	a1,52(s8)
D:\loongson\works\ls1d-mylib\lib\test/cmd.c:261
bfc039b0:	8fc20030 	lw	v0,48(s8)
bfc039b4:	28420002 	slti	v0,v0,2
bfc039b8:	10400010 	beqz	v0,bfc039fc <key_test+0x64>
bfc039bc:	00000000 	nop
D:\loongson\works\ls1d-mylib\lib\test/cmd.c:263
bfc039c0:	3c02a000 	lui	v0,0xa000
bfc039c4:	8c421258 	lw	v0,4696(v0)
bfc039c8:	2c420002 	sltiu	v0,v0,2
bfc039cc:	14400007 	bnez	v0,bfc039ec <key_test+0x54>
bfc039d0:	00000000 	nop
bfc039d4:	3c02bfc1 	lui	v0,0xbfc1
bfc039d8:	2444c7e4 	addiu	a0,v0,-14364
bfc039dc:	3c02bfc1 	lui	v0,0xbfc1
bfc039e0:	2459be10 	addiu	t9,v0,-16880
bfc039e4:	0320f809 	jalr	t9
bfc039e8:	00000000 	nop
D:\loongson\works\ls1d-mylib\lib\test/cmd.c:264
bfc039ec:	24020001 	li	v0,1
bfc039f0:	afc20020 	sw	v0,32(s8)
bfc039f4:	0bf00eb3 	j	bfc03acc <key_test+0x134>
bfc039f8:	00000000 	nop
D:\loongson\works\ls1d-mylib\lib\test/cmd.c:268
bfc039fc:	8fc20034 	lw	v0,52(s8)
bfc03a00:	24420004 	addiu	v0,v0,4
bfc03a04:	8c420000 	lw	v0,0(v0)
bfc03a08:	afc20018 	sw	v0,24(s8)
D:\loongson\works\ls1d-mylib\lib\test/cmd.c:269
bfc03a0c:	3c02bfc1 	lui	v0,0xbfc1
bfc03a10:	2442c800 	addiu	v0,v0,-14336
bfc03a14:	afc20014 	sw	v0,20(s8)
D:\loongson\works\ls1d-mylib\lib\test/cmd.c:270
bfc03a18:	3c02bfc1 	lui	v0,0xbfc1
bfc03a1c:	2442c804 	addiu	v0,v0,-14332
bfc03a20:	afc20010 	sw	v0,16(s8)
D:\loongson\works\ls1d-mylib\lib\test/cmd.c:272
bfc03a24:	8fc40018 	lw	a0,24(s8)
bfc03a28:	8fc50014 	lw	a1,20(s8)
bfc03a2c:	3c02bfc1 	lui	v0,0xbfc1
bfc03a30:	2459bd50 	addiu	t9,v0,-17072
bfc03a34:	0320f809 	jalr	t9
bfc03a38:	00000000 	nop
bfc03a3c:	14400008 	bnez	v0,bfc03a60 <key_test+0xc8>
bfc03a40:	00000000 	nop
D:\loongson\works\ls1d-mylib\lib\test/cmd.c:273
bfc03a44:	3c02a000 	lui	v0,0xa000
bfc03a48:	24421030 	addiu	v0,v0,4144
bfc03a4c:	8c5900b8 	lw	t9,184(v0)
bfc03a50:	0320f809 	jalr	t9
bfc03a54:	00000000 	nop
bfc03a58:	0bf00eb2 	j	bfc03ac8 <key_test+0x130>
bfc03a5c:	00000000 	nop
D:\loongson\works\ls1d-mylib\lib\test/cmd.c:275
bfc03a60:	8fc40018 	lw	a0,24(s8)
bfc03a64:	8fc50010 	lw	a1,16(s8)
bfc03a68:	3c02bfc1 	lui	v0,0xbfc1
bfc03a6c:	2459bd50 	addiu	t9,v0,-17072
bfc03a70:	0320f809 	jalr	t9
bfc03a74:	00000000 	nop
bfc03a78:	14400008 	bnez	v0,bfc03a9c <key_test+0x104>
bfc03a7c:	00000000 	nop
D:\loongson\works\ls1d-mylib\lib\test/cmd.c:276
bfc03a80:	3c02a000 	lui	v0,0xa000
bfc03a84:	24421030 	addiu	v0,v0,4144
bfc03a88:	8c5900bc 	lw	t9,188(v0)
bfc03a8c:	0320f809 	jalr	t9
bfc03a90:	00000000 	nop
bfc03a94:	0bf00eb2 	j	bfc03ac8 <key_test+0x130>
bfc03a98:	00000000 	nop
D:\loongson\works\ls1d-mylib\lib\test/cmd.c:278
bfc03a9c:	3c02a000 	lui	v0,0xa000
bfc03aa0:	8c421258 	lw	v0,4696(v0)
bfc03aa4:	2c420002 	sltiu	v0,v0,2
bfc03aa8:	14400007 	bnez	v0,bfc03ac8 <key_test+0x130>
bfc03aac:	00000000 	nop
bfc03ab0:	3c02bfc1 	lui	v0,0xbfc1
bfc03ab4:	2444c7e4 	addiu	a0,v0,-14364
bfc03ab8:	3c02bfc1 	lui	v0,0xbfc1
bfc03abc:	2459be10 	addiu	t9,v0,-16880
bfc03ac0:	0320f809 	jalr	t9
bfc03ac4:	00000000 	nop
D:\loongson\works\ls1d-mylib\lib\test/cmd.c:281
bfc03ac8:	afc00020 	sw	zero,32(s8)
bfc03acc:	8fc20020 	lw	v0,32(s8)
D:\loongson\works\ls1d-mylib\lib\test/cmd.c:282
bfc03ad0:	03c0e821 	move	sp,s8
bfc03ad4:	8fbf002c 	lw	ra,44(sp)
bfc03ad8:	8fbe0028 	lw	s8,40(sp)
bfc03adc:	27bd0030 	addiu	sp,sp,48
bfc03ae0:	03e00008 	jr	ra
bfc03ae4:	00000000 	nop

bfc03ae8 <adc_test>:
adc_test():
D:\loongson\works\ls1d-mylib\lib\test/cmd.c:285
bfc03ae8:	27bdffc8 	addiu	sp,sp,-56
bfc03aec:	afbf0034 	sw	ra,52(sp)
bfc03af0:	afbe0030 	sw	s8,48(sp)
bfc03af4:	03a0f021 	move	s8,sp
bfc03af8:	afc40038 	sw	a0,56(s8)
bfc03afc:	afc5003c 	sw	a1,60(s8)
D:\loongson\works\ls1d-mylib\lib\test/cmd.c:286
bfc03b00:	8fc20038 	lw	v0,56(s8)
bfc03b04:	28420003 	slti	v0,v0,3
bfc03b08:	10400010 	beqz	v0,bfc03b4c <adc_test+0x64>
bfc03b0c:	00000000 	nop
D:\loongson\works\ls1d-mylib\lib\test/cmd.c:288
bfc03b10:	3c02a000 	lui	v0,0xa000
bfc03b14:	8c421258 	lw	v0,4696(v0)
bfc03b18:	2c420002 	sltiu	v0,v0,2
bfc03b1c:	14400007 	bnez	v0,bfc03b3c <adc_test+0x54>
bfc03b20:	00000000 	nop
bfc03b24:	3c02bfc1 	lui	v0,0xbfc1
bfc03b28:	2444c808 	addiu	a0,v0,-14328
bfc03b2c:	3c02bfc1 	lui	v0,0xbfc1
bfc03b30:	2459be10 	addiu	t9,v0,-16880
bfc03b34:	0320f809 	jalr	t9
bfc03b38:	00000000 	nop
D:\loongson\works\ls1d-mylib\lib\test/cmd.c:289
bfc03b3c:	24020001 	li	v0,1
bfc03b40:	afc2002c 	sw	v0,44(s8)
bfc03b44:	0bf00f42 	j	bfc03d08 <adc_test+0x220>
bfc03b48:	00000000 	nop
D:\loongson\works\ls1d-mylib\lib\test/cmd.c:293
bfc03b4c:	8fc2003c 	lw	v0,60(s8)
bfc03b50:	24420004 	addiu	v0,v0,4
bfc03b54:	8c420000 	lw	v0,0(v0)
bfc03b58:	00402021 	move	a0,v0
bfc03b5c:	3c02bfc1 	lui	v0,0xbfc1
bfc03b60:	2459b178 	addiu	t9,v0,-20104
bfc03b64:	0320f809 	jalr	t9
bfc03b68:	00000000 	nop
bfc03b6c:	a3c2001c 	sb	v0,28(s8)
D:\loongson\works\ls1d-mylib\lib\test/cmd.c:294
bfc03b70:	8fc2003c 	lw	v0,60(s8)
bfc03b74:	24420008 	addiu	v0,v0,8
bfc03b78:	8c420000 	lw	v0,0(v0)
bfc03b7c:	00402021 	move	a0,v0
bfc03b80:	3c02bfc1 	lui	v0,0xbfc1
bfc03b84:	2459b178 	addiu	t9,v0,-20104
bfc03b88:	0320f809 	jalr	t9
bfc03b8c:	00000000 	nop
bfc03b90:	afc20028 	sw	v0,40(s8)
bfc03b94:	8fc30028 	lw	v1,40(s8)
bfc03b98:	04600006 	bltz	v1,bfc03bb4 <adc_test+0xcc>
bfc03b9c:	00000000 	nop
bfc03ba0:	c7c00028 	lwc1	$f0,40(s8)
bfc03ba4:	46800020 	cvt.s.w	$f0,$f0
bfc03ba8:	e7c00024 	swc1	$f0,36(s8)
bfc03bac:	0bf00ef9 	j	bfc03be4 <adc_test+0xfc>
bfc03bb0:	00000000 	nop
bfc03bb4:	8fc30028 	lw	v1,40(s8)
bfc03bb8:	30620001 	andi	v0,v1,0x1
bfc03bbc:	8fc40028 	lw	a0,40(s8)
bfc03bc0:	00041842 	srl	v1,a0,0x1
bfc03bc4:	00431025 	or	v0,v0,v1
bfc03bc8:	44820000 	mtc1	v0,$f0
bfc03bcc:	46800020 	cvt.s.w	$f0,$f0
bfc03bd0:	e7c00024 	swc1	$f0,36(s8)
bfc03bd4:	c7c10024 	lwc1	$f1,36(s8)
bfc03bd8:	c7c20024 	lwc1	$f2,36(s8)
bfc03bdc:	46020840 	add.s	$f1,$f1,$f2
bfc03be0:	e7c10024 	swc1	$f1,36(s8)
bfc03be4:	3c02bfc1 	lui	v0,0xbfc1
bfc03be8:	c440ca3c 	lwc1	$f0,-13764(v0)
bfc03bec:	c7c10024 	lwc1	$f1,36(s8)
bfc03bf0:	46000803 	div.s	$f0,$f1,$f0
bfc03bf4:	e7c00018 	swc1	$f0,24(s8)
D:\loongson\works\ls1d-mylib\lib\test/cmd.c:295
bfc03bf8:	3c02a000 	lui	v0,0xa000
bfc03bfc:	24421030 	addiu	v0,v0,4144
bfc03c00:	8c5900c4 	lw	t9,196(v0)
bfc03c04:	93c2001c 	lbu	v0,28(s8)
bfc03c08:	00402021 	move	a0,v0
bfc03c0c:	0320f809 	jalr	t9
bfc03c10:	00000000 	nop
D:\loongson\works\ls1d-mylib\lib\test/cmd.c:297
bfc03c14:	3c02a000 	lui	v0,0xa000
bfc03c18:	24421030 	addiu	v0,v0,4144
bfc03c1c:	8c5900c8 	lw	t9,200(v0)
bfc03c20:	93c2001c 	lbu	v0,28(s8)
bfc03c24:	00402021 	move	a0,v0
bfc03c28:	0320f809 	jalr	t9
bfc03c2c:	00000000 	nop
bfc03c30:	afc20014 	sw	v0,20(s8)
D:\loongson\works\ls1d-mylib\lib\test/cmd.c:298
bfc03c34:	8fc20014 	lw	v0,20(s8)
bfc03c38:	04400006 	bltz	v0,bfc03c54 <adc_test+0x16c>
bfc03c3c:	00000000 	nop
bfc03c40:	c7c00014 	lwc1	$f0,20(s8)
bfc03c44:	46800020 	cvt.s.w	$f0,$f0
bfc03c48:	e7c00020 	swc1	$f0,32(s8)
bfc03c4c:	0bf00f21 	j	bfc03c84 <adc_test+0x19c>
bfc03c50:	00000000 	nop
bfc03c54:	8fc20014 	lw	v0,20(s8)
bfc03c58:	30420001 	andi	v0,v0,0x1
bfc03c5c:	8fc30014 	lw	v1,20(s8)
bfc03c60:	00031842 	srl	v1,v1,0x1
bfc03c64:	00431025 	or	v0,v0,v1
bfc03c68:	44821000 	mtc1	v0,$f2
bfc03c6c:	468010a0 	cvt.s.w	$f2,$f2
bfc03c70:	e7c20020 	swc1	$f2,32(s8)
bfc03c74:	c7c00020 	lwc1	$f0,32(s8)
bfc03c78:	c7c10020 	lwc1	$f1,32(s8)
bfc03c7c:	46010000 	add.s	$f0,$f0,$f1
bfc03c80:	e7c00020 	swc1	$f0,32(s8)
bfc03c84:	c7c00018 	lwc1	$f0,24(s8)
bfc03c88:	c7c20020 	lwc1	$f2,32(s8)
bfc03c8c:	46001042 	mul.s	$f1,$f2,$f0
bfc03c90:	3c02bfc1 	lui	v0,0xbfc1
bfc03c94:	c440ca40 	lwc1	$f0,-13760(v0)
bfc03c98:	46000803 	div.s	$f0,$f1,$f0
bfc03c9c:	e7c00010 	swc1	$f0,16(s8)
D:\loongson\works\ls1d-mylib\lib\test/cmd.c:300
bfc03ca0:	3c02a000 	lui	v0,0xa000
bfc03ca4:	8c421258 	lw	v0,4696(v0)
bfc03ca8:	2c420002 	sltiu	v0,v0,2
bfc03cac:	14400009 	bnez	v0,bfc03cd4 <adc_test+0x1ec>
bfc03cb0:	00000000 	nop
bfc03cb4:	93c3001c 	lbu	v1,28(s8)
bfc03cb8:	3c02bfc1 	lui	v0,0xbfc1
bfc03cbc:	2444c830 	addiu	a0,v0,-14288
bfc03cc0:	00602821 	move	a1,v1
bfc03cc4:	3c02bfc1 	lui	v0,0xbfc1
bfc03cc8:	2459be10 	addiu	t9,v0,-16880
bfc03ccc:	0320f809 	jalr	t9
bfc03cd0:	00000000 	nop
D:\loongson\works\ls1d-mylib\lib\test/cmd.c:301
bfc03cd4:	c7cc0010 	lwc1	$f12,16(s8)
bfc03cd8:	3c02bfc1 	lui	v0,0xbfc1
bfc03cdc:	2459af60 	addiu	t9,v0,-20640
bfc03ce0:	0320f809 	jalr	t9
bfc03ce4:	00000000 	nop
D:\loongson\works\ls1d-mylib\lib\test/cmd.c:303
bfc03ce8:	3c02a000 	lui	v0,0xa000
bfc03cec:	24421030 	addiu	v0,v0,4144
bfc03cf0:	8c5900cc 	lw	t9,204(v0)
bfc03cf4:	93c2001c 	lbu	v0,28(s8)
bfc03cf8:	00402021 	move	a0,v0
bfc03cfc:	0320f809 	jalr	t9
bfc03d00:	00000000 	nop
D:\loongson\works\ls1d-mylib\lib\test/cmd.c:306
bfc03d04:	afc0002c 	sw	zero,44(s8)
bfc03d08:	8fc2002c 	lw	v0,44(s8)
D:\loongson\works\ls1d-mylib\lib\test/cmd.c:307
bfc03d0c:	03c0e821 	move	sp,s8
bfc03d10:	8fbf0034 	lw	ra,52(sp)
bfc03d14:	8fbe0030 	lw	s8,48(sp)
bfc03d18:	27bd0038 	addiu	sp,sp,56
bfc03d1c:	03e00008 	jr	ra
bfc03d20:	00000000 	nop

bfc03d24 <infrared_test>:
infrared_test():
D:\loongson\works\ls1d-mylib\lib\test/cmd.c:310
bfc03d24:	27bdffb8 	addiu	sp,sp,-72
bfc03d28:	afbf0044 	sw	ra,68(sp)
bfc03d2c:	afbe0040 	sw	s8,64(sp)
bfc03d30:	03a0f021 	move	s8,sp
bfc03d34:	afc40048 	sw	a0,72(s8)
bfc03d38:	afc5004c 	sw	a1,76(s8)
D:\loongson\works\ls1d-mylib\lib\test/cmd.c:311
bfc03d3c:	8fc20048 	lw	v0,72(s8)
bfc03d40:	28420003 	slti	v0,v0,3
bfc03d44:	10400010 	beqz	v0,bfc03d88 <infrared_test+0x64>
bfc03d48:	00000000 	nop
D:\loongson\works\ls1d-mylib\lib\test/cmd.c:313
bfc03d4c:	3c02a000 	lui	v0,0xa000
bfc03d50:	8c421258 	lw	v0,4696(v0)
bfc03d54:	2c420002 	sltiu	v0,v0,2
bfc03d58:	14400007 	bnez	v0,bfc03d78 <infrared_test+0x54>
bfc03d5c:	00000000 	nop
bfc03d60:	3c02bfc1 	lui	v0,0xbfc1
bfc03d64:	2444c840 	addiu	a0,v0,-14272
bfc03d68:	3c02bfc1 	lui	v0,0xbfc1
bfc03d6c:	2459be10 	addiu	t9,v0,-16880
bfc03d70:	0320f809 	jalr	t9
bfc03d74:	00000000 	nop
D:\loongson\works\ls1d-mylib\lib\test/cmd.c:314
bfc03d78:	24020001 	li	v0,1
bfc03d7c:	afc20038 	sw	v0,56(s8)
bfc03d80:	0bf01046 	j	bfc04118 <infrared_test+0x3f4>
bfc03d84:	00000000 	nop
D:\loongson\works\ls1d-mylib\lib\test/cmd.c:318
bfc03d88:	8fc2004c 	lw	v0,76(s8)
bfc03d8c:	24420004 	addiu	v0,v0,4
bfc03d90:	8c420000 	lw	v0,0(v0)
bfc03d94:	00402021 	move	a0,v0
bfc03d98:	3c02bfc1 	lui	v0,0xbfc1
bfc03d9c:	2459b178 	addiu	t9,v0,-20104
bfc03da0:	0320f809 	jalr	t9
bfc03da4:	00000000 	nop
bfc03da8:	afc20020 	sw	v0,32(s8)
D:\loongson\works\ls1d-mylib\lib\test/cmd.c:319
bfc03dac:	8fc2004c 	lw	v0,76(s8)
bfc03db0:	24420008 	addiu	v0,v0,8
bfc03db4:	8c420000 	lw	v0,0(v0)
bfc03db8:	afc2001c 	sw	v0,28(s8)
D:\loongson\works\ls1d-mylib\lib\test/cmd.c:320
bfc03dbc:	3c02bfc1 	lui	v0,0xbfc1
bfc03dc0:	2442c870 	addiu	v0,v0,-14224
bfc03dc4:	afc20018 	sw	v0,24(s8)
D:\loongson\works\ls1d-mylib\lib\test/cmd.c:321
bfc03dc8:	3c02bfc1 	lui	v0,0xbfc1
bfc03dcc:	2442c878 	addiu	v0,v0,-14216
bfc03dd0:	afc20014 	sw	v0,20(s8)
D:\loongson\works\ls1d-mylib\lib\test/cmd.c:323
bfc03dd4:	8fc4001c 	lw	a0,28(s8)
bfc03dd8:	8fc50018 	lw	a1,24(s8)
bfc03ddc:	3c02bfc1 	lui	v0,0xbfc1
bfc03de0:	2459bd50 	addiu	t9,v0,-17072
bfc03de4:	0320f809 	jalr	t9
bfc03de8:	00000000 	nop
bfc03dec:	1440004c 	bnez	v0,bfc03f20 <infrared_test+0x1fc>
bfc03df0:	00000000 	nop
D:\loongson\works\ls1d-mylib\lib\test/cmd.c:325
bfc03df4:	3c02a000 	lui	v0,0xa000
bfc03df8:	24421030 	addiu	v0,v0,4144
bfc03dfc:	8c5900d0 	lw	t9,208(v0)
bfc03e00:	8fc40020 	lw	a0,32(s8)
bfc03e04:	0320f809 	jalr	t9
bfc03e08:	00000000 	nop
D:\loongson\works\ls1d-mylib\lib\test/cmd.c:326
bfc03e0c:	3c02a000 	lui	v0,0xa000
bfc03e10:	24421030 	addiu	v0,v0,4144
bfc03e14:	8c5900d4 	lw	t9,212(v0)
bfc03e18:	8fc40020 	lw	a0,32(s8)
bfc03e1c:	0320f809 	jalr	t9
bfc03e20:	00000000 	nop
D:\loongson\works\ls1d-mylib\lib\test/cmd.c:328
bfc03e24:	afc00024 	sw	zero,36(s8)
bfc03e28:	afc00028 	sw	zero,40(s8)
bfc03e2c:	afc0002c 	sw	zero,44(s8)
bfc03e30:	afc00030 	sw	zero,48(s8)
bfc03e34:	afc00034 	sw	zero,52(s8)
bfc03e38:	2402fffe 	li	v0,-2
bfc03e3c:	a3c20024 	sb	v0,36(s8)
bfc03e40:	2402fffe 	li	v0,-2
bfc03e44:	a3c20025 	sb	v0,37(s8)
bfc03e48:	2402fffe 	li	v0,-2
bfc03e4c:	a3c20026 	sb	v0,38(s8)
bfc03e50:	24020068 	li	v0,104
bfc03e54:	a3c20027 	sb	v0,39(s8)
bfc03e58:	24020020 	li	v0,32
bfc03e5c:	a3c20028 	sb	v0,40(s8)
bfc03e60:	2402ffaa 	li	v0,-86
bfc03e64:	a3c20029 	sb	v0,41(s8)
bfc03e68:	2402ffaa 	li	v0,-86
bfc03e6c:	a3c2002a 	sb	v0,42(s8)
bfc03e70:	2402ffaa 	li	v0,-86
bfc03e74:	a3c2002b 	sb	v0,43(s8)
bfc03e78:	2402ffaa 	li	v0,-86
bfc03e7c:	a3c2002c 	sb	v0,44(s8)
bfc03e80:	2402ffaa 	li	v0,-86
bfc03e84:	a3c2002d 	sb	v0,45(s8)
bfc03e88:	2402ffaa 	li	v0,-86
bfc03e8c:	a3c2002e 	sb	v0,46(s8)
bfc03e90:	2402ffaa 	li	v0,-86
bfc03e94:	a3c2002f 	sb	v0,47(s8)
bfc03e98:	2402001e 	li	v0,30
bfc03e9c:	a3c20030 	sb	v0,48(s8)
bfc03ea0:	24020003 	li	v0,3
bfc03ea4:	a3c20031 	sb	v0,49(s8)
bfc03ea8:	2402ff82 	li	v0,-126
bfc03eac:	a3c20032 	sb	v0,50(s8)
bfc03eb0:	2402ffb0 	li	v0,-80
bfc03eb4:	a3c20033 	sb	v0,51(s8)
bfc03eb8:	24020001 	li	v0,1
bfc03ebc:	a3c20034 	sb	v0,52(s8)
bfc03ec0:	2402ff82 	li	v0,-126
bfc03ec4:	a3c20035 	sb	v0,53(s8)
bfc03ec8:	24020016 	li	v0,22
bfc03ecc:	a3c20036 	sb	v0,54(s8)
D:\loongson\works\ls1d-mylib\lib\test/cmd.c:329
bfc03ed0:	27c20024 	addiu	v0,s8,36
bfc03ed4:	00402021 	move	a0,v0
bfc03ed8:	8fc50020 	lw	a1,32(s8)
bfc03edc:	3c02bfc1 	lui	v0,0xbfc1
bfc03ee0:	2459a96c 	addiu	t9,v0,-22164
bfc03ee4:	0320f809 	jalr	t9
bfc03ee8:	00000000 	nop
D:\loongson\works\ls1d-mylib\lib\test/cmd.c:330
bfc03eec:	3c02a000 	lui	v0,0xa000
bfc03ef0:	8c421258 	lw	v0,4696(v0)
bfc03ef4:	2c420002 	sltiu	v0,v0,2
bfc03ef8:	14400086 	bnez	v0,bfc04114 <infrared_test+0x3f0>
bfc03efc:	00000000 	nop
bfc03f00:	3c02bfc1 	lui	v0,0xbfc1
bfc03f04:	2444c87c 	addiu	a0,v0,-14212
bfc03f08:	3c02bfc1 	lui	v0,0xbfc1
bfc03f0c:	2459bcb0 	addiu	t9,v0,-17232
bfc03f10:	0320f809 	jalr	t9
bfc03f14:	00000000 	nop
bfc03f18:	0bf01045 	j	bfc04114 <infrared_test+0x3f0>
bfc03f1c:	00000000 	nop
D:\loongson\works\ls1d-mylib\lib\test/cmd.c:332
bfc03f20:	8fc4001c 	lw	a0,28(s8)
bfc03f24:	8fc50014 	lw	a1,20(s8)
bfc03f28:	3c02bfc1 	lui	v0,0xbfc1
bfc03f2c:	2459bd50 	addiu	t9,v0,-17072
bfc03f30:	0320f809 	jalr	t9
bfc03f34:	00000000 	nop
bfc03f38:	1440006b 	bnez	v0,bfc040e8 <infrared_test+0x3c4>
bfc03f3c:	00000000 	nop
D:\loongson\works\ls1d-mylib\lib\test/cmd.c:335
bfc03f40:	afc00010 	sw	zero,16(s8)
bfc03f44:	0bf00fdc 	j	bfc03f70 <infrared_test+0x24c>
bfc03f48:	00000000 	nop
D:\loongson\works\ls1d-mylib\lib\test/cmd.c:336
bfc03f4c:	3c02a000 	lui	v0,0xa000
bfc03f50:	24421030 	addiu	v0,v0,4144
bfc03f54:	8c4300d8 	lw	v1,216(v0)
bfc03f58:	8fc20010 	lw	v0,16(s8)
bfc03f5c:	00621021 	addu	v0,v1,v0
bfc03f60:	a0400000 	sb	zero,0(v0)
D:\loongson\works\ls1d-mylib\lib\test/cmd.c:335
bfc03f64:	8fc20010 	lw	v0,16(s8)
bfc03f68:	24420001 	addiu	v0,v0,1
bfc03f6c:	afc20010 	sw	v0,16(s8)
bfc03f70:	8fc30010 	lw	v1,16(s8)
bfc03f74:	3c02a000 	lui	v0,0xa000
bfc03f78:	24421030 	addiu	v0,v0,4144
bfc03f7c:	8c4200e0 	lw	v0,224(v0)
bfc03f80:	0062102b 	sltu	v0,v1,v0
bfc03f84:	1440fff1 	bnez	v0,bfc03f4c <infrared_test+0x228>
bfc03f88:	00000000 	nop
D:\loongson\works\ls1d-mylib\lib\test/cmd.c:337
bfc03f8c:	afc00010 	sw	zero,16(s8)
bfc03f90:	0bf00ffc 	j	bfc03ff0 <infrared_test+0x2cc>
bfc03f94:	00000000 	nop
D:\loongson\works\ls1d-mylib\lib\test/cmd.c:338
bfc03f98:	3c02a000 	lui	v0,0xa000
bfc03f9c:	8c421258 	lw	v0,4696(v0)
bfc03fa0:	2c420002 	sltiu	v0,v0,2
bfc03fa4:	1440000f 	bnez	v0,bfc03fe4 <infrared_test+0x2c0>
bfc03fa8:	00000000 	nop
bfc03fac:	3c02a000 	lui	v0,0xa000
bfc03fb0:	24421030 	addiu	v0,v0,4144
bfc03fb4:	8c4300d8 	lw	v1,216(v0)
bfc03fb8:	8fc20010 	lw	v0,16(s8)
bfc03fbc:	00621021 	addu	v0,v1,v0
bfc03fc0:	90420000 	lbu	v0,0(v0)
bfc03fc4:	00401821 	move	v1,v0
bfc03fc8:	3c02bfc1 	lui	v0,0xbfc1
bfc03fcc:	2444c88c 	addiu	a0,v0,-14196
bfc03fd0:	00602821 	move	a1,v1
bfc03fd4:	3c02bfc1 	lui	v0,0xbfc1
bfc03fd8:	2459be10 	addiu	t9,v0,-16880
bfc03fdc:	0320f809 	jalr	t9
bfc03fe0:	00000000 	nop
D:\loongson\works\ls1d-mylib\lib\test/cmd.c:337
bfc03fe4:	8fc20010 	lw	v0,16(s8)
bfc03fe8:	24420001 	addiu	v0,v0,1
bfc03fec:	afc20010 	sw	v0,16(s8)
bfc03ff0:	8fc30010 	lw	v1,16(s8)
bfc03ff4:	3c02a000 	lui	v0,0xa000
bfc03ff8:	24421030 	addiu	v0,v0,4144
bfc03ffc:	8c4200e0 	lw	v0,224(v0)
bfc04000:	0062102b 	sltu	v0,v1,v0
bfc04004:	1440ffe4 	bnez	v0,bfc03f98 <infrared_test+0x274>
bfc04008:	00000000 	nop
D:\loongson\works\ls1d-mylib\lib\test/cmd.c:340
bfc0400c:	3c02a000 	lui	v0,0xa000
bfc04010:	24421030 	addiu	v0,v0,4144
bfc04014:	8c5900d0 	lw	t9,208(v0)
bfc04018:	8fc40020 	lw	a0,32(s8)
bfc0401c:	0320f809 	jalr	t9
bfc04020:	00000000 	nop
D:\loongson\works\ls1d-mylib\lib\test/cmd.c:341
bfc04024:	3c02a000 	lui	v0,0xa000
bfc04028:	24421030 	addiu	v0,v0,4144
bfc0402c:	ac4000dc 	sw	zero,220(v0)
D:\loongson\works\ls1d-mylib\lib\test/cmd.c:343
bfc04030:	3c02a000 	lui	v0,0xa000
bfc04034:	24421030 	addiu	v0,v0,4144
bfc04038:	8c59011c 	lw	t9,284(v0)
bfc0403c:	3c040080 	lui	a0,0x80
bfc04040:	0320f809 	jalr	t9
bfc04044:	00000000 	nop
D:\loongson\works\ls1d-mylib\lib\test/cmd.c:345
bfc04048:	afc00010 	sw	zero,16(s8)
bfc0404c:	0bf0102b 	j	bfc040ac <infrared_test+0x388>
bfc04050:	00000000 	nop
D:\loongson\works\ls1d-mylib\lib\test/cmd.c:346
bfc04054:	3c02a000 	lui	v0,0xa000
bfc04058:	8c421258 	lw	v0,4696(v0)
bfc0405c:	2c420002 	sltiu	v0,v0,2
bfc04060:	1440000f 	bnez	v0,bfc040a0 <infrared_test+0x37c>
bfc04064:	00000000 	nop
bfc04068:	3c02a000 	lui	v0,0xa000
bfc0406c:	24421030 	addiu	v0,v0,4144
bfc04070:	8c4300d8 	lw	v1,216(v0)
bfc04074:	8fc20010 	lw	v0,16(s8)
bfc04078:	00621021 	addu	v0,v1,v0
bfc0407c:	90420000 	lbu	v0,0(v0)
bfc04080:	00401821 	move	v1,v0
bfc04084:	3c02bfc1 	lui	v0,0xbfc1
bfc04088:	2444c88c 	addiu	a0,v0,-14196
bfc0408c:	00602821 	move	a1,v1
bfc04090:	3c02bfc1 	lui	v0,0xbfc1
bfc04094:	2459be10 	addiu	t9,v0,-16880
bfc04098:	0320f809 	jalr	t9
bfc0409c:	00000000 	nop
D:\loongson\works\ls1d-mylib\lib\test/cmd.c:345
bfc040a0:	8fc20010 	lw	v0,16(s8)
bfc040a4:	24420001 	addiu	v0,v0,1
bfc040a8:	afc20010 	sw	v0,16(s8)
bfc040ac:	8fc30010 	lw	v1,16(s8)
bfc040b0:	3c02a000 	lui	v0,0xa000
bfc040b4:	24421030 	addiu	v0,v0,4144
bfc040b8:	8c4200e0 	lw	v0,224(v0)
bfc040bc:	0062102b 	sltu	v0,v1,v0
bfc040c0:	1440ffe4 	bnez	v0,bfc04054 <infrared_test+0x330>
bfc040c4:	00000000 	nop
D:\loongson\works\ls1d-mylib\lib\test/cmd.c:347
bfc040c8:	3c02a000 	lui	v0,0xa000
bfc040cc:	24421030 	addiu	v0,v0,4144
bfc040d0:	8c5900d4 	lw	t9,212(v0)
bfc040d4:	8fc40020 	lw	a0,32(s8)
bfc040d8:	0320f809 	jalr	t9
bfc040dc:	00000000 	nop
bfc040e0:	0bf01045 	j	bfc04114 <infrared_test+0x3f0>
bfc040e4:	00000000 	nop
D:\loongson\works\ls1d-mylib\lib\test/cmd.c:351
bfc040e8:	3c02a000 	lui	v0,0xa000
bfc040ec:	8c421258 	lw	v0,4696(v0)
bfc040f0:	2c420002 	sltiu	v0,v0,2
bfc040f4:	14400007 	bnez	v0,bfc04114 <infrared_test+0x3f0>
bfc040f8:	00000000 	nop
bfc040fc:	3c02bfc1 	lui	v0,0xbfc1
bfc04100:	2444c89c 	addiu	a0,v0,-14180
bfc04104:	3c02bfc1 	lui	v0,0xbfc1
bfc04108:	2459be10 	addiu	t9,v0,-16880
bfc0410c:	0320f809 	jalr	t9
bfc04110:	00000000 	nop
D:\loongson\works\ls1d-mylib\lib\test/cmd.c:355
bfc04114:	afc00038 	sw	zero,56(s8)
bfc04118:	8fc20038 	lw	v0,56(s8)
D:\loongson\works\ls1d-mylib\lib\test/cmd.c:356
bfc0411c:	03c0e821 	move	sp,s8
bfc04120:	8fbf0044 	lw	ra,68(sp)
bfc04124:	8fbe0040 	lw	s8,64(sp)
bfc04128:	27bd0048 	addiu	sp,sp,72
bfc0412c:	03e00008 	jr	ra
bfc04130:	00000000 	nop

bfc04134 <flash_test>:
flash_test():
D:\loongson\works\ls1d-mylib\lib\test/cmd.c:360
bfc04134:	27bdffd0 	addiu	sp,sp,-48
bfc04138:	afbf002c 	sw	ra,44(sp)
bfc0413c:	afbe0028 	sw	s8,40(sp)
bfc04140:	03a0f021 	move	s8,sp
bfc04144:	afc40030 	sw	a0,48(s8)
bfc04148:	afc50034 	sw	a1,52(s8)
D:\loongson\works\ls1d-mylib\lib\test/cmd.c:361
bfc0414c:	8fc20030 	lw	v0,48(s8)
bfc04150:	28420004 	slti	v0,v0,4
bfc04154:	10400010 	beqz	v0,bfc04198 <flash_test+0x64>
bfc04158:	00000000 	nop
D:\loongson\works\ls1d-mylib\lib\test/cmd.c:363
bfc0415c:	3c02a000 	lui	v0,0xa000
bfc04160:	8c421258 	lw	v0,4696(v0)
bfc04164:	2c420002 	sltiu	v0,v0,2
bfc04168:	14400007 	bnez	v0,bfc04188 <flash_test+0x54>
bfc0416c:	00000000 	nop
bfc04170:	3c02bfc1 	lui	v0,0xbfc1
bfc04174:	2444c8c0 	addiu	a0,v0,-14144
bfc04178:	3c02bfc1 	lui	v0,0xbfc1
bfc0417c:	2459be10 	addiu	t9,v0,-16880
bfc04180:	0320f809 	jalr	t9
bfc04184:	00000000 	nop
D:\loongson\works\ls1d-mylib\lib\test/cmd.c:364
bfc04188:	24020001 	li	v0,1
bfc0418c:	afc20024 	sw	v0,36(s8)
bfc04190:	0bf0112b 	j	bfc044ac <flash_test+0x378>
bfc04194:	00000000 	nop
D:\loongson\works\ls1d-mylib\lib\test/cmd.c:367
bfc04198:	afc00014 	sw	zero,20(s8)
D:\loongson\works\ls1d-mylib\lib\test/cmd.c:368
bfc0419c:	8fc20034 	lw	v0,52(s8)
bfc041a0:	24420008 	addiu	v0,v0,8
bfc041a4:	8c420000 	lw	v0,0(v0)
bfc041a8:	00402021 	move	a0,v0
bfc041ac:	3c02bfc1 	lui	v0,0xbfc1
bfc041b0:	2459b178 	addiu	t9,v0,-20104
bfc041b4:	0320f809 	jalr	t9
bfc041b8:	00000000 	nop
bfc041bc:	afc20010 	sw	v0,16(s8)
D:\loongson\works\ls1d-mylib\lib\test/cmd.c:369
bfc041c0:	8fc20034 	lw	v0,52(s8)
bfc041c4:	2442000c 	addiu	v0,v0,12
bfc041c8:	8c420000 	lw	v0,0(v0)
bfc041cc:	00402021 	move	a0,v0
bfc041d0:	3c02bfc1 	lui	v0,0xbfc1
bfc041d4:	2459b178 	addiu	t9,v0,-20104
bfc041d8:	0320f809 	jalr	t9
bfc041dc:	00000000 	nop
bfc041e0:	afc20018 	sw	v0,24(s8)
D:\loongson\works\ls1d-mylib\lib\test/cmd.c:370
bfc041e4:	8fc20034 	lw	v0,52(s8)
bfc041e8:	24420004 	addiu	v0,v0,4
bfc041ec:	8c420000 	lw	v0,0(v0)
bfc041f0:	00402021 	move	a0,v0
bfc041f4:	3c02bfc1 	lui	v0,0xbfc1
bfc041f8:	2459b178 	addiu	t9,v0,-20104
bfc041fc:	0320f809 	jalr	t9
bfc04200:	00000000 	nop
bfc04204:	afc20020 	sw	v0,32(s8)
bfc04208:	8fc30020 	lw	v1,32(s8)
bfc0420c:	2c620005 	sltiu	v0,v1,5
bfc04210:	1040008a 	beqz	v0,bfc0443c <flash_test+0x308>
bfc04214:	00000000 	nop
bfc04218:	8fc20020 	lw	v0,32(s8)
bfc0421c:	00021880 	sll	v1,v0,0x2
bfc04220:	3c02bfc1 	lui	v0,0xbfc1
bfc04224:	2442c97c 	addiu	v0,v0,-13956
bfc04228:	00621021 	addu	v0,v1,v0
bfc0422c:	8c420000 	lw	v0,0(v0)
bfc04230:	00400008 	jr	v0
bfc04234:	00000000 	nop
D:\loongson\works\ls1d-mylib\lib\test/cmd.c:372
bfc04238:	3c02a000 	lui	v0,0xa000
bfc0423c:	8c421258 	lw	v0,4696(v0)
bfc04240:	2c420002 	sltiu	v0,v0,2
bfc04244:	14400007 	bnez	v0,bfc04264 <flash_test+0x130>
bfc04248:	00000000 	nop
bfc0424c:	3c02bfc1 	lui	v0,0xbfc1
bfc04250:	2444c8ec 	addiu	a0,v0,-14100
bfc04254:	3c02bfc1 	lui	v0,0xbfc1
bfc04258:	2459bcb0 	addiu	t9,v0,-17232
bfc0425c:	0320f809 	jalr	t9
bfc04260:	00000000 	nop
D:\loongson\works\ls1d-mylib\lib\test/cmd.c:373
bfc04264:	3c02a000 	lui	v0,0xa000
bfc04268:	24421030 	addiu	v0,v0,4144
bfc0426c:	8c5900ec 	lw	t9,236(v0)
bfc04270:	8fc20018 	lw	v0,24(s8)
bfc04274:	8fc40010 	lw	a0,16(s8)
bfc04278:	00402821 	move	a1,v0
bfc0427c:	0320f809 	jalr	t9
bfc04280:	00000000 	nop
bfc04284:	afc20014 	sw	v0,20(s8)
D:\loongson\works\ls1d-mylib\lib\test/cmd.c:374
bfc04288:	3c02a000 	lui	v0,0xa000
bfc0428c:	8c421258 	lw	v0,4696(v0)
bfc04290:	2c420002 	sltiu	v0,v0,2
bfc04294:	14400069 	bnez	v0,bfc0443c <flash_test+0x308>
bfc04298:	00000000 	nop
bfc0429c:	3c02bfc1 	lui	v0,0xbfc1
bfc042a0:	2444c8fc 	addiu	a0,v0,-14084
bfc042a4:	3c02bfc1 	lui	v0,0xbfc1
bfc042a8:	2459be10 	addiu	t9,v0,-16880
bfc042ac:	0320f809 	jalr	t9
bfc042b0:	00000000 	nop
bfc042b4:	0bf0110f 	j	bfc0443c <flash_test+0x308>
bfc042b8:	00000000 	nop
D:\loongson\works\ls1d-mylib\lib\test/cmd.c:377
bfc042bc:	3c02a000 	lui	v0,0xa000
bfc042c0:	8c421258 	lw	v0,4696(v0)
bfc042c4:	2c420002 	sltiu	v0,v0,2
bfc042c8:	14400007 	bnez	v0,bfc042e8 <flash_test+0x1b4>
bfc042cc:	00000000 	nop
bfc042d0:	3c02bfc1 	lui	v0,0xbfc1
bfc042d4:	2444c90c 	addiu	a0,v0,-14068
bfc042d8:	3c02bfc1 	lui	v0,0xbfc1
bfc042dc:	2459bcb0 	addiu	t9,v0,-17232
bfc042e0:	0320f809 	jalr	t9
bfc042e4:	00000000 	nop
D:\loongson\works\ls1d-mylib\lib\test/cmd.c:378
bfc042e8:	3c02a000 	lui	v0,0xa000
bfc042ec:	24421030 	addiu	v0,v0,4144
bfc042f0:	8c5900e8 	lw	t9,232(v0)
bfc042f4:	27c20018 	addiu	v0,s8,24
bfc042f8:	8fc40010 	lw	a0,16(s8)
bfc042fc:	00402821 	move	a1,v0
bfc04300:	24060001 	li	a2,1
bfc04304:	0320f809 	jalr	t9
bfc04308:	00000000 	nop
bfc0430c:	afc20014 	sw	v0,20(s8)
D:\loongson\works\ls1d-mylib\lib\test/cmd.c:379
bfc04310:	3c02a000 	lui	v0,0xa000
bfc04314:	8c421258 	lw	v0,4696(v0)
bfc04318:	2c420002 	sltiu	v0,v0,2
bfc0431c:	14400047 	bnez	v0,bfc0443c <flash_test+0x308>
bfc04320:	00000000 	nop
bfc04324:	3c02bfc1 	lui	v0,0xbfc1
bfc04328:	2444c91c 	addiu	a0,v0,-14052
bfc0432c:	3c02bfc1 	lui	v0,0xbfc1
bfc04330:	2459be10 	addiu	t9,v0,-16880
bfc04334:	0320f809 	jalr	t9
bfc04338:	00000000 	nop
bfc0433c:	0bf0110f 	j	bfc0443c <flash_test+0x308>
bfc04340:	00000000 	nop
D:\loongson\works\ls1d-mylib\lib\test/cmd.c:382
bfc04344:	3c02a000 	lui	v0,0xa000
bfc04348:	24421030 	addiu	v0,v0,4144
bfc0434c:	8c5900f0 	lw	t9,240(v0)
bfc04350:	8fc40010 	lw	a0,16(s8)
bfc04354:	0320f809 	jalr	t9
bfc04358:	00000000 	nop
bfc0435c:	afc20014 	sw	v0,20(s8)
D:\loongson\works\ls1d-mylib\lib\test/cmd.c:383
bfc04360:	3c02a000 	lui	v0,0xa000
bfc04364:	8c421258 	lw	v0,4696(v0)
bfc04368:	2c420002 	sltiu	v0,v0,2
bfc0436c:	14400033 	bnez	v0,bfc0443c <flash_test+0x308>
bfc04370:	00000000 	nop
bfc04374:	3c02bfc1 	lui	v0,0xbfc1
bfc04378:	2444c92c 	addiu	a0,v0,-14036
bfc0437c:	3c02bfc1 	lui	v0,0xbfc1
bfc04380:	2459be10 	addiu	t9,v0,-16880
bfc04384:	0320f809 	jalr	t9
bfc04388:	00000000 	nop
bfc0438c:	0bf0110f 	j	bfc0443c <flash_test+0x308>
bfc04390:	00000000 	nop
D:\loongson\works\ls1d-mylib\lib\test/cmd.c:386
bfc04394:	3c02a000 	lui	v0,0xa000
bfc04398:	24421030 	addiu	v0,v0,4144
bfc0439c:	8c5900f4 	lw	t9,244(v0)
bfc043a0:	8fc20018 	lw	v0,24(s8)
bfc043a4:	8fc40010 	lw	a0,16(s8)
bfc043a8:	00402821 	move	a1,v0
bfc043ac:	0320f809 	jalr	t9
bfc043b0:	00000000 	nop
bfc043b4:	afc20014 	sw	v0,20(s8)
D:\loongson\works\ls1d-mylib\lib\test/cmd.c:387
bfc043b8:	3c02a000 	lui	v0,0xa000
bfc043bc:	8c421258 	lw	v0,4696(v0)
bfc043c0:	2c420002 	sltiu	v0,v0,2
bfc043c4:	1440001d 	bnez	v0,bfc0443c <flash_test+0x308>
bfc043c8:	00000000 	nop
bfc043cc:	3c02bfc1 	lui	v0,0xbfc1
bfc043d0:	2444c944 	addiu	a0,v0,-14012
bfc043d4:	3c02bfc1 	lui	v0,0xbfc1
bfc043d8:	2459be10 	addiu	t9,v0,-16880
bfc043dc:	0320f809 	jalr	t9
bfc043e0:	00000000 	nop
bfc043e4:	0bf0110f 	j	bfc0443c <flash_test+0x308>
bfc043e8:	00000000 	nop
D:\loongson\works\ls1d-mylib\lib\test/cmd.c:390
bfc043ec:	3c02a000 	lui	v0,0xa000
bfc043f0:	24421030 	addiu	v0,v0,4144
bfc043f4:	8c5900f8 	lw	t9,248(v0)
bfc043f8:	8fc20018 	lw	v0,24(s8)
bfc043fc:	8fc40010 	lw	a0,16(s8)
bfc04400:	00402821 	move	a1,v0
bfc04404:	0320f809 	jalr	t9
bfc04408:	00000000 	nop
bfc0440c:	afc20014 	sw	v0,20(s8)
D:\loongson\works\ls1d-mylib\lib\test/cmd.c:391
bfc04410:	3c02a000 	lui	v0,0xa000
bfc04414:	8c421258 	lw	v0,4696(v0)
bfc04418:	2c420002 	sltiu	v0,v0,2
bfc0441c:	14400007 	bnez	v0,bfc0443c <flash_test+0x308>
bfc04420:	00000000 	nop
bfc04424:	3c02bfc1 	lui	v0,0xbfc1
bfc04428:	2444c958 	addiu	a0,v0,-13992
bfc0442c:	3c02bfc1 	lui	v0,0xbfc1
bfc04430:	2459be10 	addiu	t9,v0,-16880
bfc04434:	0320f809 	jalr	t9
bfc04438:	00000000 	nop
D:\loongson\works\ls1d-mylib\lib\test/cmd.c:397
bfc0443c:	8fc20014 	lw	v0,20(s8)
bfc04440:	1040000e 	beqz	v0,bfc0447c <flash_test+0x348>
bfc04444:	00000000 	nop
D:\loongson\works\ls1d-mylib\lib\test/cmd.c:399
bfc04448:	3c02a000 	lui	v0,0xa000
bfc0444c:	8c421258 	lw	v0,4696(v0)
bfc04450:	2c420002 	sltiu	v0,v0,2
bfc04454:	14400014 	bnez	v0,bfc044a8 <flash_test+0x374>
bfc04458:	00000000 	nop
bfc0445c:	3c02bfc1 	lui	v0,0xbfc1
bfc04460:	2444c968 	addiu	a0,v0,-13976
bfc04464:	3c02bfc1 	lui	v0,0xbfc1
bfc04468:	2459bcb0 	addiu	t9,v0,-17232
bfc0446c:	0320f809 	jalr	t9
bfc04470:	00000000 	nop
bfc04474:	0bf0112a 	j	bfc044a8 <flash_test+0x374>
bfc04478:	00000000 	nop
D:\loongson\works\ls1d-mylib\lib\test/cmd.c:403
bfc0447c:	3c02a000 	lui	v0,0xa000
bfc04480:	8c421258 	lw	v0,4696(v0)
bfc04484:	2c420002 	sltiu	v0,v0,2
bfc04488:	14400007 	bnez	v0,bfc044a8 <flash_test+0x374>
bfc0448c:	00000000 	nop
bfc04490:	3c02bfc1 	lui	v0,0xbfc1
bfc04494:	2444c970 	addiu	a0,v0,-13968
bfc04498:	3c02bfc1 	lui	v0,0xbfc1
bfc0449c:	2459bcb0 	addiu	t9,v0,-17232
bfc044a0:	0320f809 	jalr	t9
bfc044a4:	00000000 	nop
D:\loongson\works\ls1d-mylib\lib\test/cmd.c:406
bfc044a8:	afc00024 	sw	zero,36(s8)
bfc044ac:	8fc20024 	lw	v0,36(s8)
D:\loongson\works\ls1d-mylib\lib\test/cmd.c:407
bfc044b0:	03c0e821 	move	sp,s8
bfc044b4:	8fbf002c 	lw	ra,44(sp)
bfc044b8:	8fbe0028 	lw	s8,40(sp)
bfc044bc:	27bd0030 	addiu	sp,sp,48
bfc044c0:	03e00008 	jr	ra
bfc044c4:	00000000 	nop

bfc044c8 <eeprom_test>:
eeprom_test():
D:\loongson\works\ls1d-mylib\lib\test/cmd.c:410
bfc044c8:	27bdffe0 	addiu	sp,sp,-32
bfc044cc:	afbf001c 	sw	ra,28(sp)
bfc044d0:	afbe0018 	sw	s8,24(sp)
bfc044d4:	afb10014 	sw	s1,20(sp)
bfc044d8:	afb00010 	sw	s0,16(sp)
bfc044dc:	03a0f021 	move	s8,sp
bfc044e0:	afc40020 	sw	a0,32(s8)
bfc044e4:	afc50024 	sw	a1,36(s8)
D:\loongson\works\ls1d-mylib\lib\test/cmd.c:411
bfc044e8:	8fc20020 	lw	v0,32(s8)
bfc044ec:	28420004 	slti	v0,v0,4
bfc044f0:	1040000a 	beqz	v0,bfc0451c <eeprom_test+0x54>
bfc044f4:	00000000 	nop
D:\loongson\works\ls1d-mylib\lib\test/cmd.c:412
bfc044f8:	24040040 	li	a0,64
bfc044fc:	24050008 	li	a1,8
bfc04500:	24060006 	li	a2,6
bfc04504:	3c02bfc0 	lui	v0,0xbfc0
bfc04508:	24595720 	addiu	t9,v0,22304
bfc0450c:	0320f809 	jalr	t9
bfc04510:	00000000 	nop
bfc04514:	0bf01169 	j	bfc045a4 <eeprom_test+0xdc>
bfc04518:	00000000 	nop
D:\loongson\works\ls1d-mylib\lib\test/cmd.c:414
bfc0451c:	8fc20024 	lw	v0,36(s8)
bfc04520:	24420004 	addiu	v0,v0,4
bfc04524:	8c420000 	lw	v0,0(v0)
bfc04528:	00402021 	move	a0,v0
bfc0452c:	3c02bfc1 	lui	v0,0xbfc1
bfc04530:	2459b178 	addiu	t9,v0,-20104
bfc04534:	0320f809 	jalr	t9
bfc04538:	00000000 	nop
bfc0453c:	304200ff 	andi	v0,v0,0xff
bfc04540:	00408021 	move	s0,v0
bfc04544:	8fc20024 	lw	v0,36(s8)
bfc04548:	24420008 	addiu	v0,v0,8
bfc0454c:	8c420000 	lw	v0,0(v0)
bfc04550:	00402021 	move	a0,v0
bfc04554:	3c02bfc1 	lui	v0,0xbfc1
bfc04558:	2459b178 	addiu	t9,v0,-20104
bfc0455c:	0320f809 	jalr	t9
bfc04560:	00000000 	nop
bfc04564:	00408821 	move	s1,v0
bfc04568:	8fc20024 	lw	v0,36(s8)
bfc0456c:	2442000c 	addiu	v0,v0,12
bfc04570:	8c420000 	lw	v0,0(v0)
bfc04574:	00402021 	move	a0,v0
bfc04578:	3c02bfc1 	lui	v0,0xbfc1
bfc0457c:	2459b178 	addiu	t9,v0,-20104
bfc04580:	0320f809 	jalr	t9
bfc04584:	00000000 	nop
bfc04588:	02002021 	move	a0,s0
bfc0458c:	02202821 	move	a1,s1
bfc04590:	00403021 	move	a2,v0
bfc04594:	3c02bfc0 	lui	v0,0xbfc0
bfc04598:	24595720 	addiu	t9,v0,22304
bfc0459c:	0320f809 	jalr	t9
bfc045a0:	00000000 	nop
D:\loongson\works\ls1d-mylib\lib\test/cmd.c:416
bfc045a4:	00001021 	move	v0,zero
D:\loongson\works\ls1d-mylib\lib\test/cmd.c:417
bfc045a8:	03c0e821 	move	sp,s8
bfc045ac:	8fbf001c 	lw	ra,28(sp)
bfc045b0:	8fbe0018 	lw	s8,24(sp)
bfc045b4:	8fb10014 	lw	s1,20(sp)
bfc045b8:	8fb00010 	lw	s0,16(sp)
bfc045bc:	27bd0020 	addiu	sp,sp,32
bfc045c0:	03e00008 	jr	ra
bfc045c4:	00000000 	nop

bfc045c8 <iic_test>:
iic_test():
D:\loongson\works\ls1d-mylib\lib\test/cmd.c:420
bfc045c8:	27bdffd0 	addiu	sp,sp,-48
bfc045cc:	afbf002c 	sw	ra,44(sp)
bfc045d0:	afbe0028 	sw	s8,40(sp)
bfc045d4:	03a0f021 	move	s8,sp
bfc045d8:	afc40030 	sw	a0,48(s8)
bfc045dc:	afc50034 	sw	a1,52(s8)
D:\loongson\works\ls1d-mylib\lib\test/cmd.c:421
bfc045e0:	8fc20030 	lw	v0,48(s8)
bfc045e4:	28420002 	slti	v0,v0,2
bfc045e8:	10400010 	beqz	v0,bfc0462c <iic_test+0x64>
bfc045ec:	00000000 	nop
D:\loongson\works\ls1d-mylib\lib\test/cmd.c:423
bfc045f0:	3c02a000 	lui	v0,0xa000
bfc045f4:	8c421258 	lw	v0,4696(v0)
bfc045f8:	2c420002 	sltiu	v0,v0,2
bfc045fc:	14400007 	bnez	v0,bfc0461c <iic_test+0x54>
bfc04600:	00000000 	nop
bfc04604:	3c02bfc1 	lui	v0,0xbfc1
bfc04608:	2444c990 	addiu	a0,v0,-13936
bfc0460c:	3c02bfc1 	lui	v0,0xbfc1
bfc04610:	2459be10 	addiu	t9,v0,-16880
bfc04614:	0320f809 	jalr	t9
bfc04618:	00000000 	nop
D:\loongson\works\ls1d-mylib\lib\test/cmd.c:424
bfc0461c:	24020001 	li	v0,1
bfc04620:	afc20020 	sw	v0,32(s8)
bfc04624:	0bf011ea 	j	bfc047a8 <iic_test+0x1e0>
bfc04628:	00000000 	nop
D:\loongson\works\ls1d-mylib\lib\test/cmd.c:428
bfc0462c:	8fc20034 	lw	v0,52(s8)
bfc04630:	24420004 	addiu	v0,v0,4
bfc04634:	8c420000 	lw	v0,0(v0)
bfc04638:	afc2001c 	sw	v0,28(s8)
D:\loongson\works\ls1d-mylib\lib\test/cmd.c:429
bfc0463c:	3c02bfc1 	lui	v0,0xbfc1
bfc04640:	2442c9b0 	addiu	v0,v0,-13904
bfc04644:	afc20018 	sw	v0,24(s8)
D:\loongson\works\ls1d-mylib\lib\test/cmd.c:430
bfc04648:	3c02bfc1 	lui	v0,0xbfc1
bfc0464c:	2442c9b8 	addiu	v0,v0,-13896
bfc04650:	afc20014 	sw	v0,20(s8)
D:\loongson\works\ls1d-mylib\lib\test/cmd.c:432
bfc04654:	2402007f 	li	v0,127
bfc04658:	a3c20010 	sb	v0,16(s8)
D:\loongson\works\ls1d-mylib\lib\test/cmd.c:433
bfc0465c:	8fc4001c 	lw	a0,28(s8)
bfc04660:	8fc50018 	lw	a1,24(s8)
bfc04664:	3c02bfc1 	lui	v0,0xbfc1
bfc04668:	2459bd50 	addiu	t9,v0,-17072
bfc0466c:	0320f809 	jalr	t9
bfc04670:	00000000 	nop
bfc04674:	14400022 	bnez	v0,bfc04700 <iic_test+0x138>
bfc04678:	00000000 	nop
D:\loongson\works\ls1d-mylib\lib\test/cmd.c:435
bfc0467c:	3c02a000 	lui	v0,0xa000
bfc04680:	24421030 	addiu	v0,v0,4144
bfc04684:	8c5900fc 	lw	t9,252(v0)
bfc04688:	24042710 	li	a0,10000
bfc0468c:	0320f809 	jalr	t9
bfc04690:	00000000 	nop
D:\loongson\works\ls1d-mylib\lib\test/cmd.c:436
bfc04694:	3c02a000 	lui	v0,0xa000
bfc04698:	8c421258 	lw	v0,4696(v0)
bfc0469c:	2c420002 	sltiu	v0,v0,2
bfc046a0:	14400012 	bnez	v0,bfc046ec <iic_test+0x124>
bfc046a4:	00000000 	nop
bfc046a8:	3c02bfc1 	lui	v0,0xbfc1
bfc046ac:	2444c9c0 	addiu	a0,v0,-13888
bfc046b0:	3c02bfc1 	lui	v0,0xbfc1
bfc046b4:	2459bcb0 	addiu	t9,v0,-17232
bfc046b8:	0320f809 	jalr	t9
bfc046bc:	00000000 	nop
bfc046c0:	0bf011bb 	j	bfc046ec <iic_test+0x124>
bfc046c4:	00000000 	nop
D:\loongson\works\ls1d-mylib\lib\test/cmd.c:438
bfc046c8:	93c20010 	lbu	v0,16(s8)
bfc046cc:	00402021 	move	a0,v0
bfc046d0:	3c02bfc0 	lui	v0,0xbfc0
bfc046d4:	24594d30 	addiu	t9,v0,19760
bfc046d8:	0320f809 	jalr	t9
bfc046dc:	00000000 	nop
D:\loongson\works\ls1d-mylib\lib\test/cmd.c:439
bfc046e0:	93c20010 	lbu	v0,16(s8)
bfc046e4:	2442ffff 	addiu	v0,v0,-1
bfc046e8:	a3c20010 	sb	v0,16(s8)
D:\loongson\works\ls1d-mylib\lib\test/cmd.c:437
bfc046ec:	83c20010 	lb	v0,16(s8)
bfc046f0:	0441fff5 	bgez	v0,bfc046c8 <iic_test+0x100>
bfc046f4:	00000000 	nop
bfc046f8:	0bf011e9 	j	bfc047a4 <iic_test+0x1dc>
bfc046fc:	00000000 	nop
D:\loongson\works\ls1d-mylib\lib\test/cmd.c:442
bfc04700:	8fc4001c 	lw	a0,28(s8)
bfc04704:	8fc50014 	lw	a1,20(s8)
bfc04708:	3c02bfc1 	lui	v0,0xbfc1
bfc0470c:	2459bd50 	addiu	t9,v0,-17072
bfc04710:	0320f809 	jalr	t9
bfc04714:	00000000 	nop
bfc04718:	14400017 	bnez	v0,bfc04778 <iic_test+0x1b0>
bfc0471c:	00000000 	nop
D:\loongson\works\ls1d-mylib\lib\test/cmd.c:444
bfc04720:	3c02a000 	lui	v0,0xa000
bfc04724:	24421030 	addiu	v0,v0,4144
bfc04728:	8c590100 	lw	t9,256(v0)
bfc0472c:	93c20010 	lbu	v0,16(s8)
bfc04730:	00402021 	move	a0,v0
bfc04734:	0320f809 	jalr	t9
bfc04738:	00000000 	nop
D:\loongson\works\ls1d-mylib\lib\test/cmd.c:445
bfc0473c:	3c02a000 	lui	v0,0xa000
bfc04740:	8c421258 	lw	v0,4696(v0)
bfc04744:	2c420002 	sltiu	v0,v0,2
bfc04748:	14400016 	bnez	v0,bfc047a4 <iic_test+0x1dc>
bfc0474c:	00000000 	nop
bfc04750:	83c30010 	lb	v1,16(s8)
bfc04754:	3c02bfc1 	lui	v0,0xbfc1
bfc04758:	2444c9d4 	addiu	a0,v0,-13868
bfc0475c:	00602821 	move	a1,v1
bfc04760:	3c02bfc1 	lui	v0,0xbfc1
bfc04764:	2459be10 	addiu	t9,v0,-16880
bfc04768:	0320f809 	jalr	t9
bfc0476c:	00000000 	nop
bfc04770:	0bf011e9 	j	bfc047a4 <iic_test+0x1dc>
bfc04774:	00000000 	nop
D:\loongson\works\ls1d-mylib\lib\test/cmd.c:449
bfc04778:	3c02a000 	lui	v0,0xa000
bfc0477c:	8c421258 	lw	v0,4696(v0)
bfc04780:	2c420002 	sltiu	v0,v0,2
bfc04784:	14400007 	bnez	v0,bfc047a4 <iic_test+0x1dc>
bfc04788:	00000000 	nop
bfc0478c:	3c02bfc1 	lui	v0,0xbfc1
bfc04790:	2444c990 	addiu	a0,v0,-13936
bfc04794:	3c02bfc1 	lui	v0,0xbfc1
bfc04798:	2459be10 	addiu	t9,v0,-16880
bfc0479c:	0320f809 	jalr	t9
bfc047a0:	00000000 	nop
D:\loongson\works\ls1d-mylib\lib\test/cmd.c:453
bfc047a4:	afc00020 	sw	zero,32(s8)
bfc047a8:	8fc20020 	lw	v0,32(s8)
D:\loongson\works\ls1d-mylib\lib\test/cmd.c:454
bfc047ac:	03c0e821 	move	sp,s8
bfc047b0:	8fbf002c 	lw	ra,44(sp)
bfc047b4:	8fbe0028 	lw	s8,40(sp)
bfc047b8:	27bd0030 	addiu	sp,sp,48
bfc047bc:	03e00008 	jr	ra
bfc047c0:	00000000 	nop

bfc047c4 <exint_test>:
exint_test():
D:\loongson\works\ls1d-mylib\lib\test/cmd.c:457
bfc047c4:	27bdffd0 	addiu	sp,sp,-48
bfc047c8:	afbf002c 	sw	ra,44(sp)
bfc047cc:	afbe0028 	sw	s8,40(sp)
bfc047d0:	03a0f021 	move	s8,sp
bfc047d4:	afc40030 	sw	a0,48(s8)
bfc047d8:	afc50034 	sw	a1,52(s8)
D:\loongson\works\ls1d-mylib\lib\test/cmd.c:458
bfc047dc:	8fc20030 	lw	v0,48(s8)
bfc047e0:	28420002 	slti	v0,v0,2
bfc047e4:	1040000f 	beqz	v0,bfc04824 <exint_test+0x60>
bfc047e8:	00000000 	nop
D:\loongson\works\ls1d-mylib\lib\test/cmd.c:460
bfc047ec:	3c02a000 	lui	v0,0xa000
bfc047f0:	8c421258 	lw	v0,4696(v0)
bfc047f4:	2c420002 	sltiu	v0,v0,2
bfc047f8:	14400007 	bnez	v0,bfc04818 <exint_test+0x54>
bfc047fc:	00000000 	nop
bfc04800:	3c02bfc1 	lui	v0,0xbfc1
bfc04804:	2444c9f4 	addiu	a0,v0,-13836
bfc04808:	3c02bfc1 	lui	v0,0xbfc1
bfc0480c:	2459be10 	addiu	t9,v0,-16880
bfc04810:	0320f809 	jalr	t9
bfc04814:	00000000 	nop
D:\loongson\works\ls1d-mylib\lib\test/cmd.c:461
bfc04818:	24020001 	li	v0,1
bfc0481c:	0bf012a3 	j	bfc04a8c <exint_test+0x2c8>
bfc04820:	afc20020 	sw	v0,32(s8)
D:\loongson\works\ls1d-mylib\lib\test/cmd.c:465
bfc04824:	8fc20034 	lw	v0,52(s8)
bfc04828:	24420004 	addiu	v0,v0,4
bfc0482c:	8c420000 	lw	v0,0(v0)
bfc04830:	afc2001c 	sw	v0,28(s8)
D:\loongson\works\ls1d-mylib\lib\test/cmd.c:466
bfc04834:	3c02bfc1 	lui	v0,0xbfc1
bfc04838:	2442c800 	addiu	v0,v0,-14336
bfc0483c:	afc20018 	sw	v0,24(s8)
D:\loongson\works\ls1d-mylib\lib\test/cmd.c:467
bfc04840:	3c02bfc1 	lui	v0,0xbfc1
bfc04844:	2442c804 	addiu	v0,v0,-14332
bfc04848:	afc20014 	sw	v0,20(s8)
D:\loongson\works\ls1d-mylib\lib\test/cmd.c:469
bfc0484c:	8fc4001c 	lw	a0,28(s8)
bfc04850:	8fc50018 	lw	a1,24(s8)
bfc04854:	3c02bfc1 	lui	v0,0xbfc1
bfc04858:	2459bd50 	addiu	t9,v0,-17072
bfc0485c:	0320f809 	jalr	t9
bfc04860:	00000000 	nop
bfc04864:	14400052 	bnez	v0,bfc049b0 <exint_test+0x1ec>
bfc04868:	00000000 	nop
D:\loongson\works\ls1d-mylib\lib\test/cmd.c:471
bfc0486c:	40086000 	mfc0	t0,c0_status
bfc04870:	3c09ffff 	lui	t1,0xffff
bfc04874:	352900fe 	ori	t1,t1,0xfe
bfc04878:	01095024 	and	t2,t0,t1
bfc0487c:	408a6000 	mtc0	t2,c0_status
D:\loongson\works\ls1d-mylib\lib\test/cmd.c:474
bfc04880:	3c02bfeb 	lui	v0,0xbfeb
bfc04884:	3443007c 	ori	v1,v0,0x7c
bfc04888:	3c0215da 	lui	v0,0x15da
bfc0488c:	3442ed27 	ori	v0,v0,0xed27
bfc04890:	ac620000 	sw	v0,0(v1)
D:\loongson\works\ls1d-mylib\lib\test/cmd.c:475
bfc04894:	3c02bfeb 	lui	v0,0xbfeb
bfc04898:	3443000c 	ori	v1,v0,0xc
bfc0489c:	3c02bfeb 	lui	v0,0xbfeb
bfc048a0:	3442000c 	ori	v0,v0,0xc
bfc048a4:	8c420000 	lw	v0,0(v0)
bfc048a8:	344200c7 	ori	v0,v0,0xc7
bfc048ac:	ac620000 	sw	v0,0(v1)
D:\loongson\works\ls1d-mylib\lib\test/cmd.c:476
bfc048b0:	3c02bfeb 	lui	v0,0xbfeb
bfc048b4:	34420048 	ori	v0,v0,0x48
bfc048b8:	ac400000 	sw	zero,0(v0)
D:\loongson\works\ls1d-mylib\lib\test/cmd.c:477
bfc048bc:	3c02bfeb 	lui	v0,0xbfeb
bfc048c0:	3442004c 	ori	v0,v0,0x4c
bfc048c4:	ac400000 	sw	zero,0(v0)
D:\loongson\works\ls1d-mylib\lib\test/cmd.c:479
bfc048c8:	3c02bfeb 	lui	v0,0xbfeb
bfc048cc:	34440010 	ori	a0,v0,0x10
bfc048d0:	3c02bfeb 	lui	v0,0xbfeb
bfc048d4:	34420010 	ori	v0,v0,0x10
bfc048d8:	8c430000 	lw	v1,0(v0)
bfc048dc:	3c02ffff 	lui	v0,0xffff
bfc048e0:	34420700 	ori	v0,v0,0x700
bfc048e4:	00621024 	and	v0,v1,v0
bfc048e8:	ac820000 	sw	v0,0(a0)
D:\loongson\works\ls1d-mylib\lib\test/cmd.c:480
bfc048ec:	3c02bfeb 	lui	v0,0xbfeb
bfc048f0:	34420018 	ori	v0,v0,0x18
bfc048f4:	8c420000 	lw	v0,0(v0)
bfc048f8:	3042ffff 	andi	v0,v0,0xffff
bfc048fc:	afc20010 	sw	v0,16(s8)
D:\loongson\works\ls1d-mylib\lib\test/cmd.c:481
bfc04900:	3c02bfeb 	lui	v0,0xbfeb
bfc04904:	34430040 	ori	v1,v0,0x40
bfc04908:	8fc20010 	lw	v0,16(s8)
bfc0490c:	00021400 	sll	v0,v0,0x10
bfc04910:	3442f8ff 	ori	v0,v0,0xf8ff
bfc04914:	ac620000 	sw	v0,0(v1)
D:\loongson\works\ls1d-mylib\lib\test/cmd.c:482
bfc04918:	3c02bfeb 	lui	v0,0xbfeb
bfc0491c:	34430044 	ori	v1,v0,0x44
bfc04920:	3c02f8ff 	lui	v0,0xf8ff
bfc04924:	3442ffff 	ori	v0,v0,0xffff
bfc04928:	ac620000 	sw	v0,0(v1)
D:\loongson\works\ls1d-mylib\lib\test/cmd.c:483
bfc0492c:	3c02bfeb 	lui	v0,0xbfeb
bfc04930:	3443007c 	ori	v1,v0,0x7c
bfc04934:	3c02cf21 	lui	v0,0xcf21
bfc04938:	34426e95 	ori	v0,v0,0x6e95
bfc0493c:	ac620000 	sw	v0,0(v1)
D:\loongson\works\ls1d-mylib\lib\test/cmd.c:484
bfc04940:	3c02bfeb 	lui	v0,0xbfeb
bfc04944:	34440004 	ori	a0,v0,0x4
bfc04948:	3c02bfeb 	lui	v0,0xbfeb
bfc0494c:	34420004 	ori	v0,v0,0x4
bfc04950:	8c430000 	lw	v1,0(v0)
bfc04954:	3c020020 	lui	v0,0x20
bfc04958:	00621025 	or	v0,v1,v0
bfc0495c:	ac820000 	sw	v0,0(a0)
D:\loongson\works\ls1d-mylib\lib\test/cmd.c:485
bfc04960:	40086000 	mfc0	t0,c0_status
bfc04964:	3c09ffff 	lui	t1,0xffff
bfc04968:	352900fe 	ori	t1,t1,0xfe
bfc0496c:	01095024 	and	t2,t0,t1
bfc04970:	3409ff01 	li	t1,0xff01
bfc04974:	01494025 	or	t0,t2,t1
bfc04978:	40886000 	mtc0	t0,c0_status
D:\loongson\works\ls1d-mylib\lib\test/cmd.c:486
bfc0497c:	3c02bfeb 	lui	v0,0xbfeb
bfc04980:	3443007c 	ori	v1,v0,0x7c
bfc04984:	3c02cf21 	lui	v0,0xcf21
bfc04988:	34426e95 	ori	v0,v0,0x6e95
bfc0498c:	ac620000 	sw	v0,0(v1)
D:\loongson\works\ls1d-mylib\lib\test/cmd.c:487
bfc04990:	3c02bfeb 	lui	v0,0xbfeb
bfc04994:	3443003c 	ori	v1,v0,0x3c
bfc04998:	3c02bfeb 	lui	v0,0xbfeb
bfc0499c:	3442003c 	ori	v0,v0,0x3c
bfc049a0:	8c420000 	lw	v0,0(v0)
bfc049a4:	34420001 	ori	v0,v0,0x1
bfc049a8:	0bf012a2 	j	bfc04a88 <exint_test+0x2c4>
bfc049ac:	ac620000 	sw	v0,0(v1)
D:\loongson\works\ls1d-mylib\lib\test/cmd.c:489
bfc049b0:	8fc4001c 	lw	a0,28(s8)
bfc049b4:	8fc50014 	lw	a1,20(s8)
bfc049b8:	3c02bfc1 	lui	v0,0xbfc1
bfc049bc:	2459bd50 	addiu	t9,v0,-17072
bfc049c0:	0320f809 	jalr	t9
bfc049c4:	00000000 	nop
bfc049c8:	14400024 	bnez	v0,bfc04a5c <exint_test+0x298>
bfc049cc:	00000000 	nop
D:\loongson\works\ls1d-mylib\lib\test/cmd.c:491
bfc049d0:	40086000 	mfc0	t0,c0_status
bfc049d4:	3c09ffff 	lui	t1,0xffff
bfc049d8:	352900fe 	ori	t1,t1,0xfe
bfc049dc:	01095024 	and	t2,t0,t1
bfc049e0:	408a6000 	mtc0	t2,c0_status
D:\loongson\works\ls1d-mylib\lib\test/cmd.c:492
bfc049e4:	3c02bfeb 	lui	v0,0xbfeb
bfc049e8:	3443007c 	ori	v1,v0,0x7c
bfc049ec:	3c02cf21 	lui	v0,0xcf21
bfc049f0:	34426e95 	ori	v0,v0,0x6e95
bfc049f4:	ac620000 	sw	v0,0(v1)
D:\loongson\works\ls1d-mylib\lib\test/cmd.c:493
bfc049f8:	3c02bfeb 	lui	v0,0xbfeb
bfc049fc:	34440004 	ori	a0,v0,0x4
bfc04a00:	3c02bfeb 	lui	v0,0xbfeb
bfc04a04:	34420004 	ori	v0,v0,0x4
bfc04a08:	8c430000 	lw	v1,0(v0)
bfc04a0c:	3c02ffdf 	lui	v0,0xffdf
bfc04a10:	3442ffff 	ori	v0,v0,0xffff
bfc04a14:	00621024 	and	v0,v1,v0
bfc04a18:	ac820000 	sw	v0,0(a0)
D:\loongson\works\ls1d-mylib\lib\test/cmd.c:494
bfc04a1c:	3c02bfeb 	lui	v0,0xbfeb
bfc04a20:	34440040 	ori	a0,v0,0x40
bfc04a24:	3c02bfeb 	lui	v0,0xbfeb
bfc04a28:	34420040 	ori	v0,v0,0x40
bfc04a2c:	8c430000 	lw	v1,0(v0)
bfc04a30:	3c02ffff 	lui	v0,0xffff
bfc04a34:	00621024 	and	v0,v1,v0
bfc04a38:	ac820000 	sw	v0,0(a0)
D:\loongson\works\ls1d-mylib\lib\test/cmd.c:495
bfc04a3c:	40086000 	mfc0	t0,c0_status
bfc04a40:	3c09ffff 	lui	t1,0xffff
bfc04a44:	352900fe 	ori	t1,t1,0xfe
bfc04a48:	01095024 	and	t2,t0,t1
bfc04a4c:	3409ff01 	li	t1,0xff01
bfc04a50:	01494025 	or	t0,t2,t1
bfc04a54:	0bf012a2 	j	bfc04a88 <exint_test+0x2c4>
bfc04a58:	40886000 	mtc0	t0,c0_status
D:\loongson\works\ls1d-mylib\lib\test/cmd.c:498
bfc04a5c:	3c02a000 	lui	v0,0xa000
bfc04a60:	8c421258 	lw	v0,4696(v0)
bfc04a64:	2c420002 	sltiu	v0,v0,2
bfc04a68:	14400007 	bnez	v0,bfc04a88 <exint_test+0x2c4>
bfc04a6c:	00000000 	nop
bfc04a70:	3c02bfc1 	lui	v0,0xbfc1
bfc04a74:	2444c9f4 	addiu	a0,v0,-13836
bfc04a78:	3c02bfc1 	lui	v0,0xbfc1
bfc04a7c:	2459be10 	addiu	t9,v0,-16880
bfc04a80:	0320f809 	jalr	t9
bfc04a84:	00000000 	nop
D:\loongson\works\ls1d-mylib\lib\test/cmd.c:501
bfc04a88:	afc00020 	sw	zero,32(s8)
bfc04a8c:	8fc20020 	lw	v0,32(s8)
D:\loongson\works\ls1d-mylib\lib\test/cmd.c:502
bfc04a90:	03c0e821 	move	sp,s8
bfc04a94:	8fbf002c 	lw	ra,44(sp)
bfc04a98:	8fbe0028 	lw	s8,40(sp)
bfc04a9c:	03e00008 	jr	ra
bfc04aa0:	27bd0030 	addiu	sp,sp,48

bfc04aa4 <batfail_test>:
batfail_test():
D:\loongson\works\ls1d-mylib\lib\test/cmd.c:505
bfc04aa4:	27bdffd8 	addiu	sp,sp,-40
bfc04aa8:	afbf0024 	sw	ra,36(sp)
bfc04aac:	afbe0020 	sw	s8,32(sp)
bfc04ab0:	03a0f021 	move	s8,sp
bfc04ab4:	afc40028 	sw	a0,40(s8)
bfc04ab8:	afc5002c 	sw	a1,44(s8)
D:\loongson\works\ls1d-mylib\lib\test/cmd.c:506
bfc04abc:	8fc20028 	lw	v0,40(s8)
bfc04ac0:	28420002 	slti	v0,v0,2
bfc04ac4:	1040000f 	beqz	v0,bfc04b04 <batfail_test+0x60>
bfc04ac8:	00000000 	nop
D:\loongson\works\ls1d-mylib\lib\test/cmd.c:508
bfc04acc:	3c02a000 	lui	v0,0xa000
bfc04ad0:	8c421258 	lw	v0,4696(v0)
bfc04ad4:	2c420002 	sltiu	v0,v0,2
bfc04ad8:	14400007 	bnez	v0,bfc04af8 <batfail_test+0x54>
bfc04adc:	00000000 	nop
bfc04ae0:	3c02bfc1 	lui	v0,0xbfc1
bfc04ae4:	2444ca10 	addiu	a0,v0,-13808
bfc04ae8:	3c02bfc1 	lui	v0,0xbfc1
bfc04aec:	2459be10 	addiu	t9,v0,-16880
bfc04af0:	0320f809 	jalr	t9
bfc04af4:	00000000 	nop
D:\loongson\works\ls1d-mylib\lib\test/cmd.c:509
bfc04af8:	24020001 	li	v0,1
bfc04afc:	0bf01346 	j	bfc04d18 <batfail_test+0x274>
bfc04b00:	afc20018 	sw	v0,24(s8)
D:\loongson\works\ls1d-mylib\lib\test/cmd.c:513
bfc04b04:	8fc2002c 	lw	v0,44(s8)
bfc04b08:	24420004 	addiu	v0,v0,4
bfc04b0c:	8c420000 	lw	v0,0(v0)
bfc04b10:	00402021 	move	a0,v0
bfc04b14:	3c02bfc1 	lui	v0,0xbfc1
bfc04b18:	2459b178 	addiu	t9,v0,-20104
bfc04b1c:	0320f809 	jalr	t9
bfc04b20:	00000000 	nop
bfc04b24:	afc20010 	sw	v0,16(s8)
D:\loongson\works\ls1d-mylib\lib\test/cmd.c:515
bfc04b28:	40086000 	mfc0	t0,c0_status
bfc04b2c:	3c09ffff 	lui	t1,0xffff
bfc04b30:	352900fe 	ori	t1,t1,0xfe
bfc04b34:	01095024 	and	t2,t0,t1
bfc04b38:	408a6000 	mtc0	t2,c0_status
D:\loongson\works\ls1d-mylib\lib\test/cmd.c:516
bfc04b3c:	8fc30010 	lw	v1,16(s8)
bfc04b40:	afc3001c 	sw	v1,28(s8)
bfc04b44:	24020001 	li	v0,1
bfc04b48:	8fc3001c 	lw	v1,28(s8)
bfc04b4c:	1062001c 	beq	v1,v0,bfc04bc0 <batfail_test+0x11c>
bfc04b50:	00000000 	nop
bfc04b54:	8fc3001c 	lw	v1,28(s8)
bfc04b58:	2c620001 	sltiu	v0,v1,1
bfc04b5c:	1440000b 	bnez	v0,bfc04b8c <batfail_test+0xe8>
bfc04b60:	00000000 	nop
bfc04b64:	24020002 	li	v0,2
bfc04b68:	8fc3001c 	lw	v1,28(s8)
bfc04b6c:	1062002b 	beq	v1,v0,bfc04c1c <batfail_test+0x178>
bfc04b70:	00000000 	nop
bfc04b74:	24020003 	li	v0,3
bfc04b78:	8fc3001c 	lw	v1,28(s8)
bfc04b7c:	1062003d 	beq	v1,v0,bfc04c74 <batfail_test+0x1d0>
bfc04b80:	00000000 	nop
bfc04b84:	0bf01332 	j	bfc04cc8 <batfail_test+0x224>
bfc04b88:	00000000 	nop
D:\loongson\works\ls1d-mylib\lib\test/cmd.c:518
bfc04b8c:	3c02bfeb 	lui	v0,0xbfeb
bfc04b90:	3443007c 	ori	v1,v0,0x7c
bfc04b94:	3c0215da 	lui	v0,0x15da
bfc04b98:	3442ed27 	ori	v0,v0,0xed27
bfc04b9c:	ac620000 	sw	v0,0(v1)
D:\loongson\works\ls1d-mylib\lib\test/cmd.c:519
bfc04ba0:	3c02bfeb 	lui	v0,0xbfeb
bfc04ba4:	3443000c 	ori	v1,v0,0xc
bfc04ba8:	3c02bfeb 	lui	v0,0xbfeb
bfc04bac:	3442000c 	ori	v0,v0,0xc
bfc04bb0:	8c420000 	lw	v0,0(v0)
bfc04bb4:	34420020 	ori	v0,v0,0x20
bfc04bb8:	0bf01332 	j	bfc04cc8 <batfail_test+0x224>
bfc04bbc:	ac620000 	sw	v0,0(v1)
D:\loongson\works\ls1d-mylib\lib\test/cmd.c:522
bfc04bc0:	3c02bfeb 	lui	v0,0xbfeb
bfc04bc4:	3443007c 	ori	v1,v0,0x7c
bfc04bc8:	3c0215da 	lui	v0,0x15da
bfc04bcc:	3442ed27 	ori	v0,v0,0xed27
bfc04bd0:	ac620000 	sw	v0,0(v1)
D:\loongson\works\ls1d-mylib\lib\test/cmd.c:523
bfc04bd4:	3c02bfeb 	lui	v0,0xbfeb
bfc04bd8:	3444000c 	ori	a0,v0,0xc
bfc04bdc:	3c02bfeb 	lui	v0,0xbfeb
bfc04be0:	3442000c 	ori	v0,v0,0xc
bfc04be4:	8c430000 	lw	v1,0(v0)
bfc04be8:	3c020008 	lui	v0,0x8
bfc04bec:	34420040 	ori	v0,v0,0x40
bfc04bf0:	00621025 	or	v0,v1,v0
bfc04bf4:	ac820000 	sw	v0,0(a0)
D:\loongson\works\ls1d-mylib\lib\test/cmd.c:524
bfc04bf8:	3c02bfeb 	lui	v0,0xbfeb
bfc04bfc:	34440010 	ori	a0,v0,0x10
bfc04c00:	3c02bfeb 	lui	v0,0xbfeb
bfc04c04:	34420010 	ori	v0,v0,0x10
bfc04c08:	8c430000 	lw	v1,0(v0)
bfc04c0c:	2402efff 	li	v0,-4097
bfc04c10:	00621024 	and	v0,v1,v0
bfc04c14:	0bf01332 	j	bfc04cc8 <batfail_test+0x224>
bfc04c18:	ac820000 	sw	v0,0(a0)
D:\loongson\works\ls1d-mylib\lib\test/cmd.c:527
bfc04c1c:	3c02bfeb 	lui	v0,0xbfeb
bfc04c20:	3443007c 	ori	v1,v0,0x7c
bfc04c24:	3c0215da 	lui	v0,0x15da
bfc04c28:	3442ed27 	ori	v0,v0,0xed27
bfc04c2c:	ac620000 	sw	v0,0(v1)
D:\loongson\works\ls1d-mylib\lib\test/cmd.c:528
bfc04c30:	3c02bfeb 	lui	v0,0xbfeb
bfc04c34:	3444000c 	ori	a0,v0,0xc
bfc04c38:	3c02bfeb 	lui	v0,0xbfeb
bfc04c3c:	3442000c 	ori	v0,v0,0xc
bfc04c40:	8c430000 	lw	v1,0(v0)
bfc04c44:	3c020010 	lui	v0,0x10
bfc04c48:	00621025 	or	v0,v1,v0
bfc04c4c:	ac820000 	sw	v0,0(a0)
D:\loongson\works\ls1d-mylib\lib\test/cmd.c:529
bfc04c50:	3c02bfeb 	lui	v0,0xbfeb
bfc04c54:	34440010 	ori	a0,v0,0x10
bfc04c58:	3c02bfeb 	lui	v0,0xbfeb
bfc04c5c:	34420010 	ori	v0,v0,0x10
bfc04c60:	8c430000 	lw	v1,0(v0)
bfc04c64:	2402fffe 	li	v0,-2
bfc04c68:	00621024 	and	v0,v1,v0
bfc04c6c:	0bf01332 	j	bfc04cc8 <batfail_test+0x224>
bfc04c70:	ac820000 	sw	v0,0(a0)
D:\loongson\works\ls1d-mylib\lib\test/cmd.c:532
bfc04c74:	3c02bfeb 	lui	v0,0xbfeb
bfc04c78:	3443007c 	ori	v1,v0,0x7c
bfc04c7c:	3c0215da 	lui	v0,0x15da
bfc04c80:	3442ed27 	ori	v0,v0,0xed27
bfc04c84:	ac620000 	sw	v0,0(v1)
D:\loongson\works\ls1d-mylib\lib\test/cmd.c:533
bfc04c88:	3c02bfeb 	lui	v0,0xbfeb
bfc04c8c:	3444000c 	ori	a0,v0,0xc
bfc04c90:	3c02bfeb 	lui	v0,0xbfeb
bfc04c94:	3442000c 	ori	v0,v0,0xc
bfc04c98:	8c430000 	lw	v1,0(v0)
bfc04c9c:	3c020018 	lui	v0,0x18
bfc04ca0:	00621025 	or	v0,v1,v0
bfc04ca4:	ac820000 	sw	v0,0(a0)
D:\loongson\works\ls1d-mylib\lib\test/cmd.c:534
bfc04ca8:	3c02bfeb 	lui	v0,0xbfeb
bfc04cac:	34440010 	ori	a0,v0,0x10
bfc04cb0:	3c02bfeb 	lui	v0,0xbfeb
bfc04cb4:	34420010 	ori	v0,v0,0x10
bfc04cb8:	8c430000 	lw	v1,0(v0)
bfc04cbc:	2402fffd 	li	v0,-3
bfc04cc0:	00621024 	and	v0,v1,v0
bfc04cc4:	ac820000 	sw	v0,0(a0)
D:\loongson\works\ls1d-mylib\lib\test/cmd.c:539
bfc04cc8:	3c02bfeb 	lui	v0,0xbfeb
bfc04ccc:	3443007c 	ori	v1,v0,0x7c
bfc04cd0:	3c02cf21 	lui	v0,0xcf21
bfc04cd4:	34426e95 	ori	v0,v0,0x6e95
bfc04cd8:	ac620000 	sw	v0,0(v1)
D:\loongson\works\ls1d-mylib\lib\test/cmd.c:540
bfc04cdc:	3c02bfeb 	lui	v0,0xbfeb
bfc04ce0:	34430004 	ori	v1,v0,0x4
bfc04ce4:	3c02bfeb 	lui	v0,0xbfeb
bfc04ce8:	34420004 	ori	v0,v0,0x4
bfc04cec:	8c420000 	lw	v0,0(v0)
bfc04cf0:	34424000 	ori	v0,v0,0x4000
bfc04cf4:	ac620000 	sw	v0,0(v1)
D:\loongson\works\ls1d-mylib\lib\test/cmd.c:541
bfc04cf8:	40086000 	mfc0	t0,c0_status
bfc04cfc:	3c09ffff 	lui	t1,0xffff
bfc04d00:	352900fe 	ori	t1,t1,0xfe
bfc04d04:	01095024 	and	t2,t0,t1
bfc04d08:	3409ff01 	li	t1,0xff01
bfc04d0c:	01494025 	or	t0,t2,t1
bfc04d10:	40886000 	mtc0	t0,c0_status
D:\loongson\works\ls1d-mylib\lib\test/cmd.c:555
bfc04d14:	afc00018 	sw	zero,24(s8)
bfc04d18:	8fc20018 	lw	v0,24(s8)
D:\loongson\works\ls1d-mylib\lib\test/cmd.c:556
bfc04d1c:	03c0e821 	move	sp,s8
bfc04d20:	8fbf0024 	lw	ra,36(sp)
bfc04d24:	8fbe0020 	lw	s8,32(sp)
bfc04d28:	03e00008 	jr	ra
bfc04d2c:	27bd0028 	addiu	sp,sp,40

bfc04d30 <IIC_test_cycle>:
IIC_test_cycle():
D:\loongson\works\ls1d-mylib\lib\test/i2c-test.c:11
bfc04d30:	27bdffd8 	addiu	sp,sp,-40
bfc04d34:	afbf0024 	sw	ra,36(sp)
bfc04d38:	afbe0020 	sw	s8,32(sp)
bfc04d3c:	03a0f021 	move	s8,sp
bfc04d40:	00801021 	move	v0,a0
bfc04d44:	a3c20028 	sb	v0,40(s8)
D:\loongson\works\ls1d-mylib\lib\test/i2c-test.c:14
bfc04d48:	2402ffa0 	li	v0,-96
bfc04d4c:	a3c2001f 	sb	v0,31(s8)
D:\loongson\works\ls1d-mylib\lib\test/i2c-test.c:15
bfc04d50:	2402ffa1 	li	v0,-95
bfc04d54:	a3c2001e 	sb	v0,30(s8)
D:\loongson\works\ls1d-mylib\lib\test/i2c-test.c:16
bfc04d58:	2402fff0 	li	v0,-16
bfc04d5c:	a3c2001d 	sb	v0,29(s8)
D:\loongson\works\ls1d-mylib\lib\test/i2c-test.c:17
bfc04d60:	93c20028 	lbu	v0,40(s8)
bfc04d64:	2442ffff 	addiu	v0,v0,-1
bfc04d68:	a3c2001c 	sb	v0,28(s8)
D:\loongson\works\ls1d-mylib\lib\test/i2c-test.c:19
bfc04d6c:	3c02a000 	lui	v0,0xa000
bfc04d70:	8c421258 	lw	v0,4696(v0)
bfc04d74:	2c420002 	sltiu	v0,v0,2
bfc04d78:	14400009 	bnez	v0,bfc04da0 <IIC_test_cycle+0x70>
bfc04d7c:	00000000 	nop
bfc04d80:	93c30028 	lbu	v1,40(s8)
bfc04d84:	3c02bfc1 	lui	v0,0xbfc1
bfc04d88:	2444ca50 	addiu	a0,v0,-13744
bfc04d8c:	00602821 	move	a1,v1
bfc04d90:	3c02bfc1 	lui	v0,0xbfc1
bfc04d94:	2459be10 	addiu	t9,v0,-16880
bfc04d98:	0320f809 	jalr	t9
bfc04d9c:	00000000 	nop
D:\loongson\works\ls1d-mylib\lib\test/i2c-test.c:21
bfc04da0:	3c02a000 	lui	v0,0xa000
bfc04da4:	8c421258 	lw	v0,4696(v0)
bfc04da8:	2c420003 	sltiu	v0,v0,3
bfc04dac:	14400007 	bnez	v0,bfc04dcc <IIC_test_cycle+0x9c>
bfc04db0:	00000000 	nop
bfc04db4:	3c02bfc1 	lui	v0,0xbfc1
bfc04db8:	2444ca74 	addiu	a0,v0,-13708
bfc04dbc:	3c02bfc1 	lui	v0,0xbfc1
bfc04dc0:	2459bcb0 	addiu	t9,v0,-17232
bfc04dc4:	0320f809 	jalr	t9
bfc04dc8:	00000000 	nop
D:\loongson\works\ls1d-mylib\lib\test/i2c-test.c:23
bfc04dcc:	3c02a000 	lui	v0,0xa000
bfc04dd0:	24421030 	addiu	v0,v0,4144
bfc04dd4:	8c590104 	lw	t9,260(v0)
bfc04dd8:	93c20028 	lbu	v0,40(s8)
bfc04ddc:	00402021 	move	a0,v0
bfc04de0:	24050001 	li	a1,1
bfc04de4:	0320f809 	jalr	t9
bfc04de8:	00000000 	nop
D:\loongson\works\ls1d-mylib\lib\test/i2c-test.c:24
bfc04dec:	3c02a000 	lui	v0,0xa000
bfc04df0:	24421030 	addiu	v0,v0,4144
bfc04df4:	8c590110 	lw	t9,272(v0)
bfc04df8:	0320f809 	jalr	t9
bfc04dfc:	00000000 	nop
bfc04e00:	a3c2001b 	sb	v0,27(s8)
D:\loongson\works\ls1d-mylib\lib\test/i2c-test.c:25
bfc04e04:	3c02a000 	lui	v0,0xa000
bfc04e08:	24421030 	addiu	v0,v0,4144
bfc04e0c:	8c590110 	lw	t9,272(v0)
bfc04e10:	0320f809 	jalr	t9
bfc04e14:	00000000 	nop
bfc04e18:	a3c2001a 	sb	v0,26(s8)
D:\loongson\works\ls1d-mylib\lib\test/i2c-test.c:26
bfc04e1c:	3c02a000 	lui	v0,0xa000
bfc04e20:	24421030 	addiu	v0,v0,4144
bfc04e24:	8c590110 	lw	t9,272(v0)
bfc04e28:	0320f809 	jalr	t9
bfc04e2c:	00000000 	nop
bfc04e30:	a3c20019 	sb	v0,25(s8)
D:\loongson\works\ls1d-mylib\lib\test/i2c-test.c:27
bfc04e34:	3c02a000 	lui	v0,0xa000
bfc04e38:	24421030 	addiu	v0,v0,4144
bfc04e3c:	8c590114 	lw	t9,276(v0)
bfc04e40:	0320f809 	jalr	t9
bfc04e44:	00000000 	nop
bfc04e48:	a3c20018 	sb	v0,24(s8)
D:\loongson\works\ls1d-mylib\lib\test/i2c-test.c:28
bfc04e4c:	3c02a000 	lui	v0,0xa000
bfc04e50:	8c421258 	lw	v0,4696(v0)
bfc04e54:	2c420004 	sltiu	v0,v0,4
bfc04e58:	1440000d 	bnez	v0,bfc04e90 <IIC_test_cycle+0x160>
bfc04e5c:	00000000 	nop
bfc04e60:	93c3001b 	lbu	v1,27(s8)
bfc04e64:	93c6001a 	lbu	a2,26(s8)
bfc04e68:	93c70019 	lbu	a3,25(s8)
bfc04e6c:	93c20018 	lbu	v0,24(s8)
bfc04e70:	afa20010 	sw	v0,16(sp)
bfc04e74:	3c02bfc1 	lui	v0,0xbfc1
bfc04e78:	2444ca94 	addiu	a0,v0,-13676
bfc04e7c:	00602821 	move	a1,v1
bfc04e80:	3c02bfc1 	lui	v0,0xbfc1
bfc04e84:	2459be10 	addiu	t9,v0,-16880
bfc04e88:	0320f809 	jalr	t9
bfc04e8c:	00000000 	nop
D:\loongson\works\ls1d-mylib\lib\test/i2c-test.c:30
bfc04e90:	3c02a000 	lui	v0,0xa000
bfc04e94:	24421030 	addiu	v0,v0,4144
bfc04e98:	8c590104 	lw	t9,260(v0)
bfc04e9c:	93c20028 	lbu	v0,40(s8)
bfc04ea0:	00402021 	move	a0,v0
bfc04ea4:	00002821 	move	a1,zero
bfc04ea8:	0320f809 	jalr	t9
bfc04eac:	00000000 	nop
D:\loongson\works\ls1d-mylib\lib\test/i2c-test.c:31
bfc04eb0:	3c02a000 	lui	v0,0xa000
bfc04eb4:	24421030 	addiu	v0,v0,4144
bfc04eb8:	8c590108 	lw	t9,264(v0)
bfc04ebc:	93c2001f 	lbu	v0,31(s8)
bfc04ec0:	00402021 	move	a0,v0
bfc04ec4:	0320f809 	jalr	t9
bfc04ec8:	00000000 	nop
D:\loongson\works\ls1d-mylib\lib\test/i2c-test.c:32
bfc04ecc:	3c02a000 	lui	v0,0xa000
bfc04ed0:	24421030 	addiu	v0,v0,4144
bfc04ed4:	8c590108 	lw	t9,264(v0)
bfc04ed8:	93c2001e 	lbu	v0,30(s8)
bfc04edc:	00402021 	move	a0,v0
bfc04ee0:	0320f809 	jalr	t9
bfc04ee4:	00000000 	nop
D:\loongson\works\ls1d-mylib\lib\test/i2c-test.c:33
bfc04ee8:	3c02a000 	lui	v0,0xa000
bfc04eec:	24421030 	addiu	v0,v0,4144
bfc04ef0:	8c590108 	lw	t9,264(v0)
bfc04ef4:	93c2001d 	lbu	v0,29(s8)
bfc04ef8:	00402021 	move	a0,v0
bfc04efc:	0320f809 	jalr	t9
bfc04f00:	00000000 	nop
D:\loongson\works\ls1d-mylib\lib\test/i2c-test.c:34
bfc04f04:	3c02a000 	lui	v0,0xa000
bfc04f08:	24421030 	addiu	v0,v0,4144
bfc04f0c:	8c59010c 	lw	t9,268(v0)
bfc04f10:	93c2001c 	lbu	v0,28(s8)
bfc04f14:	00402021 	move	a0,v0
bfc04f18:	0320f809 	jalr	t9
bfc04f1c:	00000000 	nop
D:\loongson\works\ls1d-mylib\lib\test/i2c-test.c:35
bfc04f20:	3c02a000 	lui	v0,0xa000
bfc04f24:	8c421258 	lw	v0,4696(v0)
bfc04f28:	2c420002 	sltiu	v0,v0,2
bfc04f2c:	1440000d 	bnez	v0,bfc04f64 <IIC_test_cycle+0x234>
bfc04f30:	00000000 	nop
bfc04f34:	93c3001f 	lbu	v1,31(s8)
bfc04f38:	93c6001e 	lbu	a2,30(s8)
bfc04f3c:	93c7001d 	lbu	a3,29(s8)
bfc04f40:	93c2001c 	lbu	v0,28(s8)
bfc04f44:	afa20010 	sw	v0,16(sp)
bfc04f48:	3c02bfc1 	lui	v0,0xbfc1
bfc04f4c:	2444cac8 	addiu	a0,v0,-13624
bfc04f50:	00602821 	move	a1,v1
bfc04f54:	3c02bfc1 	lui	v0,0xbfc1
bfc04f58:	2459be10 	addiu	t9,v0,-16880
bfc04f5c:	0320f809 	jalr	t9
bfc04f60:	00000000 	nop
D:\loongson\works\ls1d-mylib\lib\test/i2c-test.c:37
bfc04f64:	3c02a000 	lui	v0,0xa000
bfc04f68:	8c421258 	lw	v0,4696(v0)
bfc04f6c:	2c420002 	sltiu	v0,v0,2
bfc04f70:	14400007 	bnez	v0,bfc04f90 <IIC_test_cycle+0x260>
bfc04f74:	00000000 	nop
bfc04f78:	3c02bfc1 	lui	v0,0xbfc1
bfc04f7c:	2444caec 	addiu	a0,v0,-13588
bfc04f80:	3c02bfc1 	lui	v0,0xbfc1
bfc04f84:	2459bcb0 	addiu	t9,v0,-17232
bfc04f88:	0320f809 	jalr	t9
bfc04f8c:	00000000 	nop
D:\loongson\works\ls1d-mylib\lib\test/i2c-test.c:38
bfc04f90:	03c0e821 	move	sp,s8
bfc04f94:	8fbf0024 	lw	ra,36(sp)
bfc04f98:	8fbe0020 	lw	s8,32(sp)
bfc04f9c:	27bd0028 	addiu	sp,sp,40
bfc04fa0:	03e00008 	jr	ra
bfc04fa4:	00000000 	nop

bfc04fa8 <ls1d_iic_test>:
ls1d_iic_test():
D:\loongson\works\ls1d-mylib\lib\test/i2c-test.c:41
bfc04fa8:	27bdffc8 	addiu	sp,sp,-56
bfc04fac:	afbf0034 	sw	ra,52(sp)
bfc04fb0:	afbe0030 	sw	s8,48(sp)
bfc04fb4:	03a0f021 	move	s8,sp
D:\loongson\works\ls1d-mylib\lib\test/i2c-test.c:43
bfc04fb8:	3c02bfe9 	lui	v0,0xbfe9
bfc04fbc:	34420003 	ori	v0,v0,0x3
bfc04fc0:	90420000 	lbu	v0,0(v0)
bfc04fc4:	a3c20020 	sb	v0,32(s8)
D:\loongson\works\ls1d-mylib\lib\test/i2c-test.c:44
bfc04fc8:	93c20020 	lbu	v0,32(s8)
bfc04fcc:	304300fe 	andi	v1,v0,0xfe
bfc04fd0:	3c02bfe9 	lui	v0,0xbfe9
bfc04fd4:	34420007 	ori	v0,v0,0x7
bfc04fd8:	90420000 	lbu	v0,0(v0)
bfc04fdc:	304200ff 	andi	v0,v0,0xff
bfc04fe0:	00021040 	sll	v0,v0,0x1
bfc04fe4:	304200ff 	andi	v0,v0,0xff
bfc04fe8:	1062001c 	beq	v1,v0,bfc0505c <ls1d_iic_test+0xb4>
bfc04fec:	00000000 	nop
D:\loongson\works\ls1d-mylib\lib\test/i2c-test.c:46
bfc04ff0:	3c02a000 	lui	v0,0xa000
bfc04ff4:	8c421258 	lw	v0,4696(v0)
bfc04ff8:	2c420004 	sltiu	v0,v0,4
bfc04ffc:	1440000c 	bnez	v0,bfc05030 <ls1d_iic_test+0x88>
bfc05000:	00000000 	nop
bfc05004:	93c20020 	lbu	v0,32(s8)
bfc05008:	00021042 	srl	v0,v0,0x1
bfc0500c:	304200ff 	andi	v0,v0,0xff
bfc05010:	00401821 	move	v1,v0
bfc05014:	3c02bfc1 	lui	v0,0xbfc1
bfc05018:	2444cb3c 	addiu	a0,v0,-13508
bfc0501c:	00602821 	move	a1,v1
bfc05020:	3c02bfc1 	lui	v0,0xbfc1
bfc05024:	2459be10 	addiu	t9,v0,-16880
bfc05028:	0320f809 	jalr	t9
bfc0502c:	00000000 	nop
D:\loongson\works\ls1d-mylib\lib\test/i2c-test.c:47
bfc05030:	3c02bfe9 	lui	v0,0xbfe9
bfc05034:	34430002 	ori	v1,v0,0x2
bfc05038:	3c02bfe9 	lui	v0,0xbfe9
bfc0503c:	34420002 	ori	v0,v0,0x2
bfc05040:	90420000 	lbu	v0,0(v0)
bfc05044:	304200ff 	andi	v0,v0,0xff
bfc05048:	34420008 	ori	v0,v0,0x8
bfc0504c:	304200ff 	andi	v0,v0,0xff
bfc05050:	a0620000 	sb	v0,0(v1)
bfc05054:	0bf0152f 	j	bfc054bc <ls1d_iic_test+0x514>
bfc05058:	00000000 	nop
D:\loongson\works\ls1d-mylib\lib\test/i2c-test.c:50
bfc0505c:	3c02bfe9 	lui	v0,0xbfe9
bfc05060:	34430004 	ori	v1,v0,0x4
bfc05064:	24020001 	li	v0,1
bfc05068:	a0620000 	sb	v0,0(v1)
D:\loongson\works\ls1d-mylib\lib\test/i2c-test.c:51
bfc0506c:	3c02bfe9 	lui	v0,0xbfe9
bfc05070:	34430002 	ori	v1,v0,0x2
bfc05074:	3c02bfe9 	lui	v0,0xbfe9
bfc05078:	34420002 	ori	v0,v0,0x2
bfc0507c:	90420000 	lbu	v0,0(v0)
bfc05080:	304200ff 	andi	v0,v0,0xff
bfc05084:	34420008 	ori	v0,v0,0x8
bfc05088:	304200ff 	andi	v0,v0,0xff
bfc0508c:	a0620000 	sb	v0,0(v1)
D:\loongson\works\ls1d-mylib\lib\test/i2c-test.c:54
bfc05090:	2402ffa1 	li	v0,-95
bfc05094:	a3c2001b 	sb	v0,27(s8)
D:\loongson\works\ls1d-mylib\lib\test/i2c-test.c:55
bfc05098:	2402fff3 	li	v0,-13
bfc0509c:	a3c2001a 	sb	v0,26(s8)
D:\loongson\works\ls1d-mylib\lib\test/i2c-test.c:56
bfc050a0:	2402003f 	li	v0,63
bfc050a4:	a3c20019 	sb	v0,25(s8)
D:\loongson\works\ls1d-mylib\lib\test/i2c-test.c:57
bfc050a8:	2402ffa0 	li	v0,-96
bfc050ac:	a3c20018 	sb	v0,24(s8)
D:\loongson\works\ls1d-mylib\lib\test/i2c-test.c:59
bfc050b0:	93c20020 	lbu	v0,32(s8)
bfc050b4:	30420001 	andi	v0,v0,0x1
bfc050b8:	afc20028 	sw	v0,40(s8)
bfc050bc:	8fc20028 	lw	v0,40(s8)
bfc050c0:	10400007 	beqz	v0,bfc050e0 <ls1d_iic_test+0x138>
bfc050c4:	00000000 	nop
bfc050c8:	24020001 	li	v0,1
bfc050cc:	8fc30028 	lw	v1,40(s8)
bfc050d0:	10620086 	beq	v1,v0,bfc052ec <ls1d_iic_test+0x344>
bfc050d4:	00000000 	nop
bfc050d8:	0bf0152f 	j	bfc054bc <ls1d_iic_test+0x514>
bfc050dc:	00000000 	nop
D:\loongson\works\ls1d-mylib\lib\test/i2c-test.c:63
bfc050e0:	3c02bfe9 	lui	v0,0xbfe9
bfc050e4:	34420004 	ori	v0,v0,0x4
bfc050e8:	90420000 	lbu	v0,0(v0)
bfc050ec:	304200ff 	andi	v0,v0,0xff
bfc050f0:	30430081 	andi	v1,v0,0x81
bfc050f4:	24020001 	li	v0,1
bfc050f8:	1462fff9 	bne	v1,v0,bfc050e0 <ls1d_iic_test+0x138>
bfc050fc:	00000000 	nop
D:\loongson\works\ls1d-mylib\lib\test/i2c-test.c:64
bfc05100:	3c02bfe9 	lui	v0,0xbfe9
bfc05104:	34430004 	ori	v1,v0,0x4
bfc05108:	24020001 	li	v0,1
bfc0510c:	a0620000 	sb	v0,0(v1)
D:\loongson\works\ls1d-mylib\lib\test/i2c-test.c:65
bfc05110:	3c02bfe9 	lui	v0,0xbfe9
bfc05114:	34420003 	ori	v0,v0,0x3
bfc05118:	90420000 	lbu	v0,0(v0)
bfc0511c:	a3c2001f 	sb	v0,31(s8)
D:\loongson\works\ls1d-mylib\lib\test/i2c-test.c:66
bfc05120:	3c02bfe9 	lui	v0,0xbfe9
bfc05124:	34430002 	ori	v1,v0,0x2
bfc05128:	3c02bfe9 	lui	v0,0xbfe9
bfc0512c:	34420002 	ori	v0,v0,0x2
bfc05130:	90420000 	lbu	v0,0(v0)
bfc05134:	304200ff 	andi	v0,v0,0xff
bfc05138:	34420008 	ori	v0,v0,0x8
bfc0513c:	304200ff 	andi	v0,v0,0xff
bfc05140:	a0620000 	sb	v0,0(v1)
D:\loongson\works\ls1d-mylib\lib\test/i2c-test.c:68
bfc05144:	3c02bfe9 	lui	v0,0xbfe9
bfc05148:	34420004 	ori	v0,v0,0x4
bfc0514c:	90420000 	lbu	v0,0(v0)
bfc05150:	304200ff 	andi	v0,v0,0xff
bfc05154:	30430081 	andi	v1,v0,0x81
bfc05158:	24020001 	li	v0,1
bfc0515c:	1462fff9 	bne	v1,v0,bfc05144 <ls1d_iic_test+0x19c>
bfc05160:	00000000 	nop
D:\loongson\works\ls1d-mylib\lib\test/i2c-test.c:69
bfc05164:	3c02bfe9 	lui	v0,0xbfe9
bfc05168:	34430004 	ori	v1,v0,0x4
bfc0516c:	24020001 	li	v0,1
bfc05170:	a0620000 	sb	v0,0(v1)
D:\loongson\works\ls1d-mylib\lib\test/i2c-test.c:70
bfc05174:	3c02bfe9 	lui	v0,0xbfe9
bfc05178:	34420003 	ori	v0,v0,0x3
bfc0517c:	90420000 	lbu	v0,0(v0)
bfc05180:	a3c2001e 	sb	v0,30(s8)
D:\loongson\works\ls1d-mylib\lib\test/i2c-test.c:71
bfc05184:	3c02bfe9 	lui	v0,0xbfe9
bfc05188:	34430002 	ori	v1,v0,0x2
bfc0518c:	3c02bfe9 	lui	v0,0xbfe9
bfc05190:	34420002 	ori	v0,v0,0x2
bfc05194:	90420000 	lbu	v0,0(v0)
bfc05198:	304200ff 	andi	v0,v0,0xff
bfc0519c:	34420008 	ori	v0,v0,0x8
bfc051a0:	304200ff 	andi	v0,v0,0xff
bfc051a4:	a0620000 	sb	v0,0(v1)
D:\loongson\works\ls1d-mylib\lib\test/i2c-test.c:73
bfc051a8:	3c02bfe9 	lui	v0,0xbfe9
bfc051ac:	34420004 	ori	v0,v0,0x4
bfc051b0:	90420000 	lbu	v0,0(v0)
bfc051b4:	304200ff 	andi	v0,v0,0xff
bfc051b8:	30430081 	andi	v1,v0,0x81
bfc051bc:	24020001 	li	v0,1
bfc051c0:	1462fff9 	bne	v1,v0,bfc051a8 <ls1d_iic_test+0x200>
bfc051c4:	00000000 	nop
D:\loongson\works\ls1d-mylib\lib\test/i2c-test.c:74
bfc051c8:	3c02bfe9 	lui	v0,0xbfe9
bfc051cc:	34430004 	ori	v1,v0,0x4
bfc051d0:	24020001 	li	v0,1
bfc051d4:	a0620000 	sb	v0,0(v1)
D:\loongson\works\ls1d-mylib\lib\test/i2c-test.c:75
bfc051d8:	3c02bfe9 	lui	v0,0xbfe9
bfc051dc:	34420003 	ori	v0,v0,0x3
bfc051e0:	90420000 	lbu	v0,0(v0)
bfc051e4:	a3c2001d 	sb	v0,29(s8)
D:\loongson\works\ls1d-mylib\lib\test/i2c-test.c:76
bfc051e8:	3c02bfe9 	lui	v0,0xbfe9
bfc051ec:	34430002 	ori	v1,v0,0x2
bfc051f0:	3c02bfe9 	lui	v0,0xbfe9
bfc051f4:	34420002 	ori	v0,v0,0x2
bfc051f8:	90420000 	lbu	v0,0(v0)
bfc051fc:	304200ff 	andi	v0,v0,0xff
bfc05200:	34420008 	ori	v0,v0,0x8
bfc05204:	304200ff 	andi	v0,v0,0xff
bfc05208:	a0620000 	sb	v0,0(v1)
D:\loongson\works\ls1d-mylib\lib\test/i2c-test.c:78
bfc0520c:	3c02bfe9 	lui	v0,0xbfe9
bfc05210:	34420004 	ori	v0,v0,0x4
bfc05214:	90420000 	lbu	v0,0(v0)
bfc05218:	304200ff 	andi	v0,v0,0xff
bfc0521c:	30430081 	andi	v1,v0,0x81
bfc05220:	24020001 	li	v0,1
bfc05224:	1462fff9 	bne	v1,v0,bfc0520c <ls1d_iic_test+0x264>
bfc05228:	00000000 	nop
D:\loongson\works\ls1d-mylib\lib\test/i2c-test.c:79
bfc0522c:	3c02bfe9 	lui	v0,0xbfe9
bfc05230:	34430004 	ori	v1,v0,0x4
bfc05234:	24020001 	li	v0,1
bfc05238:	a0620000 	sb	v0,0(v1)
D:\loongson\works\ls1d-mylib\lib\test/i2c-test.c:80
bfc0523c:	3c02bfe9 	lui	v0,0xbfe9
bfc05240:	34420003 	ori	v0,v0,0x3
bfc05244:	90420000 	lbu	v0,0(v0)
bfc05248:	a3c2001c 	sb	v0,28(s8)
D:\loongson\works\ls1d-mylib\lib\test/i2c-test.c:81
bfc0524c:	3c02a000 	lui	v0,0xa000
bfc05250:	8c421258 	lw	v0,4696(v0)
bfc05254:	2c420004 	sltiu	v0,v0,4
bfc05258:	1440000d 	bnez	v0,bfc05290 <ls1d_iic_test+0x2e8>
bfc0525c:	00000000 	nop
bfc05260:	93c3001f 	lbu	v1,31(s8)
bfc05264:	93c6001e 	lbu	a2,30(s8)
bfc05268:	93c7001d 	lbu	a3,29(s8)
bfc0526c:	93c2001c 	lbu	v0,28(s8)
bfc05270:	afa20010 	sw	v0,16(sp)
bfc05274:	3c02bfc1 	lui	v0,0xbfc1
bfc05278:	2444cb4c 	addiu	a0,v0,-13492
bfc0527c:	00602821 	move	a1,v1
bfc05280:	3c02bfc1 	lui	v0,0xbfc1
bfc05284:	2459be10 	addiu	t9,v0,-16880
bfc05288:	0320f809 	jalr	t9
bfc0528c:	00000000 	nop
D:\loongson\works\ls1d-mylib\lib\test/i2c-test.c:82
bfc05290:	3c02bfe9 	lui	v0,0xbfe9
bfc05294:	34430007 	ori	v1,v0,0x7
bfc05298:	93c2001c 	lbu	v0,28(s8)
bfc0529c:	a0620000 	sb	v0,0(v1)
D:\loongson\works\ls1d-mylib\lib\test/i2c-test.c:83
bfc052a0:	3c02a000 	lui	v0,0xa000
bfc052a4:	8c421258 	lw	v0,4696(v0)
bfc052a8:	2c420003 	sltiu	v0,v0,3
bfc052ac:	14400083 	bnez	v0,bfc054bc <ls1d_iic_test+0x514>
bfc052b0:	00000000 	nop
bfc052b4:	3c02bfe9 	lui	v0,0xbfe9
bfc052b8:	34420007 	ori	v0,v0,0x7
bfc052bc:	90420000 	lbu	v0,0(v0)
bfc052c0:	304200ff 	andi	v0,v0,0xff
bfc052c4:	00401821 	move	v1,v0
bfc052c8:	3c02bfc1 	lui	v0,0xbfc1
bfc052cc:	2444cb88 	addiu	a0,v0,-13432
bfc052d0:	00602821 	move	a1,v1
bfc052d4:	3c02bfc1 	lui	v0,0xbfc1
bfc052d8:	2459be10 	addiu	t9,v0,-16880
bfc052dc:	0320f809 	jalr	t9
bfc052e0:	00000000 	nop
bfc052e4:	0bf0152f 	j	bfc054bc <ls1d_iic_test+0x514>
bfc052e8:	00000000 	nop
D:\loongson\works\ls1d-mylib\lib\test/i2c-test.c:88
bfc052ec:	3c02bfe9 	lui	v0,0xbfe9
bfc052f0:	34430003 	ori	v1,v0,0x3
bfc052f4:	93c2001b 	lbu	v0,27(s8)
bfc052f8:	a0620000 	sb	v0,0(v1)
D:\loongson\works\ls1d-mylib\lib\test/i2c-test.c:89
bfc052fc:	3c02bfe9 	lui	v0,0xbfe9
bfc05300:	34430002 	ori	v1,v0,0x2
bfc05304:	3c02bfe9 	lui	v0,0xbfe9
bfc05308:	34420002 	ori	v0,v0,0x2
bfc0530c:	90420000 	lbu	v0,0(v0)
bfc05310:	304200ff 	andi	v0,v0,0xff
bfc05314:	34420010 	ori	v0,v0,0x10
bfc05318:	304200ff 	andi	v0,v0,0xff
bfc0531c:	a0620000 	sb	v0,0(v1)
D:\loongson\works\ls1d-mylib\lib\test/i2c-test.c:90
bfc05320:	3c02bfe9 	lui	v0,0xbfe9
bfc05324:	34420004 	ori	v0,v0,0x4
bfc05328:	90420000 	lbu	v0,0(v0)
bfc0532c:	304200ff 	andi	v0,v0,0xff
bfc05330:	30430081 	andi	v1,v0,0x81
bfc05334:	24020001 	li	v0,1
bfc05338:	1462fff9 	bne	v1,v0,bfc05320 <ls1d_iic_test+0x378>
bfc0533c:	00000000 	nop
D:\loongson\works\ls1d-mylib\lib\test/i2c-test.c:91
bfc05340:	3c02bfe9 	lui	v0,0xbfe9
bfc05344:	34430004 	ori	v1,v0,0x4
bfc05348:	24020001 	li	v0,1
bfc0534c:	a0620000 	sb	v0,0(v1)
D:\loongson\works\ls1d-mylib\lib\test/i2c-test.c:93
bfc05350:	3c02bfe9 	lui	v0,0xbfe9
bfc05354:	34430003 	ori	v1,v0,0x3
bfc05358:	93c2001a 	lbu	v0,26(s8)
bfc0535c:	a0620000 	sb	v0,0(v1)
D:\loongson\works\ls1d-mylib\lib\test/i2c-test.c:94
bfc05360:	3c02bfe9 	lui	v0,0xbfe9
bfc05364:	34430002 	ori	v1,v0,0x2
bfc05368:	3c02bfe9 	lui	v0,0xbfe9
bfc0536c:	34420002 	ori	v0,v0,0x2
bfc05370:	90420000 	lbu	v0,0(v0)
bfc05374:	304200ff 	andi	v0,v0,0xff
bfc05378:	34420010 	ori	v0,v0,0x10
bfc0537c:	304200ff 	andi	v0,v0,0xff
bfc05380:	a0620000 	sb	v0,0(v1)
D:\loongson\works\ls1d-mylib\lib\test/i2c-test.c:95
bfc05384:	3c02bfe9 	lui	v0,0xbfe9
bfc05388:	34420004 	ori	v0,v0,0x4
bfc0538c:	90420000 	lbu	v0,0(v0)
bfc05390:	304200ff 	andi	v0,v0,0xff
bfc05394:	30430081 	andi	v1,v0,0x81
bfc05398:	24020001 	li	v0,1
bfc0539c:	1462fff9 	bne	v1,v0,bfc05384 <ls1d_iic_test+0x3dc>
bfc053a0:	00000000 	nop
D:\loongson\works\ls1d-mylib\lib\test/i2c-test.c:96
bfc053a4:	3c02bfe9 	lui	v0,0xbfe9
bfc053a8:	34430004 	ori	v1,v0,0x4
bfc053ac:	24020001 	li	v0,1
bfc053b0:	a0620000 	sb	v0,0(v1)
D:\loongson\works\ls1d-mylib\lib\test/i2c-test.c:98
bfc053b4:	3c02bfe9 	lui	v0,0xbfe9
bfc053b8:	34430003 	ori	v1,v0,0x3
bfc053bc:	93c20019 	lbu	v0,25(s8)
bfc053c0:	a0620000 	sb	v0,0(v1)
D:\loongson\works\ls1d-mylib\lib\test/i2c-test.c:99
bfc053c4:	3c02bfe9 	lui	v0,0xbfe9
bfc053c8:	34430002 	ori	v1,v0,0x2
bfc053cc:	3c02bfe9 	lui	v0,0xbfe9
bfc053d0:	34420002 	ori	v0,v0,0x2
bfc053d4:	90420000 	lbu	v0,0(v0)
bfc053d8:	304200ff 	andi	v0,v0,0xff
bfc053dc:	34420010 	ori	v0,v0,0x10
bfc053e0:	304200ff 	andi	v0,v0,0xff
bfc053e4:	a0620000 	sb	v0,0(v1)
D:\loongson\works\ls1d-mylib\lib\test/i2c-test.c:100
bfc053e8:	3c02bfe9 	lui	v0,0xbfe9
bfc053ec:	34420004 	ori	v0,v0,0x4
bfc053f0:	90420000 	lbu	v0,0(v0)
bfc053f4:	304200ff 	andi	v0,v0,0xff
bfc053f8:	30430081 	andi	v1,v0,0x81
bfc053fc:	24020001 	li	v0,1
bfc05400:	1462fff9 	bne	v1,v0,bfc053e8 <ls1d_iic_test+0x440>
bfc05404:	00000000 	nop
D:\loongson\works\ls1d-mylib\lib\test/i2c-test.c:101
bfc05408:	3c02bfe9 	lui	v0,0xbfe9
bfc0540c:	34430004 	ori	v1,v0,0x4
bfc05410:	24020001 	li	v0,1
bfc05414:	a0620000 	sb	v0,0(v1)
D:\loongson\works\ls1d-mylib\lib\test/i2c-test.c:103
bfc05418:	3c02bfe9 	lui	v0,0xbfe9
bfc0541c:	34430003 	ori	v1,v0,0x3
bfc05420:	93c20018 	lbu	v0,24(s8)
bfc05424:	a0620000 	sb	v0,0(v1)
D:\loongson\works\ls1d-mylib\lib\test/i2c-test.c:104
bfc05428:	3c02bfe9 	lui	v0,0xbfe9
bfc0542c:	34430002 	ori	v1,v0,0x2
bfc05430:	3c02bfe9 	lui	v0,0xbfe9
bfc05434:	34420002 	ori	v0,v0,0x2
bfc05438:	90420000 	lbu	v0,0(v0)
bfc0543c:	304200ff 	andi	v0,v0,0xff
bfc05440:	34420010 	ori	v0,v0,0x10
bfc05444:	304200ff 	andi	v0,v0,0xff
bfc05448:	a0620000 	sb	v0,0(v1)
D:\loongson\works\ls1d-mylib\lib\test/i2c-test.c:105
bfc0544c:	3c02bfe9 	lui	v0,0xbfe9
bfc05450:	34420004 	ori	v0,v0,0x4
bfc05454:	90420000 	lbu	v0,0(v0)
bfc05458:	304200ff 	andi	v0,v0,0xff
bfc0545c:	30420001 	andi	v0,v0,0x1
bfc05460:	1040fffa 	beqz	v0,bfc0544c <ls1d_iic_test+0x4a4>
bfc05464:	00000000 	nop
D:\loongson\works\ls1d-mylib\lib\test/i2c-test.c:106
bfc05468:	3c02bfe9 	lui	v0,0xbfe9
bfc0546c:	34430004 	ori	v1,v0,0x4
bfc05470:	24020001 	li	v0,1
bfc05474:	a0620000 	sb	v0,0(v1)
D:\loongson\works\ls1d-mylib\lib\test/i2c-test.c:108
bfc05478:	3c02a000 	lui	v0,0xa000
bfc0547c:	8c421258 	lw	v0,4696(v0)
bfc05480:	2c420004 	sltiu	v0,v0,4
bfc05484:	1440000d 	bnez	v0,bfc054bc <ls1d_iic_test+0x514>
bfc05488:	00000000 	nop
bfc0548c:	93c3001b 	lbu	v1,27(s8)
bfc05490:	93c6001a 	lbu	a2,26(s8)
bfc05494:	93c70019 	lbu	a3,25(s8)
bfc05498:	93c20018 	lbu	v0,24(s8)
bfc0549c:	afa20010 	sw	v0,16(sp)
bfc054a0:	3c02bfc1 	lui	v0,0xbfc1
bfc054a4:	2444cba0 	addiu	a0,v0,-13408
bfc054a8:	00602821 	move	a1,v1
bfc054ac:	3c02bfc1 	lui	v0,0xbfc1
bfc054b0:	2459be10 	addiu	t9,v0,-16880
bfc054b4:	0320f809 	jalr	t9
bfc054b8:	00000000 	nop
D:\loongson\works\ls1d-mylib\lib\test/i2c-test.c:113
bfc054bc:	3c02bfe9 	lui	v0,0xbfe9
bfc054c0:	34430002 	ori	v1,v0,0x2
bfc054c4:	3c02bfe9 	lui	v0,0xbfe9
bfc054c8:	34420002 	ori	v0,v0,0x2
bfc054cc:	90420000 	lbu	v0,0(v0)
bfc054d0:	304200ff 	andi	v0,v0,0xff
bfc054d4:	34420018 	ori	v0,v0,0x18
bfc054d8:	304200ff 	andi	v0,v0,0xff
bfc054dc:	a0620000 	sb	v0,0(v1)
D:\loongson\works\ls1d-mylib\lib\test/i2c-test.c:114
bfc054e0:	3c02bfe9 	lui	v0,0xbfe9
bfc054e4:	34430004 	ori	v1,v0,0x4
bfc054e8:	24020001 	li	v0,1
bfc054ec:	a0620000 	sb	v0,0(v1)
D:\loongson\works\ls1d-mylib\lib\test/i2c-test.c:115
bfc054f0:	03c0e821 	move	sp,s8
bfc054f4:	8fbf0034 	lw	ra,52(sp)
bfc054f8:	8fbe0030 	lw	s8,48(sp)
bfc054fc:	27bd0038 	addiu	sp,sp,56
bfc05500:	03e00008 	jr	ra
bfc05504:	00000000 	nop

bfc05508 <eeprom_read>:
eeprom_read():
D:\loongson\works\ls1d-mylib\lib\test/i2c-test.c:119
bfc05508:	27bdffd8 	addiu	sp,sp,-40
bfc0550c:	afbf0024 	sw	ra,36(sp)
bfc05510:	afbe0020 	sw	s8,32(sp)
bfc05514:	afb0001c 	sw	s0,28(sp)
bfc05518:	03a0f021 	move	s8,sp
bfc0551c:	00801021 	move	v0,a0
bfc05520:	00a01821 	move	v1,a1
bfc05524:	afc60030 	sw	a2,48(s8)
bfc05528:	afc70034 	sw	a3,52(s8)
bfc0552c:	a3c20028 	sb	v0,40(s8)
bfc05530:	a3c3002c 	sb	v1,44(s8)
D:\loongson\works\ls1d-mylib\lib\test/i2c-test.c:121
bfc05534:	3c02a000 	lui	v0,0xa000
bfc05538:	24421030 	addiu	v0,v0,4144
bfc0553c:	8c590104 	lw	t9,260(v0)
bfc05540:	93c20028 	lbu	v0,40(s8)
bfc05544:	00402021 	move	a0,v0
bfc05548:	00002821 	move	a1,zero
bfc0554c:	0320f809 	jalr	t9
bfc05550:	00000000 	nop
D:\loongson\works\ls1d-mylib\lib\test/i2c-test.c:122
bfc05554:	3c02a000 	lui	v0,0xa000
bfc05558:	24421030 	addiu	v0,v0,4144
bfc0555c:	8c590108 	lw	t9,264(v0)
bfc05560:	93c2002c 	lbu	v0,44(s8)
bfc05564:	00402021 	move	a0,v0
bfc05568:	0320f809 	jalr	t9
bfc0556c:	00000000 	nop
D:\loongson\works\ls1d-mylib\lib\test/i2c-test.c:123
bfc05570:	3c02a000 	lui	v0,0xa000
bfc05574:	24421030 	addiu	v0,v0,4144
bfc05578:	8c590104 	lw	t9,260(v0)
bfc0557c:	93c20028 	lbu	v0,40(s8)
bfc05580:	00402021 	move	a0,v0
bfc05584:	24050001 	li	a1,1
bfc05588:	0320f809 	jalr	t9
bfc0558c:	00000000 	nop
D:\loongson\works\ls1d-mylib\lib\test/i2c-test.c:124
bfc05590:	afc00010 	sw	zero,16(s8)
bfc05594:	0bf01573 	j	bfc055cc <eeprom_read+0xc4>
bfc05598:	00000000 	nop
D:\loongson\works\ls1d-mylib\lib\test/i2c-test.c:125
bfc0559c:	8fc30010 	lw	v1,16(s8)
bfc055a0:	8fc20030 	lw	v0,48(s8)
bfc055a4:	00438021 	addu	s0,v0,v1
bfc055a8:	3c02a000 	lui	v0,0xa000
bfc055ac:	24421030 	addiu	v0,v0,4144
bfc055b0:	8c590110 	lw	t9,272(v0)
bfc055b4:	0320f809 	jalr	t9
bfc055b8:	00000000 	nop
bfc055bc:	a2020000 	sb	v0,0(s0)
D:\loongson\works\ls1d-mylib\lib\test/i2c-test.c:124
bfc055c0:	8fc20010 	lw	v0,16(s8)
bfc055c4:	24420001 	addiu	v0,v0,1
bfc055c8:	afc20010 	sw	v0,16(s8)
bfc055cc:	8fc30010 	lw	v1,16(s8)
bfc055d0:	8fc20034 	lw	v0,52(s8)
bfc055d4:	2442ffff 	addiu	v0,v0,-1
bfc055d8:	0062102b 	sltu	v0,v1,v0
bfc055dc:	1440ffef 	bnez	v0,bfc0559c <eeprom_read+0x94>
bfc055e0:	00000000 	nop
D:\loongson\works\ls1d-mylib\lib\test/i2c-test.c:127
bfc055e4:	8fc30010 	lw	v1,16(s8)
bfc055e8:	8fc20030 	lw	v0,48(s8)
bfc055ec:	00438021 	addu	s0,v0,v1
bfc055f0:	3c02a000 	lui	v0,0xa000
bfc055f4:	24421030 	addiu	v0,v0,4144
bfc055f8:	8c590114 	lw	t9,276(v0)
bfc055fc:	0320f809 	jalr	t9
bfc05600:	00000000 	nop
bfc05604:	a2020000 	sb	v0,0(s0)
D:\loongson\works\ls1d-mylib\lib\test/i2c-test.c:128
bfc05608:	03c0e821 	move	sp,s8
bfc0560c:	8fbf0024 	lw	ra,36(sp)
bfc05610:	8fbe0020 	lw	s8,32(sp)
bfc05614:	8fb0001c 	lw	s0,28(sp)
bfc05618:	27bd0028 	addiu	sp,sp,40
bfc0561c:	03e00008 	jr	ra
bfc05620:	00000000 	nop

bfc05624 <eeprom_write>:
eeprom_write():
D:\loongson\works\ls1d-mylib\lib\test/i2c-test.c:130
bfc05624:	27bdffe0 	addiu	sp,sp,-32
bfc05628:	afbf001c 	sw	ra,28(sp)
bfc0562c:	afbe0018 	sw	s8,24(sp)
bfc05630:	03a0f021 	move	s8,sp
bfc05634:	00801021 	move	v0,a0
bfc05638:	00a01821 	move	v1,a1
bfc0563c:	afc60028 	sw	a2,40(s8)
bfc05640:	afc7002c 	sw	a3,44(s8)
bfc05644:	a3c20020 	sb	v0,32(s8)
bfc05648:	a3c30024 	sb	v1,36(s8)
D:\loongson\works\ls1d-mylib\lib\test/i2c-test.c:132
bfc0564c:	3c02a000 	lui	v0,0xa000
bfc05650:	24421030 	addiu	v0,v0,4144
bfc05654:	8c590104 	lw	t9,260(v0)
bfc05658:	93c20020 	lbu	v0,32(s8)
bfc0565c:	00402021 	move	a0,v0
bfc05660:	00002821 	move	a1,zero
bfc05664:	0320f809 	jalr	t9
bfc05668:	00000000 	nop
D:\loongson\works\ls1d-mylib\lib\test/i2c-test.c:133
bfc0566c:	3c02a000 	lui	v0,0xa000
bfc05670:	24421030 	addiu	v0,v0,4144
bfc05674:	8c590108 	lw	t9,264(v0)
bfc05678:	93c20024 	lbu	v0,36(s8)
bfc0567c:	00402021 	move	a0,v0
bfc05680:	0320f809 	jalr	t9
bfc05684:	00000000 	nop
D:\loongson\works\ls1d-mylib\lib\test/i2c-test.c:134
bfc05688:	afc00010 	sw	zero,16(s8)
bfc0568c:	0bf015b2 	j	bfc056c8 <eeprom_write+0xa4>
bfc05690:	00000000 	nop
D:\loongson\works\ls1d-mylib\lib\test/i2c-test.c:135
bfc05694:	3c02a000 	lui	v0,0xa000
bfc05698:	24421030 	addiu	v0,v0,4144
bfc0569c:	8c590108 	lw	t9,264(v0)
bfc056a0:	8fc30010 	lw	v1,16(s8)
bfc056a4:	8fc20028 	lw	v0,40(s8)
bfc056a8:	00431021 	addu	v0,v0,v1
bfc056ac:	90420000 	lbu	v0,0(v0)
bfc056b0:	00402021 	move	a0,v0
bfc056b4:	0320f809 	jalr	t9
bfc056b8:	00000000 	nop
D:\loongson\works\ls1d-mylib\lib\test/i2c-test.c:134
bfc056bc:	8fc20010 	lw	v0,16(s8)
bfc056c0:	24420001 	addiu	v0,v0,1
bfc056c4:	afc20010 	sw	v0,16(s8)
bfc056c8:	8fc30010 	lw	v1,16(s8)
bfc056cc:	8fc2002c 	lw	v0,44(s8)
bfc056d0:	2442ffff 	addiu	v0,v0,-1
bfc056d4:	0062102b 	sltu	v0,v1,v0
bfc056d8:	1440ffee 	bnez	v0,bfc05694 <eeprom_write+0x70>
bfc056dc:	00000000 	nop
D:\loongson\works\ls1d-mylib\lib\test/i2c-test.c:137
bfc056e0:	3c02a000 	lui	v0,0xa000
bfc056e4:	24421030 	addiu	v0,v0,4144
bfc056e8:	8c59010c 	lw	t9,268(v0)
bfc056ec:	8fc30010 	lw	v1,16(s8)
bfc056f0:	8fc20028 	lw	v0,40(s8)
bfc056f4:	00431021 	addu	v0,v0,v1
bfc056f8:	90420000 	lbu	v0,0(v0)
bfc056fc:	00402021 	move	a0,v0
bfc05700:	0320f809 	jalr	t9
bfc05704:	00000000 	nop
D:\loongson\works\ls1d-mylib\lib\test/i2c-test.c:138
bfc05708:	03c0e821 	move	sp,s8
bfc0570c:	8fbf001c 	lw	ra,28(sp)
bfc05710:	8fbe0018 	lw	s8,24(sp)
bfc05714:	27bd0020 	addiu	sp,sp,32
bfc05718:	03e00008 	jr	ra
bfc0571c:	00000000 	nop

bfc05720 <eeprom_test_cycle>:
eeprom_test_cycle():
D:\loongson\works\ls1d-mylib\lib\test/i2c-test.c:144
bfc05720:	27bdffa8 	addiu	sp,sp,-88
bfc05724:	afbf0054 	sw	ra,84(sp)
bfc05728:	afbe0050 	sw	s8,80(sp)
bfc0572c:	03a0f021 	move	s8,sp
bfc05730:	00801021 	move	v0,a0
bfc05734:	afc5005c 	sw	a1,92(s8)
bfc05738:	afc60060 	sw	a2,96(s8)
bfc0573c:	a3c20058 	sb	v0,88(s8)
bfc05740:	03a01021 	move	v0,sp
bfc05744:	afc20020 	sw	v0,32(s8)
D:\loongson\works\ls1d-mylib\lib\test/i2c-test.c:145
bfc05748:	3c02a000 	lui	v0,0xa000
bfc0574c:	24421030 	addiu	v0,v0,4144
bfc05750:	8c5900fc 	lw	t9,252(v0)
bfc05754:	3c020001 	lui	v0,0x1
bfc05758:	344486a0 	ori	a0,v0,0x86a0
bfc0575c:	0320f809 	jalr	t9
bfc05760:	00000000 	nop
D:\loongson\works\ls1d-mylib\lib\test/i2c-test.c:148
bfc05764:	8fc70060 	lw	a3,96(s8)
bfc05768:	00e01021 	move	v0,a3
bfc0576c:	afc20048 	sw	v0,72(s8)
bfc05770:	00001821 	move	v1,zero
bfc05774:	afc3004c 	sw	v1,76(s8)
bfc05778:	8fc40048 	lw	a0,72(s8)
bfc0577c:	8fc5004c 	lw	a1,76(s8)
bfc05780:	afc40048 	sw	a0,72(s8)
bfc05784:	afc5004c 	sw	a1,76(s8)
bfc05788:	2404ffff 	li	a0,-1
bfc0578c:	8fc50048 	lw	a1,72(s8)
bfc05790:	00a41024 	and	v0,a1,a0
bfc05794:	8fc4004c 	lw	a0,76(s8)
bfc05798:	3083000f 	andi	v1,a0,0xf
bfc0579c:	afc20048 	sw	v0,72(s8)
bfc057a0:	afc3004c 	sw	v1,76(s8)
bfc057a4:	8fc50048 	lw	a1,72(s8)
bfc057a8:	00051742 	srl	v0,a1,0x1d
bfc057ac:	8fc3004c 	lw	v1,76(s8)
bfc057b0:	000328c0 	sll	a1,v1,0x3
bfc057b4:	00452825 	or	a1,v0,a1
bfc057b8:	8fc20048 	lw	v0,72(s8)
bfc057bc:	000220c0 	sll	a0,v0,0x3
bfc057c0:	2406ffff 	li	a2,-1
bfc057c4:	00861024 	and	v0,a0,a2
bfc057c8:	30a3000f 	andi	v1,a1,0xf
bfc057cc:	00402021 	move	a0,v0
bfc057d0:	00602821 	move	a1,v1
bfc057d4:	00e01821 	move	v1,a3
bfc057d8:	afc30040 	sw	v1,64(s8)
bfc057dc:	00002021 	move	a0,zero
bfc057e0:	afc40044 	sw	a0,68(s8)
bfc057e4:	8fc20040 	lw	v0,64(s8)
bfc057e8:	8fc30044 	lw	v1,68(s8)
bfc057ec:	afc20040 	sw	v0,64(s8)
bfc057f0:	afc30044 	sw	v1,68(s8)
bfc057f4:	2404ffff 	li	a0,-1
bfc057f8:	8fc50040 	lw	a1,64(s8)
bfc057fc:	00a41024 	and	v0,a1,a0
bfc05800:	8fc40044 	lw	a0,68(s8)
bfc05804:	3083000f 	andi	v1,a0,0xf
bfc05808:	afc20040 	sw	v0,64(s8)
bfc0580c:	afc30044 	sw	v1,68(s8)
bfc05810:	8fc50040 	lw	a1,64(s8)
bfc05814:	00051742 	srl	v0,a1,0x1d
bfc05818:	8fc30044 	lw	v1,68(s8)
bfc0581c:	000328c0 	sll	a1,v1,0x3
bfc05820:	00452825 	or	a1,v0,a1
bfc05824:	8fc20040 	lw	v0,64(s8)
bfc05828:	000220c0 	sll	a0,v0,0x3
bfc0582c:	2406ffff 	li	a2,-1
bfc05830:	00861024 	and	v0,a0,a2
bfc05834:	30a3000f 	andi	v1,a1,0xf
bfc05838:	00402021 	move	a0,v0
bfc0583c:	00602821 	move	a1,v1
bfc05840:	00e01021 	move	v0,a3
bfc05844:	24420007 	addiu	v0,v0,7
bfc05848:	24420007 	addiu	v0,v0,7
bfc0584c:	000210c2 	srl	v0,v0,0x3
bfc05850:	000210c0 	sll	v0,v0,0x3
bfc05854:	03a2e823 	subu	sp,sp,v0
bfc05858:	27a30010 	addiu	v1,sp,16
bfc0585c:	afc30038 	sw	v1,56(s8)
bfc05860:	8fc40038 	lw	a0,56(s8)
bfc05864:	24820007 	addiu	v0,a0,7
bfc05868:	000210c2 	srl	v0,v0,0x3
bfc0586c:	000210c0 	sll	v0,v0,0x3
bfc05870:	afc20038 	sw	v0,56(s8)
bfc05874:	8fc50038 	lw	a1,56(s8)
bfc05878:	afc5001c 	sw	a1,28(s8)
D:\loongson\works\ls1d-mylib\lib\test/i2c-test.c:149
bfc0587c:	8fc7005c 	lw	a3,92(s8)
bfc05880:	00e01021 	move	v0,a3
bfc05884:	afc20030 	sw	v0,48(s8)
bfc05888:	00001821 	move	v1,zero
bfc0588c:	afc30034 	sw	v1,52(s8)
bfc05890:	8fc40030 	lw	a0,48(s8)
bfc05894:	8fc50034 	lw	a1,52(s8)
bfc05898:	afc40030 	sw	a0,48(s8)
bfc0589c:	afc50034 	sw	a1,52(s8)
bfc058a0:	2404ffff 	li	a0,-1
bfc058a4:	8fc50030 	lw	a1,48(s8)
bfc058a8:	00a41024 	and	v0,a1,a0
bfc058ac:	8fc40034 	lw	a0,52(s8)
bfc058b0:	3083000f 	andi	v1,a0,0xf
bfc058b4:	afc20030 	sw	v0,48(s8)
bfc058b8:	afc30034 	sw	v1,52(s8)
bfc058bc:	8fc50030 	lw	a1,48(s8)
bfc058c0:	00051742 	srl	v0,a1,0x1d
bfc058c4:	8fc30034 	lw	v1,52(s8)
bfc058c8:	000328c0 	sll	a1,v1,0x3
bfc058cc:	00452825 	or	a1,v0,a1
bfc058d0:	8fc20030 	lw	v0,48(s8)
bfc058d4:	000220c0 	sll	a0,v0,0x3
bfc058d8:	2406ffff 	li	a2,-1
bfc058dc:	00861024 	and	v0,a0,a2
bfc058e0:	30a3000f 	andi	v1,a1,0xf
bfc058e4:	00402021 	move	a0,v0
bfc058e8:	00602821 	move	a1,v1
bfc058ec:	00e01821 	move	v1,a3
bfc058f0:	afc30028 	sw	v1,40(s8)
bfc058f4:	00002021 	move	a0,zero
bfc058f8:	afc4002c 	sw	a0,44(s8)
bfc058fc:	8fc20028 	lw	v0,40(s8)
bfc05900:	8fc3002c 	lw	v1,44(s8)
bfc05904:	afc20028 	sw	v0,40(s8)
bfc05908:	afc3002c 	sw	v1,44(s8)
bfc0590c:	2404ffff 	li	a0,-1
bfc05910:	8fc50028 	lw	a1,40(s8)
bfc05914:	00a41024 	and	v0,a1,a0
bfc05918:	8fc4002c 	lw	a0,44(s8)
bfc0591c:	3083000f 	andi	v1,a0,0xf
bfc05920:	afc20028 	sw	v0,40(s8)
bfc05924:	afc3002c 	sw	v1,44(s8)
bfc05928:	8fc50028 	lw	a1,40(s8)
bfc0592c:	00051742 	srl	v0,a1,0x1d
bfc05930:	8fc3002c 	lw	v1,44(s8)
bfc05934:	000328c0 	sll	a1,v1,0x3
bfc05938:	00452825 	or	a1,v0,a1
bfc0593c:	8fc20028 	lw	v0,40(s8)
bfc05940:	000220c0 	sll	a0,v0,0x3
bfc05944:	2406ffff 	li	a2,-1
bfc05948:	00861024 	and	v0,a0,a2
bfc0594c:	30a3000f 	andi	v1,a1,0xf
bfc05950:	00402021 	move	a0,v0
bfc05954:	00602821 	move	a1,v1
bfc05958:	00e01021 	move	v0,a3
bfc0595c:	24420007 	addiu	v0,v0,7
bfc05960:	24420007 	addiu	v0,v0,7
bfc05964:	000210c2 	srl	v0,v0,0x3
bfc05968:	000210c0 	sll	v0,v0,0x3
bfc0596c:	03a2e823 	subu	sp,sp,v0
bfc05970:	27a30010 	addiu	v1,sp,16
bfc05974:	afc30024 	sw	v1,36(s8)
bfc05978:	8fc40024 	lw	a0,36(s8)
bfc0597c:	24820007 	addiu	v0,a0,7
bfc05980:	000210c2 	srl	v0,v0,0x3
bfc05984:	000210c0 	sll	v0,v0,0x3
bfc05988:	afc20024 	sw	v0,36(s8)
bfc0598c:	8fc50024 	lw	a1,36(s8)
bfc05990:	afc50018 	sw	a1,24(s8)
D:\loongson\works\ls1d-mylib\lib\test/i2c-test.c:150
bfc05994:	afc00014 	sw	zero,20(s8)
bfc05998:	0bf0166f 	j	bfc059bc <eeprom_test_cycle+0x29c>
bfc0599c:	00000000 	nop
D:\loongson\works\ls1d-mylib\lib\test/i2c-test.c:151
bfc059a0:	8fc30014 	lw	v1,20(s8)
bfc059a4:	8fc20018 	lw	v0,24(s8)
bfc059a8:	00431021 	addu	v0,v0,v1
bfc059ac:	a0400000 	sb	zero,0(v0)
D:\loongson\works\ls1d-mylib\lib\test/i2c-test.c:150
bfc059b0:	8fc20014 	lw	v0,20(s8)
bfc059b4:	24420001 	addiu	v0,v0,1
bfc059b8:	afc20014 	sw	v0,20(s8)
bfc059bc:	8fc20014 	lw	v0,20(s8)
bfc059c0:	8fc3005c 	lw	v1,92(s8)
bfc059c4:	0043102b 	sltu	v0,v0,v1
bfc059c8:	1440fff5 	bnez	v0,bfc059a0 <eeprom_test_cycle+0x280>
bfc059cc:	00000000 	nop
D:\loongson\works\ls1d-mylib\lib\test/i2c-test.c:152
bfc059d0:	24020050 	li	v0,80
bfc059d4:	a3c20010 	sb	v0,16(s8)
D:\loongson\works\ls1d-mylib\lib\test/i2c-test.c:155
bfc059d8:	93c20010 	lbu	v0,16(s8)
bfc059dc:	93c30058 	lbu	v1,88(s8)
bfc059e0:	8fc60018 	lw	a2,24(s8)
bfc059e4:	00402021 	move	a0,v0
bfc059e8:	00602821 	move	a1,v1
bfc059ec:	8fc7005c 	lw	a3,92(s8)
bfc059f0:	0ff01542 	jal	bfc05508 <eeprom_read>
bfc059f4:	00000000 	nop
D:\loongson\works\ls1d-mylib\lib\test/i2c-test.c:156
bfc059f8:	3c02a000 	lui	v0,0xa000
bfc059fc:	8c421258 	lw	v0,4696(v0)
bfc05a00:	2c420002 	sltiu	v0,v0,2
bfc05a04:	14400007 	bnez	v0,bfc05a24 <eeprom_test_cycle+0x304>
bfc05a08:	00000000 	nop
bfc05a0c:	3c02bfc1 	lui	v0,0xbfc1
bfc05a10:	2444cbdc 	addiu	a0,v0,-13348
bfc05a14:	3c02bfc1 	lui	v0,0xbfc1
bfc05a18:	2459bcb0 	addiu	t9,v0,-17232
bfc05a1c:	0320f809 	jalr	t9
bfc05a20:	00000000 	nop
D:\loongson\works\ls1d-mylib\lib\test/i2c-test.c:157
bfc05a24:	afc00014 	sw	zero,20(s8)
bfc05a28:	0bf016af 	j	bfc05abc <eeprom_test_cycle+0x39c>
bfc05a2c:	00000000 	nop
D:\loongson\works\ls1d-mylib\lib\test/i2c-test.c:158
bfc05a30:	8fc20014 	lw	v0,20(s8)
bfc05a34:	30420007 	andi	v0,v0,0x7
bfc05a38:	1440000c 	bnez	v0,bfc05a6c <eeprom_test_cycle+0x34c>
bfc05a3c:	00000000 	nop
bfc05a40:	3c02a000 	lui	v0,0xa000
bfc05a44:	8c421258 	lw	v0,4696(v0)
bfc05a48:	2c420002 	sltiu	v0,v0,2
bfc05a4c:	14400007 	bnez	v0,bfc05a6c <eeprom_test_cycle+0x34c>
bfc05a50:	00000000 	nop
bfc05a54:	3c02bfc1 	lui	v0,0xbfc1
bfc05a58:	2444cbf0 	addiu	a0,v0,-13328
bfc05a5c:	3c02bfc1 	lui	v0,0xbfc1
bfc05a60:	2459bcb0 	addiu	t9,v0,-17232
bfc05a64:	0320f809 	jalr	t9
bfc05a68:	00000000 	nop
D:\loongson\works\ls1d-mylib\lib\test/i2c-test.c:159
bfc05a6c:	3c02a000 	lui	v0,0xa000
bfc05a70:	8c421258 	lw	v0,4696(v0)
bfc05a74:	2c420002 	sltiu	v0,v0,2
bfc05a78:	1440000d 	bnez	v0,bfc05ab0 <eeprom_test_cycle+0x390>
bfc05a7c:	00000000 	nop
bfc05a80:	8fc30014 	lw	v1,20(s8)
bfc05a84:	8fc20018 	lw	v0,24(s8)
bfc05a88:	00431021 	addu	v0,v0,v1
bfc05a8c:	90420000 	lbu	v0,0(v0)
bfc05a90:	00401821 	move	v1,v0
bfc05a94:	3c02bfc1 	lui	v0,0xbfc1
bfc05a98:	2444cbf4 	addiu	a0,v0,-13324
bfc05a9c:	00602821 	move	a1,v1
bfc05aa0:	3c02bfc1 	lui	v0,0xbfc1
bfc05aa4:	2459be10 	addiu	t9,v0,-16880
bfc05aa8:	0320f809 	jalr	t9
bfc05aac:	00000000 	nop
D:\loongson\works\ls1d-mylib\lib\test/i2c-test.c:157
bfc05ab0:	8fc20014 	lw	v0,20(s8)
bfc05ab4:	24420001 	addiu	v0,v0,1
bfc05ab8:	afc20014 	sw	v0,20(s8)
bfc05abc:	8fc20014 	lw	v0,20(s8)
bfc05ac0:	8fc3005c 	lw	v1,92(s8)
bfc05ac4:	0043102b 	sltu	v0,v0,v1
bfc05ac8:	1440ffd9 	bnez	v0,bfc05a30 <eeprom_test_cycle+0x310>
bfc05acc:	00000000 	nop
D:\loongson\works\ls1d-mylib\lib\test/i2c-test.c:161
bfc05ad0:	3c02a000 	lui	v0,0xa000
bfc05ad4:	8c421258 	lw	v0,4696(v0)
bfc05ad8:	2c420002 	sltiu	v0,v0,2
bfc05adc:	14400007 	bnez	v0,bfc05afc <eeprom_test_cycle+0x3dc>
bfc05ae0:	00000000 	nop
bfc05ae4:	3c02bfc1 	lui	v0,0xbfc1
bfc05ae8:	2444cbf0 	addiu	a0,v0,-13328
bfc05aec:	3c02bfc1 	lui	v0,0xbfc1
bfc05af0:	2459bcb0 	addiu	t9,v0,-17232
bfc05af4:	0320f809 	jalr	t9
bfc05af8:	00000000 	nop
D:\loongson\works\ls1d-mylib\lib\test/i2c-test.c:164
bfc05afc:	afc00014 	sw	zero,20(s8)
bfc05b00:	0bf016cf 	j	bfc05b3c <eeprom_test_cycle+0x41c>
bfc05b04:	00000000 	nop
D:\loongson\works\ls1d-mylib\lib\test/i2c-test.c:165
bfc05b08:	8fc40014 	lw	a0,20(s8)
bfc05b0c:	8fc30014 	lw	v1,20(s8)
bfc05b10:	8fc20018 	lw	v0,24(s8)
bfc05b14:	00431021 	addu	v0,v0,v1
bfc05b18:	90420000 	lbu	v0,0(v0)
bfc05b1c:	24420010 	addiu	v0,v0,16
bfc05b20:	304300ff 	andi	v1,v0,0xff
bfc05b24:	8fc2001c 	lw	v0,28(s8)
bfc05b28:	00441021 	addu	v0,v0,a0
bfc05b2c:	a0430000 	sb	v1,0(v0)
D:\loongson\works\ls1d-mylib\lib\test/i2c-test.c:164
bfc05b30:	8fc20014 	lw	v0,20(s8)
bfc05b34:	24420001 	addiu	v0,v0,1
bfc05b38:	afc20014 	sw	v0,20(s8)
bfc05b3c:	8fc20014 	lw	v0,20(s8)
bfc05b40:	8fc30060 	lw	v1,96(s8)
bfc05b44:	0043102b 	sltu	v0,v0,v1
bfc05b48:	1440ffef 	bnez	v0,bfc05b08 <eeprom_test_cycle+0x3e8>
bfc05b4c:	00000000 	nop
D:\loongson\works\ls1d-mylib\lib\test/i2c-test.c:166
bfc05b50:	93c20010 	lbu	v0,16(s8)
bfc05b54:	93c30058 	lbu	v1,88(s8)
bfc05b58:	8fc6001c 	lw	a2,28(s8)
bfc05b5c:	00402021 	move	a0,v0
bfc05b60:	00602821 	move	a1,v1
bfc05b64:	8fc70060 	lw	a3,96(s8)
bfc05b68:	0ff01589 	jal	bfc05624 <eeprom_write>
bfc05b6c:	00000000 	nop
D:\loongson\works\ls1d-mylib\lib\test/i2c-test.c:167
bfc05b70:	3c02a000 	lui	v0,0xa000
bfc05b74:	8c421258 	lw	v0,4696(v0)
bfc05b78:	2c420002 	sltiu	v0,v0,2
bfc05b7c:	14400007 	bnez	v0,bfc05b9c <eeprom_test_cycle+0x47c>
bfc05b80:	00000000 	nop
bfc05b84:	3c02bfc1 	lui	v0,0xbfc1
bfc05b88:	2444cbf8 	addiu	a0,v0,-13320
bfc05b8c:	3c02bfc1 	lui	v0,0xbfc1
bfc05b90:	2459bcb0 	addiu	t9,v0,-17232
bfc05b94:	0320f809 	jalr	t9
bfc05b98:	00000000 	nop
D:\loongson\works\ls1d-mylib\lib\test/i2c-test.c:171
bfc05b9c:	afc00014 	sw	zero,20(s8)
bfc05ba0:	0bf016f1 	j	bfc05bc4 <eeprom_test_cycle+0x4a4>
bfc05ba4:	00000000 	nop
D:\loongson\works\ls1d-mylib\lib\test/i2c-test.c:172
bfc05ba8:	8fc30014 	lw	v1,20(s8)
bfc05bac:	8fc20018 	lw	v0,24(s8)
bfc05bb0:	00431021 	addu	v0,v0,v1
bfc05bb4:	a0400000 	sb	zero,0(v0)
D:\loongson\works\ls1d-mylib\lib\test/i2c-test.c:171
bfc05bb8:	8fc20014 	lw	v0,20(s8)
bfc05bbc:	24420001 	addiu	v0,v0,1
bfc05bc0:	afc20014 	sw	v0,20(s8)
bfc05bc4:	8fc20014 	lw	v0,20(s8)
bfc05bc8:	8fc3005c 	lw	v1,92(s8)
bfc05bcc:	0043102b 	sltu	v0,v0,v1
bfc05bd0:	1440fff5 	bnez	v0,bfc05ba8 <eeprom_test_cycle+0x488>
bfc05bd4:	00000000 	nop
D:\loongson\works\ls1d-mylib\lib\test/i2c-test.c:173
bfc05bd8:	93c20010 	lbu	v0,16(s8)
bfc05bdc:	93c30058 	lbu	v1,88(s8)
bfc05be0:	8fc60018 	lw	a2,24(s8)
bfc05be4:	00402021 	move	a0,v0
bfc05be8:	00602821 	move	a1,v1
bfc05bec:	8fc7005c 	lw	a3,92(s8)
bfc05bf0:	0ff01542 	jal	bfc05508 <eeprom_read>
bfc05bf4:	00000000 	nop
D:\loongson\works\ls1d-mylib\lib\test/i2c-test.c:174
bfc05bf8:	3c02a000 	lui	v0,0xa000
bfc05bfc:	8c421258 	lw	v0,4696(v0)
bfc05c00:	2c420002 	sltiu	v0,v0,2
bfc05c04:	14400007 	bnez	v0,bfc05c24 <eeprom_test_cycle+0x504>
bfc05c08:	00000000 	nop
bfc05c0c:	3c02bfc1 	lui	v0,0xbfc1
bfc05c10:	2444cc0c 	addiu	a0,v0,-13300
bfc05c14:	3c02bfc1 	lui	v0,0xbfc1
bfc05c18:	2459bcb0 	addiu	t9,v0,-17232
bfc05c1c:	0320f809 	jalr	t9
bfc05c20:	00000000 	nop
D:\loongson\works\ls1d-mylib\lib\test/i2c-test.c:175
bfc05c24:	afc00014 	sw	zero,20(s8)
bfc05c28:	0bf0172f 	j	bfc05cbc <eeprom_test_cycle+0x59c>
bfc05c2c:	00000000 	nop
D:\loongson\works\ls1d-mylib\lib\test/i2c-test.c:176
bfc05c30:	8fc20014 	lw	v0,20(s8)
bfc05c34:	30420007 	andi	v0,v0,0x7
bfc05c38:	1440000c 	bnez	v0,bfc05c6c <eeprom_test_cycle+0x54c>
bfc05c3c:	00000000 	nop
bfc05c40:	3c02a000 	lui	v0,0xa000
bfc05c44:	8c421258 	lw	v0,4696(v0)
bfc05c48:	2c420002 	sltiu	v0,v0,2
bfc05c4c:	14400007 	bnez	v0,bfc05c6c <eeprom_test_cycle+0x54c>
bfc05c50:	00000000 	nop
bfc05c54:	3c02bfc1 	lui	v0,0xbfc1
bfc05c58:	2444cbf0 	addiu	a0,v0,-13328
bfc05c5c:	3c02bfc1 	lui	v0,0xbfc1
bfc05c60:	2459bcb0 	addiu	t9,v0,-17232
bfc05c64:	0320f809 	jalr	t9
bfc05c68:	00000000 	nop
D:\loongson\works\ls1d-mylib\lib\test/i2c-test.c:177
bfc05c6c:	3c02a000 	lui	v0,0xa000
bfc05c70:	8c421258 	lw	v0,4696(v0)
bfc05c74:	2c420002 	sltiu	v0,v0,2
bfc05c78:	1440000d 	bnez	v0,bfc05cb0 <eeprom_test_cycle+0x590>
bfc05c7c:	00000000 	nop
bfc05c80:	8fc30014 	lw	v1,20(s8)
bfc05c84:	8fc20018 	lw	v0,24(s8)
bfc05c88:	00431021 	addu	v0,v0,v1
bfc05c8c:	90420000 	lbu	v0,0(v0)
bfc05c90:	00401821 	move	v1,v0
bfc05c94:	3c02bfc1 	lui	v0,0xbfc1
bfc05c98:	2444cbf4 	addiu	a0,v0,-13324
bfc05c9c:	00602821 	move	a1,v1
bfc05ca0:	3c02bfc1 	lui	v0,0xbfc1
bfc05ca4:	2459be10 	addiu	t9,v0,-16880
bfc05ca8:	0320f809 	jalr	t9
bfc05cac:	00000000 	nop
D:\loongson\works\ls1d-mylib\lib\test/i2c-test.c:175
bfc05cb0:	8fc20014 	lw	v0,20(s8)
bfc05cb4:	24420001 	addiu	v0,v0,1
bfc05cb8:	afc20014 	sw	v0,20(s8)
bfc05cbc:	8fc20014 	lw	v0,20(s8)
bfc05cc0:	8fc3005c 	lw	v1,92(s8)
bfc05cc4:	0043102b 	sltu	v0,v0,v1
bfc05cc8:	1440ffd9 	bnez	v0,bfc05c30 <eeprom_test_cycle+0x510>
bfc05ccc:	00000000 	nop
D:\loongson\works\ls1d-mylib\lib\test/i2c-test.c:179
bfc05cd0:	3c02a000 	lui	v0,0xa000
bfc05cd4:	8c421258 	lw	v0,4696(v0)
bfc05cd8:	2c420002 	sltiu	v0,v0,2
bfc05cdc:	14400007 	bnez	v0,bfc05cfc <eeprom_test_cycle+0x5dc>
bfc05ce0:	00000000 	nop
bfc05ce4:	3c02bfc1 	lui	v0,0xbfc1
bfc05ce8:	2444cbf0 	addiu	a0,v0,-13328
bfc05cec:	3c02bfc1 	lui	v0,0xbfc1
bfc05cf0:	2459bcb0 	addiu	t9,v0,-17232
bfc05cf4:	0320f809 	jalr	t9
bfc05cf8:	00000000 	nop
bfc05cfc:	8fdd0020 	lw	sp,32(s8)
D:\loongson\works\ls1d-mylib\lib\test/i2c-test.c:180
bfc05d00:	03c0e821 	move	sp,s8
bfc05d04:	8fbf0054 	lw	ra,84(sp)
bfc05d08:	8fbe0050 	lw	s8,80(sp)
bfc05d0c:	27bd0058 	addiu	sp,sp,88
bfc05d10:	03e00008 	jr	ra
bfc05d14:	00000000 	nop
bfc05d18:	00000000 	nop
bfc05d1c:	00000000 	nop

bfc05d20 <ls1d_exint_test>:
ls1d_exint_test():
D:\loongson\works\ls1d-mylib\lib\test/exint.c:10
bfc05d20:	27bdffe0 	addiu	sp,sp,-32
bfc05d24:	afbf001c 	sw	ra,28(sp)
bfc05d28:	afbe0018 	sw	s8,24(sp)
bfc05d2c:	03a0f021 	move	s8,sp
D:\loongson\works\ls1d-mylib\lib\test/exint.c:11
bfc05d30:	3c02bfeb 	lui	v0,0xbfeb
bfc05d34:	34420044 	ori	v0,v0,0x44
bfc05d38:	8c420000 	lw	v0,0(v0)
bfc05d3c:	3042ffff 	andi	v0,v0,0xffff
bfc05d40:	afc20010 	sw	v0,16(s8)
D:\loongson\works\ls1d-mylib\lib\test/exint.c:12
bfc05d44:	3c02a000 	lui	v0,0xa000
bfc05d48:	8c421258 	lw	v0,4696(v0)
bfc05d4c:	2c420003 	sltiu	v0,v0,3
bfc05d50:	14400007 	bnez	v0,bfc05d70 <ls1d_exint_test+0x50>
bfc05d54:	00000000 	nop
bfc05d58:	3c02bfc1 	lui	v0,0xbfc1
bfc05d5c:	2444cc20 	addiu	a0,v0,-13280
bfc05d60:	3c02bfc1 	lui	v0,0xbfc1
bfc05d64:	2459bcb0 	addiu	t9,v0,-17232
bfc05d68:	0320f809 	jalr	t9
bfc05d6c:	00000000 	nop
D:\loongson\works\ls1d-mylib\lib\test/exint.c:14
bfc05d70:	3c02bfeb 	lui	v0,0xbfeb
bfc05d74:	3443007c 	ori	v1,v0,0x7c
bfc05d78:	3c02cf21 	lui	v0,0xcf21
bfc05d7c:	34426e95 	ori	v0,v0,0x6e95
bfc05d80:	ac620000 	sw	v0,0(v1)
D:\loongson\works\ls1d-mylib\lib\test/exint.c:15
bfc05d84:	3c02bfeb 	lui	v0,0xbfeb
bfc05d88:	3443003c 	ori	v1,v0,0x3c
bfc05d8c:	3c020010 	lui	v0,0x10
bfc05d90:	ac620000 	sw	v0,0(v1)
D:\loongson\works\ls1d-mylib\lib\test/exint.c:17
bfc05d94:	8fc20010 	lw	v0,16(s8)
bfc05d98:	30420001 	andi	v0,v0,0x1
bfc05d9c:	304200ff 	andi	v0,v0,0xff
bfc05da0:	10400013 	beqz	v0,bfc05df0 <ls1d_exint_test+0xd0>
bfc05da4:	00000000 	nop
D:\loongson\works\ls1d-mylib\lib\test/exint.c:19
bfc05da8:	3c02bfeb 	lui	v0,0xbfeb
bfc05dac:	34430044 	ori	v1,v0,0x44
bfc05db0:	3c02bfeb 	lui	v0,0xbfeb
bfc05db4:	34420044 	ori	v0,v0,0x44
bfc05db8:	8c420000 	lw	v0,0(v0)
bfc05dbc:	34420001 	ori	v0,v0,0x1
bfc05dc0:	ac620000 	sw	v0,0(v1)
D:\loongson\works\ls1d-mylib\lib\test/exint.c:20
bfc05dc4:	3c02a000 	lui	v0,0xa000
bfc05dc8:	8c421258 	lw	v0,4696(v0)
bfc05dcc:	2c420004 	sltiu	v0,v0,4
bfc05dd0:	14400007 	bnez	v0,bfc05df0 <ls1d_exint_test+0xd0>
bfc05dd4:	00000000 	nop
bfc05dd8:	3c02bfc1 	lui	v0,0xbfc1
bfc05ddc:	2444cc34 	addiu	a0,v0,-13260
bfc05de0:	3c02bfc1 	lui	v0,0xbfc1
bfc05de4:	2459bcb0 	addiu	t9,v0,-17232
bfc05de8:	0320f809 	jalr	t9
bfc05dec:	00000000 	nop
D:\loongson\works\ls1d-mylib\lib\test/exint.c:22
bfc05df0:	8fc20010 	lw	v0,16(s8)
bfc05df4:	30420002 	andi	v0,v0,0x2
bfc05df8:	10400013 	beqz	v0,bfc05e48 <ls1d_exint_test+0x128>
bfc05dfc:	00000000 	nop
D:\loongson\works\ls1d-mylib\lib\test/exint.c:24
bfc05e00:	3c02bfeb 	lui	v0,0xbfeb
bfc05e04:	34430044 	ori	v1,v0,0x44
bfc05e08:	3c02bfeb 	lui	v0,0xbfeb
bfc05e0c:	34420044 	ori	v0,v0,0x44
bfc05e10:	8c420000 	lw	v0,0(v0)
bfc05e14:	34420002 	ori	v0,v0,0x2
bfc05e18:	ac620000 	sw	v0,0(v1)
D:\loongson\works\ls1d-mylib\lib\test/exint.c:25
bfc05e1c:	3c02a000 	lui	v0,0xa000
bfc05e20:	8c421258 	lw	v0,4696(v0)
bfc05e24:	2c420004 	sltiu	v0,v0,4
bfc05e28:	14400007 	bnez	v0,bfc05e48 <ls1d_exint_test+0x128>
bfc05e2c:	00000000 	nop
bfc05e30:	3c02bfc1 	lui	v0,0xbfc1
bfc05e34:	2444cc48 	addiu	a0,v0,-13240
bfc05e38:	3c02bfc1 	lui	v0,0xbfc1
bfc05e3c:	2459bcb0 	addiu	t9,v0,-17232
bfc05e40:	0320f809 	jalr	t9
bfc05e44:	00000000 	nop
D:\loongson\works\ls1d-mylib\lib\test/exint.c:27
bfc05e48:	8fc20010 	lw	v0,16(s8)
bfc05e4c:	30420004 	andi	v0,v0,0x4
bfc05e50:	10400013 	beqz	v0,bfc05ea0 <ls1d_exint_test+0x180>
bfc05e54:	00000000 	nop
D:\loongson\works\ls1d-mylib\lib\test/exint.c:29
bfc05e58:	3c02bfeb 	lui	v0,0xbfeb
bfc05e5c:	34430044 	ori	v1,v0,0x44
bfc05e60:	3c02bfeb 	lui	v0,0xbfeb
bfc05e64:	34420044 	ori	v0,v0,0x44
bfc05e68:	8c420000 	lw	v0,0(v0)
bfc05e6c:	34420004 	ori	v0,v0,0x4
bfc05e70:	ac620000 	sw	v0,0(v1)
D:\loongson\works\ls1d-mylib\lib\test/exint.c:30
bfc05e74:	3c02a000 	lui	v0,0xa000
bfc05e78:	8c421258 	lw	v0,4696(v0)
bfc05e7c:	2c420004 	sltiu	v0,v0,4
bfc05e80:	14400007 	bnez	v0,bfc05ea0 <ls1d_exint_test+0x180>
bfc05e84:	00000000 	nop
bfc05e88:	3c02bfc1 	lui	v0,0xbfc1
bfc05e8c:	2444cc5c 	addiu	a0,v0,-13220
bfc05e90:	3c02bfc1 	lui	v0,0xbfc1
bfc05e94:	2459bcb0 	addiu	t9,v0,-17232
bfc05e98:	0320f809 	jalr	t9
bfc05e9c:	00000000 	nop
D:\loongson\works\ls1d-mylib\lib\test/exint.c:32
bfc05ea0:	8fc20010 	lw	v0,16(s8)
bfc05ea4:	30420008 	andi	v0,v0,0x8
bfc05ea8:	10400013 	beqz	v0,bfc05ef8 <ls1d_exint_test+0x1d8>
bfc05eac:	00000000 	nop
D:\loongson\works\ls1d-mylib\lib\test/exint.c:34
bfc05eb0:	3c02bfeb 	lui	v0,0xbfeb
bfc05eb4:	34430044 	ori	v1,v0,0x44
bfc05eb8:	3c02bfeb 	lui	v0,0xbfeb
bfc05ebc:	34420044 	ori	v0,v0,0x44
bfc05ec0:	8c420000 	lw	v0,0(v0)
bfc05ec4:	34420008 	ori	v0,v0,0x8
bfc05ec8:	ac620000 	sw	v0,0(v1)
D:\loongson\works\ls1d-mylib\lib\test/exint.c:35
bfc05ecc:	3c02a000 	lui	v0,0xa000
bfc05ed0:	8c421258 	lw	v0,4696(v0)
bfc05ed4:	2c420004 	sltiu	v0,v0,4
bfc05ed8:	14400007 	bnez	v0,bfc05ef8 <ls1d_exint_test+0x1d8>
bfc05edc:	00000000 	nop
bfc05ee0:	3c02bfc1 	lui	v0,0xbfc1
bfc05ee4:	2444cc78 	addiu	a0,v0,-13192
bfc05ee8:	3c02bfc1 	lui	v0,0xbfc1
bfc05eec:	2459bcb0 	addiu	t9,v0,-17232
bfc05ef0:	0320f809 	jalr	t9
bfc05ef4:	00000000 	nop
D:\loongson\works\ls1d-mylib\lib\test/exint.c:37
bfc05ef8:	8fc20010 	lw	v0,16(s8)
bfc05efc:	30420010 	andi	v0,v0,0x10
bfc05f00:	10400013 	beqz	v0,bfc05f50 <ls1d_exint_test+0x230>
bfc05f04:	00000000 	nop
D:\loongson\works\ls1d-mylib\lib\test/exint.c:39
bfc05f08:	3c02bfeb 	lui	v0,0xbfeb
bfc05f0c:	34430044 	ori	v1,v0,0x44
bfc05f10:	3c02bfeb 	lui	v0,0xbfeb
bfc05f14:	34420044 	ori	v0,v0,0x44
bfc05f18:	8c420000 	lw	v0,0(v0)
bfc05f1c:	34420010 	ori	v0,v0,0x10
bfc05f20:	ac620000 	sw	v0,0(v1)
D:\loongson\works\ls1d-mylib\lib\test/exint.c:40
bfc05f24:	3c02a000 	lui	v0,0xa000
bfc05f28:	8c421258 	lw	v0,4696(v0)
bfc05f2c:	2c420004 	sltiu	v0,v0,4
bfc05f30:	14400007 	bnez	v0,bfc05f50 <ls1d_exint_test+0x230>
bfc05f34:	00000000 	nop
bfc05f38:	3c02bfc1 	lui	v0,0xbfc1
bfc05f3c:	2444cc94 	addiu	a0,v0,-13164
bfc05f40:	3c02bfc1 	lui	v0,0xbfc1
bfc05f44:	2459bcb0 	addiu	t9,v0,-17232
bfc05f48:	0320f809 	jalr	t9
bfc05f4c:	00000000 	nop
D:\loongson\works\ls1d-mylib\lib\test/exint.c:42
bfc05f50:	8fc20010 	lw	v0,16(s8)
bfc05f54:	30420020 	andi	v0,v0,0x20
bfc05f58:	10400013 	beqz	v0,bfc05fa8 <ls1d_exint_test+0x288>
bfc05f5c:	00000000 	nop
D:\loongson\works\ls1d-mylib\lib\test/exint.c:44
bfc05f60:	3c02bfeb 	lui	v0,0xbfeb
bfc05f64:	34430044 	ori	v1,v0,0x44
bfc05f68:	3c02bfeb 	lui	v0,0xbfeb
bfc05f6c:	34420044 	ori	v0,v0,0x44
bfc05f70:	8c420000 	lw	v0,0(v0)
bfc05f74:	34420020 	ori	v0,v0,0x20
bfc05f78:	ac620000 	sw	v0,0(v1)
D:\loongson\works\ls1d-mylib\lib\test/exint.c:45
bfc05f7c:	3c02a000 	lui	v0,0xa000
bfc05f80:	8c421258 	lw	v0,4696(v0)
bfc05f84:	2c420004 	sltiu	v0,v0,4
bfc05f88:	14400007 	bnez	v0,bfc05fa8 <ls1d_exint_test+0x288>
bfc05f8c:	00000000 	nop
bfc05f90:	3c02bfc1 	lui	v0,0xbfc1
bfc05f94:	2444ccb0 	addiu	a0,v0,-13136
bfc05f98:	3c02bfc1 	lui	v0,0xbfc1
bfc05f9c:	2459bcb0 	addiu	t9,v0,-17232
bfc05fa0:	0320f809 	jalr	t9
bfc05fa4:	00000000 	nop
D:\loongson\works\ls1d-mylib\lib\test/exint.c:47
bfc05fa8:	8fc20010 	lw	v0,16(s8)
bfc05fac:	30420040 	andi	v0,v0,0x40
bfc05fb0:	10400013 	beqz	v0,bfc06000 <ls1d_exint_test+0x2e0>
bfc05fb4:	00000000 	nop
D:\loongson\works\ls1d-mylib\lib\test/exint.c:49
bfc05fb8:	3c02bfeb 	lui	v0,0xbfeb
bfc05fbc:	34430044 	ori	v1,v0,0x44
bfc05fc0:	3c02bfeb 	lui	v0,0xbfeb
bfc05fc4:	34420044 	ori	v0,v0,0x44
bfc05fc8:	8c420000 	lw	v0,0(v0)
bfc05fcc:	34420040 	ori	v0,v0,0x40
bfc05fd0:	ac620000 	sw	v0,0(v1)
D:\loongson\works\ls1d-mylib\lib\test/exint.c:50
bfc05fd4:	3c02a000 	lui	v0,0xa000
bfc05fd8:	8c421258 	lw	v0,4696(v0)
bfc05fdc:	2c420004 	sltiu	v0,v0,4
bfc05fe0:	14400007 	bnez	v0,bfc06000 <ls1d_exint_test+0x2e0>
bfc05fe4:	00000000 	nop
bfc05fe8:	3c02bfc1 	lui	v0,0xbfc1
bfc05fec:	2444cccc 	addiu	a0,v0,-13108
bfc05ff0:	3c02bfc1 	lui	v0,0xbfc1
bfc05ff4:	2459bcb0 	addiu	t9,v0,-17232
bfc05ff8:	0320f809 	jalr	t9
bfc05ffc:	00000000 	nop
D:\loongson\works\ls1d-mylib\lib\test/exint.c:52
bfc06000:	8fc20010 	lw	v0,16(s8)
bfc06004:	30420080 	andi	v0,v0,0x80
bfc06008:	10400013 	beqz	v0,bfc06058 <ls1d_exint_test+0x338>
bfc0600c:	00000000 	nop
D:\loongson\works\ls1d-mylib\lib\test/exint.c:54
bfc06010:	3c02bfeb 	lui	v0,0xbfeb
bfc06014:	34430044 	ori	v1,v0,0x44
bfc06018:	3c02bfeb 	lui	v0,0xbfeb
bfc0601c:	34420044 	ori	v0,v0,0x44
bfc06020:	8c420000 	lw	v0,0(v0)
bfc06024:	34420080 	ori	v0,v0,0x80
bfc06028:	ac620000 	sw	v0,0(v1)
D:\loongson\works\ls1d-mylib\lib\test/exint.c:55
bfc0602c:	3c02a000 	lui	v0,0xa000
bfc06030:	8c421258 	lw	v0,4696(v0)
bfc06034:	2c420004 	sltiu	v0,v0,4
bfc06038:	14400007 	bnez	v0,bfc06058 <ls1d_exint_test+0x338>
bfc0603c:	00000000 	nop
bfc06040:	3c02bfc1 	lui	v0,0xbfc1
bfc06044:	2444cce8 	addiu	a0,v0,-13080
bfc06048:	3c02bfc1 	lui	v0,0xbfc1
bfc0604c:	2459bcb0 	addiu	t9,v0,-17232
bfc06050:	0320f809 	jalr	t9
bfc06054:	00000000 	nop
D:\loongson\works\ls1d-mylib\lib\test/exint.c:74
bfc06058:	8fc20010 	lw	v0,16(s8)
bfc0605c:	30420800 	andi	v0,v0,0x800
bfc06060:	10400013 	beqz	v0,bfc060b0 <ls1d_exint_test+0x390>
bfc06064:	00000000 	nop
D:\loongson\works\ls1d-mylib\lib\test/exint.c:76
bfc06068:	3c02bfeb 	lui	v0,0xbfeb
bfc0606c:	34430044 	ori	v1,v0,0x44
bfc06070:	3c02bfeb 	lui	v0,0xbfeb
bfc06074:	34420044 	ori	v0,v0,0x44
bfc06078:	8c420000 	lw	v0,0(v0)
bfc0607c:	34420800 	ori	v0,v0,0x800
bfc06080:	ac620000 	sw	v0,0(v1)
D:\loongson\works\ls1d-mylib\lib\test/exint.c:77
bfc06084:	3c02a000 	lui	v0,0xa000
bfc06088:	8c421258 	lw	v0,4696(v0)
bfc0608c:	2c420004 	sltiu	v0,v0,4
bfc06090:	14400007 	bnez	v0,bfc060b0 <ls1d_exint_test+0x390>
bfc06094:	00000000 	nop
bfc06098:	3c02bfc1 	lui	v0,0xbfc1
bfc0609c:	2444cd04 	addiu	a0,v0,-13052
bfc060a0:	3c02bfc1 	lui	v0,0xbfc1
bfc060a4:	2459bcb0 	addiu	t9,v0,-17232
bfc060a8:	0320f809 	jalr	t9
bfc060ac:	00000000 	nop
D:\loongson\works\ls1d-mylib\lib\test/exint.c:79
bfc060b0:	8fc20010 	lw	v0,16(s8)
bfc060b4:	30421000 	andi	v0,v0,0x1000
bfc060b8:	10400013 	beqz	v0,bfc06108 <ls1d_exint_test+0x3e8>
bfc060bc:	00000000 	nop
D:\loongson\works\ls1d-mylib\lib\test/exint.c:81
bfc060c0:	3c02bfeb 	lui	v0,0xbfeb
bfc060c4:	34430044 	ori	v1,v0,0x44
bfc060c8:	3c02bfeb 	lui	v0,0xbfeb
bfc060cc:	34420044 	ori	v0,v0,0x44
bfc060d0:	8c420000 	lw	v0,0(v0)
bfc060d4:	34421000 	ori	v0,v0,0x1000
bfc060d8:	ac620000 	sw	v0,0(v1)
D:\loongson\works\ls1d-mylib\lib\test/exint.c:82
bfc060dc:	3c02a000 	lui	v0,0xa000
bfc060e0:	8c421258 	lw	v0,4696(v0)
bfc060e4:	2c420004 	sltiu	v0,v0,4
bfc060e8:	14400007 	bnez	v0,bfc06108 <ls1d_exint_test+0x3e8>
bfc060ec:	00000000 	nop
bfc060f0:	3c02bfc1 	lui	v0,0xbfc1
bfc060f4:	2444cd20 	addiu	a0,v0,-13024
bfc060f8:	3c02bfc1 	lui	v0,0xbfc1
bfc060fc:	2459bcb0 	addiu	t9,v0,-17232
bfc06100:	0320f809 	jalr	t9
bfc06104:	00000000 	nop
D:\loongson\works\ls1d-mylib\lib\test/exint.c:84
bfc06108:	8fc20010 	lw	v0,16(s8)
bfc0610c:	30422000 	andi	v0,v0,0x2000
bfc06110:	10400013 	beqz	v0,bfc06160 <ls1d_exint_test+0x440>
bfc06114:	00000000 	nop
D:\loongson\works\ls1d-mylib\lib\test/exint.c:86
bfc06118:	3c02bfeb 	lui	v0,0xbfeb
bfc0611c:	34430044 	ori	v1,v0,0x44
bfc06120:	3c02bfeb 	lui	v0,0xbfeb
bfc06124:	34420044 	ori	v0,v0,0x44
bfc06128:	8c420000 	lw	v0,0(v0)
bfc0612c:	34422000 	ori	v0,v0,0x2000
bfc06130:	ac620000 	sw	v0,0(v1)
D:\loongson\works\ls1d-mylib\lib\test/exint.c:87
bfc06134:	3c02a000 	lui	v0,0xa000
bfc06138:	8c421258 	lw	v0,4696(v0)
bfc0613c:	2c420004 	sltiu	v0,v0,4
bfc06140:	14400007 	bnez	v0,bfc06160 <ls1d_exint_test+0x440>
bfc06144:	00000000 	nop
bfc06148:	3c02bfc1 	lui	v0,0xbfc1
bfc0614c:	2444cd3c 	addiu	a0,v0,-12996
bfc06150:	3c02bfc1 	lui	v0,0xbfc1
bfc06154:	2459bcb0 	addiu	t9,v0,-17232
bfc06158:	0320f809 	jalr	t9
bfc0615c:	00000000 	nop
D:\loongson\works\ls1d-mylib\lib\test/exint.c:89
bfc06160:	8fc20010 	lw	v0,16(s8)
bfc06164:	30424000 	andi	v0,v0,0x4000
bfc06168:	10400013 	beqz	v0,bfc061b8 <ls1d_exint_test+0x498>
bfc0616c:	00000000 	nop
D:\loongson\works\ls1d-mylib\lib\test/exint.c:91
bfc06170:	3c02bfeb 	lui	v0,0xbfeb
bfc06174:	34430044 	ori	v1,v0,0x44
bfc06178:	3c02bfeb 	lui	v0,0xbfeb
bfc0617c:	34420044 	ori	v0,v0,0x44
bfc06180:	8c420000 	lw	v0,0(v0)
bfc06184:	34424000 	ori	v0,v0,0x4000
bfc06188:	ac620000 	sw	v0,0(v1)
D:\loongson\works\ls1d-mylib\lib\test/exint.c:92
bfc0618c:	3c02a000 	lui	v0,0xa000
bfc06190:	8c421258 	lw	v0,4696(v0)
bfc06194:	2c420004 	sltiu	v0,v0,4
bfc06198:	14400007 	bnez	v0,bfc061b8 <ls1d_exint_test+0x498>
bfc0619c:	00000000 	nop
bfc061a0:	3c02bfc1 	lui	v0,0xbfc1
bfc061a4:	2444cd58 	addiu	a0,v0,-12968
bfc061a8:	3c02bfc1 	lui	v0,0xbfc1
bfc061ac:	2459bcb0 	addiu	t9,v0,-17232
bfc061b0:	0320f809 	jalr	t9
bfc061b4:	00000000 	nop
D:\loongson\works\ls1d-mylib\lib\test/exint.c:94
bfc061b8:	8fc20010 	lw	v0,16(s8)
bfc061bc:	30428000 	andi	v0,v0,0x8000
bfc061c0:	10400013 	beqz	v0,bfc06210 <ls1d_exint_test+0x4f0>
bfc061c4:	00000000 	nop
D:\loongson\works\ls1d-mylib\lib\test/exint.c:96
bfc061c8:	3c02bfeb 	lui	v0,0xbfeb
bfc061cc:	34430044 	ori	v1,v0,0x44
bfc061d0:	3c02bfeb 	lui	v0,0xbfeb
bfc061d4:	34420044 	ori	v0,v0,0x44
bfc061d8:	8c420000 	lw	v0,0(v0)
bfc061dc:	34428000 	ori	v0,v0,0x8000
bfc061e0:	ac620000 	sw	v0,0(v1)
D:\loongson\works\ls1d-mylib\lib\test/exint.c:97
bfc061e4:	3c02a000 	lui	v0,0xa000
bfc061e8:	8c421258 	lw	v0,4696(v0)
bfc061ec:	2c420004 	sltiu	v0,v0,4
bfc061f0:	14400007 	bnez	v0,bfc06210 <ls1d_exint_test+0x4f0>
bfc061f4:	00000000 	nop
bfc061f8:	3c02bfc1 	lui	v0,0xbfc1
bfc061fc:	2444cd74 	addiu	a0,v0,-12940
bfc06200:	3c02bfc1 	lui	v0,0xbfc1
bfc06204:	2459bcb0 	addiu	t9,v0,-17232
bfc06208:	0320f809 	jalr	t9
bfc0620c:	00000000 	nop
D:\loongson\works\ls1d-mylib\lib\test/exint.c:100
bfc06210:	03c0e821 	move	sp,s8
bfc06214:	8fbf001c 	lw	ra,28(sp)
bfc06218:	8fbe0018 	lw	s8,24(sp)
bfc0621c:	27bd0020 	addiu	sp,sp,32
bfc06220:	03e00008 	jr	ra
bfc06224:	00000000 	nop
bfc06228:	00000000 	nop
bfc0622c:	00000000 	nop

bfc06230 <do_exit>:
do_exit():
D:\loongson\works\ls1d-mylib\lib\test/cmdline.c:51
bfc06230:	27bdfff8 	addiu	sp,sp,-8
bfc06234:	afbe0004 	sw	s8,4(sp)
bfc06238:	03a0f021 	move	s8,sp
D:\loongson\works\ls1d-mylib\lib\test/cmdline.c:52
bfc0623c:	00001021 	move	v0,zero
D:\loongson\works\ls1d-mylib\lib\test/cmdline.c:53
bfc06240:	03c0e821 	move	sp,s8
bfc06244:	8fbe0004 	lw	s8,4(sp)
bfc06248:	27bd0008 	addiu	sp,sp,8
bfc0624c:	03e00008 	jr	ra
bfc06250:	00000000 	nop

bfc06254 <do_nothing>:
do_nothing():
D:\loongson\works\ls1d-mylib\lib\test/cmdline.c:55
bfc06254:	27bdfff8 	addiu	sp,sp,-8
bfc06258:	afbe0004 	sw	s8,4(sp)
bfc0625c:	03a0f021 	move	s8,sp
D:\loongson\works\ls1d-mylib\lib\test/cmdline.c:56
bfc06260:	00001021 	move	v0,zero
D:\loongson\works\ls1d-mylib\lib\test/cmdline.c:57
bfc06264:	03c0e821 	move	sp,s8
bfc06268:	8fbe0004 	lw	s8,4(sp)
bfc0626c:	27bd0008 	addiu	sp,sp,8
bfc06270:	03e00008 	jr	ra
bfc06274:	00000000 	nop

bfc06278 <do_help>:
do_help():
D:\loongson\works\ls1d-mylib\lib\test/cmdline.c:59
bfc06278:	27bdffe0 	addiu	sp,sp,-32
bfc0627c:	afbf001c 	sw	ra,28(sp)
bfc06280:	afbe0018 	sw	s8,24(sp)
bfc06284:	03a0f021 	move	s8,sp
bfc06288:	afc40020 	sw	a0,32(s8)
bfc0628c:	afc50024 	sw	a1,36(s8)
D:\loongson\works\ls1d-mylib\lib\test/cmdline.c:62
bfc06290:	8fc20020 	lw	v0,32(s8)
bfc06294:	28420002 	slti	v0,v0,2
bfc06298:	10400042 	beqz	v0,bfc063a4 <do_help+0x12c>
bfc0629c:	00000000 	nop
D:\loongson\works\ls1d-mylib\lib\test/cmdline.c:64
bfc062a0:	3c02a000 	lui	v0,0xa000
bfc062a4:	8c421258 	lw	v0,4696(v0)
bfc062a8:	10400007 	beqz	v0,bfc062c8 <do_help+0x50>
bfc062ac:	00000000 	nop
bfc062b0:	3c02bfc1 	lui	v0,0xbfc1
bfc062b4:	2444d330 	addiu	a0,v0,-11472
bfc062b8:	3c02bfc1 	lui	v0,0xbfc1
bfc062bc:	2459bcb0 	addiu	t9,v0,-17232
bfc062c0:	0320f809 	jalr	t9
bfc062c4:	00000000 	nop
D:\loongson\works\ls1d-mylib\lib\test/cmdline.c:65
bfc062c8:	afc00014 	sw	zero,20(s8)
bfc062cc:	0bf018dd 	j	bfc06374 <do_help+0xfc>
bfc062d0:	00000000 	nop
D:\loongson\works\ls1d-mylib\lib\test/cmdline.c:67
bfc062d4:	3c02a000 	lui	v0,0xa000
bfc062d8:	8c421258 	lw	v0,4696(v0)
bfc062dc:	2c420002 	sltiu	v0,v0,2
bfc062e0:	14400021 	bnez	v0,bfc06368 <do_help+0xf0>
bfc062e4:	00000000 	nop
bfc062e8:	8fc20014 	lw	v0,20(s8)
bfc062ec:	3c04bfc1 	lui	a0,0xbfc1
bfc062f0:	00021080 	sll	v0,v0,0x2
bfc062f4:	00021880 	sll	v1,v0,0x2
bfc062f8:	00431021 	addu	v0,v0,v1
bfc062fc:	2483d7f0 	addiu	v1,a0,-10256
bfc06300:	00431021 	addu	v0,v0,v1
bfc06304:	8c450000 	lw	a1,0(v0)
bfc06308:	8fc30014 	lw	v1,20(s8)
bfc0630c:	3c02bfc1 	lui	v0,0xbfc1
bfc06310:	2444d7f0 	addiu	a0,v0,-10256
bfc06314:	00601021 	move	v0,v1
bfc06318:	00021880 	sll	v1,v0,0x2
bfc0631c:	00031080 	sll	v0,v1,0x2
bfc06320:	00621021 	addu	v0,v1,v0
bfc06324:	00821021 	addu	v0,a0,v0
bfc06328:	8c46000c 	lw	a2,12(v0)
bfc0632c:	8fc20014 	lw	v0,20(s8)
bfc06330:	3c04bfc1 	lui	a0,0xbfc1
bfc06334:	00021080 	sll	v0,v0,0x2
bfc06338:	00021880 	sll	v1,v0,0x2
bfc0633c:	00431021 	addu	v0,v0,v1
bfc06340:	2483d7f0 	addiu	v1,a0,-10256
bfc06344:	00431021 	addu	v0,v0,v1
bfc06348:	8c430010 	lw	v1,16(v0)
bfc0634c:	3c02bfc1 	lui	v0,0xbfc1
bfc06350:	2444d33c 	addiu	a0,v0,-11460
bfc06354:	00603821 	move	a3,v1
bfc06358:	3c02bfc1 	lui	v0,0xbfc1
bfc0635c:	2459be10 	addiu	t9,v0,-16880
bfc06360:	0320f809 	jalr	t9
bfc06364:	00000000 	nop
D:\loongson\works\ls1d-mylib\lib\test/cmdline.c:65
bfc06368:	8fc20014 	lw	v0,20(s8)
bfc0636c:	24420001 	addiu	v0,v0,1
bfc06370:	afc20014 	sw	v0,20(s8)
bfc06374:	8fc20014 	lw	v0,20(s8)
bfc06378:	3c04bfc1 	lui	a0,0xbfc1
bfc0637c:	00021080 	sll	v0,v0,0x2
bfc06380:	00021880 	sll	v1,v0,0x2
bfc06384:	00431021 	addu	v0,v0,v1
bfc06388:	2483d7f0 	addiu	v1,a0,-10256
bfc0638c:	00431021 	addu	v0,v0,v1
bfc06390:	8c420000 	lw	v0,0(v0)
bfc06394:	1440ffcf 	bnez	v0,bfc062d4 <do_help+0x5c>
bfc06398:	00000000 	nop
bfc0639c:	0bf01949 	j	bfc06524 <do_help+0x2ac>
bfc063a0:	00000000 	nop
D:\loongson\works\ls1d-mylib\lib\test/cmdline.c:72
bfc063a4:	8fc20024 	lw	v0,36(s8)
bfc063a8:	24420004 	addiu	v0,v0,4
bfc063ac:	8c420000 	lw	v0,0(v0)
bfc063b0:	afc20010 	sw	v0,16(s8)
D:\loongson\works\ls1d-mylib\lib\test/cmdline.c:73
bfc063b4:	afc00014 	sw	zero,20(s8)
bfc063b8:	0bf0192a 	j	bfc064a8 <do_help+0x230>
bfc063bc:	00000000 	nop
D:\loongson\works\ls1d-mylib\lib\test/cmdline.c:75
bfc063c0:	8fc20014 	lw	v0,20(s8)
bfc063c4:	3c04bfc1 	lui	a0,0xbfc1
bfc063c8:	00021080 	sll	v0,v0,0x2
bfc063cc:	00021880 	sll	v1,v0,0x2
bfc063d0:	00431021 	addu	v0,v0,v1
bfc063d4:	2483d7f0 	addiu	v1,a0,-10256
bfc063d8:	00431021 	addu	v0,v0,v1
bfc063dc:	8c420000 	lw	v0,0(v0)
bfc063e0:	8fc40010 	lw	a0,16(s8)
bfc063e4:	00402821 	move	a1,v0
bfc063e8:	3c02bfc1 	lui	v0,0xbfc1
bfc063ec:	2459bd50 	addiu	t9,v0,-17072
bfc063f0:	0320f809 	jalr	t9
bfc063f4:	00000000 	nop
bfc063f8:	14400028 	bnez	v0,bfc0649c <do_help+0x224>
bfc063fc:	00000000 	nop
D:\loongson\works\ls1d-mylib\lib\test/cmdline.c:77
bfc06400:	3c02a000 	lui	v0,0xa000
bfc06404:	8c421258 	lw	v0,4696(v0)
bfc06408:	2c420002 	sltiu	v0,v0,2
bfc0640c:	14400030 	bnez	v0,bfc064d0 <do_help+0x258>
bfc06410:	00000000 	nop
bfc06414:	8fc20014 	lw	v0,20(s8)
bfc06418:	3c04bfc1 	lui	a0,0xbfc1
bfc0641c:	00021080 	sll	v0,v0,0x2
bfc06420:	00021880 	sll	v1,v0,0x2
bfc06424:	00431021 	addu	v0,v0,v1
bfc06428:	2483d7f0 	addiu	v1,a0,-10256
bfc0642c:	00431021 	addu	v0,v0,v1
bfc06430:	8c450000 	lw	a1,0(v0)
bfc06434:	8fc30014 	lw	v1,20(s8)
bfc06438:	3c02bfc1 	lui	v0,0xbfc1
bfc0643c:	2444d7f0 	addiu	a0,v0,-10256
bfc06440:	00601021 	move	v0,v1
bfc06444:	00021880 	sll	v1,v0,0x2
bfc06448:	00031080 	sll	v0,v1,0x2
bfc0644c:	00621021 	addu	v0,v1,v0
bfc06450:	00821021 	addu	v0,a0,v0
bfc06454:	8c46000c 	lw	a2,12(v0)
bfc06458:	8fc20014 	lw	v0,20(s8)
bfc0645c:	3c04bfc1 	lui	a0,0xbfc1
bfc06460:	00021080 	sll	v0,v0,0x2
bfc06464:	00021880 	sll	v1,v0,0x2
bfc06468:	00431021 	addu	v0,v0,v1
bfc0646c:	2483d7f0 	addiu	v1,a0,-10256
bfc06470:	00431021 	addu	v0,v0,v1
bfc06474:	8c430010 	lw	v1,16(v0)
bfc06478:	3c02bfc1 	lui	v0,0xbfc1
bfc0647c:	2444d348 	addiu	a0,v0,-11448
bfc06480:	00603821 	move	a3,v1
bfc06484:	3c02bfc1 	lui	v0,0xbfc1
bfc06488:	2459be10 	addiu	t9,v0,-16880
bfc0648c:	0320f809 	jalr	t9
bfc06490:	00000000 	nop
bfc06494:	0bf01934 	j	bfc064d0 <do_help+0x258>
bfc06498:	00000000 	nop
D:\loongson\works\ls1d-mylib\lib\test/cmdline.c:73
bfc0649c:	8fc20014 	lw	v0,20(s8)
bfc064a0:	24420001 	addiu	v0,v0,1
bfc064a4:	afc20014 	sw	v0,20(s8)
bfc064a8:	8fc20014 	lw	v0,20(s8)
bfc064ac:	3c04bfc1 	lui	a0,0xbfc1
bfc064b0:	00021080 	sll	v0,v0,0x2
bfc064b4:	00021880 	sll	v1,v0,0x2
bfc064b8:	00431021 	addu	v0,v0,v1
bfc064bc:	2483d7f0 	addiu	v1,a0,-10256
bfc064c0:	00431021 	addu	v0,v0,v1
bfc064c4:	8c420000 	lw	v0,0(v0)
bfc064c8:	1440ffbd 	bnez	v0,bfc063c0 <do_help+0x148>
bfc064cc:	00000000 	nop
D:\loongson\works\ls1d-mylib\lib\test/cmdline.c:81
bfc064d0:	8fc20014 	lw	v0,20(s8)
bfc064d4:	3c04bfc1 	lui	a0,0xbfc1
bfc064d8:	00021080 	sll	v0,v0,0x2
bfc064dc:	00021880 	sll	v1,v0,0x2
bfc064e0:	00431021 	addu	v0,v0,v1
bfc064e4:	2483d7f0 	addiu	v1,a0,-10256
bfc064e8:	00431021 	addu	v0,v0,v1
bfc064ec:	8c420000 	lw	v0,0(v0)
bfc064f0:	1440000c 	bnez	v0,bfc06524 <do_help+0x2ac>
bfc064f4:	00000000 	nop
D:\loongson\works\ls1d-mylib\lib\test/cmdline.c:83
bfc064f8:	3c02a000 	lui	v0,0xa000
bfc064fc:	8c421258 	lw	v0,4696(v0)
bfc06500:	2c420002 	sltiu	v0,v0,2
bfc06504:	14400007 	bnez	v0,bfc06524 <do_help+0x2ac>
bfc06508:	00000000 	nop
bfc0650c:	3c02bfc1 	lui	v0,0xbfc1
bfc06510:	2444d354 	addiu	a0,v0,-11436
bfc06514:	3c02bfc1 	lui	v0,0xbfc1
bfc06518:	2459bcb0 	addiu	t9,v0,-17232
bfc0651c:	0320f809 	jalr	t9
bfc06520:	00000000 	nop
D:\loongson\works\ls1d-mylib\lib\test/cmdline.c:87
bfc06524:	00001021 	move	v0,zero
D:\loongson\works\ls1d-mylib\lib\test/cmdline.c:88
bfc06528:	03c0e821 	move	sp,s8
bfc0652c:	8fbf001c 	lw	ra,28(sp)
bfc06530:	8fbe0018 	lw	s8,24(sp)
bfc06534:	27bd0020 	addiu	sp,sp,32
bfc06538:	03e00008 	jr	ra
bfc0653c:	00000000 	nop

bfc06540 <cmdline>:
cmdline():
D:\loongson\works\ls1d-mylib\lib\test/cmdline.c:92
bfc06540:	27bdfe70 	addiu	sp,sp,-400
bfc06544:	afbf018c 	sw	ra,396(sp)
bfc06548:	afbe0188 	sw	s8,392(sp)
bfc0654c:	03a0f021 	move	s8,sp
D:\loongson\works\ls1d-mylib\lib\test/cmdline.c:101
bfc06550:	2402000b 	li	v0,11
bfc06554:	afc20014 	sw	v0,20(s8)
D:\loongson\works\ls1d-mylib\lib\test/cmdline.c:102
bfc06558:	afc00010 	sw	zero,16(s8)
D:\loongson\works\ls1d-mylib\lib\test/cmdline.c:108
bfc0655c:	a7c0001e 	sh	zero,30(s8)
bfc06560:	0bf01961 	j	bfc06584 <cmdline+0x44>
bfc06564:	00000000 	nop
D:\loongson\works\ls1d-mylib\lib\test/cmdline.c:109
bfc06568:	87c3001e 	lh	v1,30(s8)
bfc0656c:	27c20010 	addiu	v0,s8,16
bfc06570:	00431021 	addu	v0,v0,v1
bfc06574:	a0400020 	sb	zero,32(v0)
D:\loongson\works\ls1d-mylib\lib\test/cmdline.c:108
bfc06578:	97c2001e 	lhu	v0,30(s8)
bfc0657c:	24420001 	addiu	v0,v0,1
bfc06580:	a7c2001e 	sh	v0,30(s8)
bfc06584:	87c2001e 	lh	v0,30(s8)
bfc06588:	28420028 	slti	v0,v0,40
bfc0658c:	1440fff6 	bnez	v0,bfc06568 <cmdline+0x28>
bfc06590:	00000000 	nop
D:\loongson\works\ls1d-mylib\lib\test/cmdline.c:110
bfc06594:	3c02a000 	lui	v0,0xa000
bfc06598:	8c421258 	lw	v0,4696(v0)
bfc0659c:	10400007 	beqz	v0,bfc065bc <cmdline+0x7c>
bfc065a0:	00000000 	nop
bfc065a4:	3c02bfc1 	lui	v0,0xbfc1
bfc065a8:	2444d374 	addiu	a0,v0,-11404
bfc065ac:	3c02bfc1 	lui	v0,0xbfc1
bfc065b0:	2459be10 	addiu	t9,v0,-16880
bfc065b4:	0320f809 	jalr	t9
bfc065b8:	00000000 	nop
D:\loongson\works\ls1d-mylib\lib\test/cmdline.c:111
bfc065bc:	27c20058 	addiu	v0,s8,88
bfc065c0:	afc20024 	sw	v0,36(s8)
D:\loongson\works\ls1d-mylib\lib\test/cmdline.c:112
bfc065c4:	a7c00020 	sh	zero,32(s8)
D:\loongson\works\ls1d-mylib\lib\test/cmdline.c:116
bfc065c8:	3c02bfc0 	lui	v0,0xbfc0
bfc065cc:	245976b4 	addiu	t9,v0,30388
bfc065d0:	0320f809 	jalr	t9
bfc065d4:	00000000 	nop
bfc065d8:	a3c2002c 	sb	v0,44(s8)
D:\loongson\works\ls1d-mylib\lib\test/cmdline.c:117
bfc065dc:	83c2002c 	lb	v0,44(s8)
bfc065e0:	28420020 	slti	v0,v0,32
bfc065e4:	14400015 	bnez	v0,bfc0663c <cmdline+0xfc>
bfc065e8:	00000000 	nop
bfc065ec:	83c3002c 	lb	v1,44(s8)
bfc065f0:	2402007f 	li	v0,127
bfc065f4:	10620011 	beq	v1,v0,bfc0663c <cmdline+0xfc>
bfc065f8:	00000000 	nop
D:\loongson\works\ls1d-mylib\lib\test/cmdline.c:119
bfc065fc:	87c30020 	lh	v1,32(s8)
bfc06600:	27c20010 	addiu	v0,s8,16
bfc06604:	00431821 	addu	v1,v0,v1
bfc06608:	93c2002c 	lbu	v0,44(s8)
bfc0660c:	a0620020 	sb	v0,32(v1)
bfc06610:	97c20020 	lhu	v0,32(s8)
bfc06614:	24420001 	addiu	v0,v0,1
bfc06618:	a7c20020 	sh	v0,32(s8)
D:\loongson\works\ls1d-mylib\lib\test/cmdline.c:120
bfc0661c:	93c2002c 	lbu	v0,44(s8)
bfc06620:	00402021 	move	a0,v0
bfc06624:	3c02bfc0 	lui	v0,0xbfc0
bfc06628:	24597660 	addiu	t9,v0,30304
bfc0662c:	0320f809 	jalr	t9
bfc06630:	00000000 	nop
bfc06634:	0bf01972 	j	bfc065c8 <cmdline+0x88>
bfc06638:	00000000 	nop
D:\loongson\works\ls1d-mylib\lib\test/cmdline.c:122
bfc0663c:	83c3002c 	lb	v1,44(s8)
bfc06640:	24020008 	li	v0,8
bfc06644:	14620019 	bne	v1,v0,bfc066ac <cmdline+0x16c>
bfc06648:	00000000 	nop
D:\loongson\works\ls1d-mylib\lib\test/cmdline.c:124
bfc0664c:	97c20020 	lhu	v0,32(s8)
bfc06650:	2442ffff 	addiu	v0,v0,-1
bfc06654:	a7c20020 	sh	v0,32(s8)
D:\loongson\works\ls1d-mylib\lib\test/cmdline.c:125
bfc06658:	87c30020 	lh	v1,32(s8)
bfc0665c:	27c20010 	addiu	v0,s8,16
bfc06660:	00431021 	addu	v0,v0,v1
bfc06664:	a0400020 	sb	zero,32(v0)
D:\loongson\works\ls1d-mylib\lib\test/cmdline.c:126
bfc06668:	24040008 	li	a0,8
bfc0666c:	3c02bfc0 	lui	v0,0xbfc0
bfc06670:	24597660 	addiu	t9,v0,30304
bfc06674:	0320f809 	jalr	t9
bfc06678:	00000000 	nop
D:\loongson\works\ls1d-mylib\lib\test/cmdline.c:127
bfc0667c:	24040020 	li	a0,32
bfc06680:	3c02bfc0 	lui	v0,0xbfc0
bfc06684:	24597660 	addiu	t9,v0,30304
bfc06688:	0320f809 	jalr	t9
bfc0668c:	00000000 	nop
D:\loongson\works\ls1d-mylib\lib\test/cmdline.c:128
bfc06690:	24040008 	li	a0,8
bfc06694:	3c02bfc0 	lui	v0,0xbfc0
bfc06698:	24597660 	addiu	t9,v0,30304
bfc0669c:	0320f809 	jalr	t9
bfc066a0:	00000000 	nop
bfc066a4:	0bf01972 	j	bfc065c8 <cmdline+0x88>
bfc066a8:	00000000 	nop
D:\loongson\works\ls1d-mylib\lib\test/cmdline.c:130
bfc066ac:	83c3002c 	lb	v1,44(s8)
bfc066b0:	2402000a 	li	v0,10
bfc066b4:	10620005 	beq	v1,v0,bfc066cc <cmdline+0x18c>
bfc066b8:	00000000 	nop
bfc066bc:	83c3002c 	lb	v1,44(s8)
bfc066c0:	2402000d 	li	v0,13
bfc066c4:	1462ffc0 	bne	v1,v0,bfc065c8 <cmdline+0x88>
bfc066c8:	00000000 	nop
D:\loongson\works\ls1d-mylib\lib\test/cmdline.c:136
bfc066cc:	87c20020 	lh	v0,32(s8)
bfc066d0:	14400017 	bnez	v0,bfc06730 <cmdline+0x1f0>
bfc066d4:	00000000 	nop
D:\loongson\works\ls1d-mylib\lib\test/cmdline.c:148
bfc066d8:	8fc20014 	lw	v0,20(s8)
bfc066dc:	a7c2001e 	sh	v0,30(s8)
D:\loongson\works\ls1d-mylib\lib\test/cmdline.c:149
bfc066e0:	87c3001e 	lh	v1,30(s8)
bfc066e4:	3c02bfc1 	lui	v0,0xbfc1
bfc066e8:	2444d7f0 	addiu	a0,v0,-10256
bfc066ec:	00601021 	move	v0,v1
bfc066f0:	00021880 	sll	v1,v0,0x2
bfc066f4:	00031080 	sll	v0,v1,0x2
bfc066f8:	00621021 	addu	v0,v1,v0
bfc066fc:	00821021 	addu	v0,a0,v0
bfc06700:	8c420004 	lw	v0,4(v0)
bfc06704:	afc20028 	sw	v0,40(s8)
D:\loongson\works\ls1d-mylib\lib\test/cmdline.c:150
bfc06708:	8fc20010 	lw	v0,16(s8)
bfc0670c:	24420001 	addiu	v0,v0,1
bfc06710:	27c30168 	addiu	v1,s8,360
bfc06714:	8fd90028 	lw	t9,40(s8)
bfc06718:	00402021 	move	a0,v0
bfc0671c:	00602821 	move	a1,v1
bfc06720:	0320f809 	jalr	t9
bfc06724:	00000000 	nop
bfc06728:	0bf01957 	j	bfc0655c <cmdline+0x1c>
bfc0672c:	00000000 	nop
D:\loongson\works\ls1d-mylib\lib\test/cmdline.c:154
bfc06730:	a7c0001e 	sh	zero,30(s8)
bfc06734:	0bf019e5 	j	bfc06794 <cmdline+0x254>
bfc06738:	00000000 	nop
D:\loongson\works\ls1d-mylib\lib\test/cmdline.c:155
bfc0673c:	a7c0001c 	sh	zero,28(s8)
bfc06740:	0bf019de 	j	bfc06778 <cmdline+0x238>
bfc06744:	00000000 	nop
D:\loongson\works\ls1d-mylib\lib\test/cmdline.c:156
bfc06748:	87c3001e 	lh	v1,30(s8)
bfc0674c:	87c4001c 	lh	a0,28(s8)
bfc06750:	00601021 	move	v0,v1
bfc06754:	00021100 	sll	v0,v0,0x4
bfc06758:	00431023 	subu	v0,v0,v1
bfc0675c:	27c30010 	addiu	v1,s8,16
bfc06760:	00621021 	addu	v0,v1,v0
bfc06764:	00441021 	addu	v0,v0,a0
bfc06768:	a0400048 	sb	zero,72(v0)
D:\loongson\works\ls1d-mylib\lib\test/cmdline.c:155
bfc0676c:	97c2001c 	lhu	v0,28(s8)
bfc06770:	24420001 	addiu	v0,v0,1
bfc06774:	a7c2001c 	sh	v0,28(s8)
bfc06778:	87c2001c 	lh	v0,28(s8)
bfc0677c:	2842000f 	slti	v0,v0,15
bfc06780:	1440fff1 	bnez	v0,bfc06748 <cmdline+0x208>
bfc06784:	00000000 	nop
D:\loongson\works\ls1d-mylib\lib\test/cmdline.c:154
bfc06788:	97c2001e 	lhu	v0,30(s8)
bfc0678c:	24420001 	addiu	v0,v0,1
bfc06790:	a7c2001e 	sh	v0,30(s8)
bfc06794:	87c2001e 	lh	v0,30(s8)
bfc06798:	28420008 	slti	v0,v0,8
bfc0679c:	1440ffe7 	bnez	v0,bfc0673c <cmdline+0x1fc>
bfc067a0:	00000000 	nop
D:\loongson\works\ls1d-mylib\lib\test/cmdline.c:157
bfc067a4:	a7c00018 	sh	zero,24(s8)
D:\loongson\works\ls1d-mylib\lib\test/cmdline.c:158
bfc067a8:	3c02a000 	lui	v0,0xa000
bfc067ac:	8c421258 	lw	v0,4696(v0)
bfc067b0:	2c420003 	sltiu	v0,v0,3
bfc067b4:	14400009 	bnez	v0,bfc067dc <cmdline+0x29c>
bfc067b8:	00000000 	nop
bfc067bc:	27c30030 	addiu	v1,s8,48
bfc067c0:	3c02bfc1 	lui	v0,0xbfc1
bfc067c4:	2444d378 	addiu	a0,v0,-11400
bfc067c8:	00602821 	move	a1,v1
bfc067cc:	3c02bfc1 	lui	v0,0xbfc1
bfc067d0:	2459be10 	addiu	t9,v0,-16880
bfc067d4:	0320f809 	jalr	t9
bfc067d8:	00000000 	nop
D:\loongson\works\ls1d-mylib\lib\test/cmdline.c:160
bfc067dc:	a7c0001c 	sh	zero,28(s8)
D:\loongson\works\ls1d-mylib\lib\test/cmdline.c:161
bfc067e0:	a7c0001e 	sh	zero,30(s8)
bfc067e4:	0bf01a1d 	j	bfc06874 <cmdline+0x334>
bfc067e8:	00000000 	nop
D:\loongson\works\ls1d-mylib\lib\test/cmdline.c:163
bfc067ec:	87c3001e 	lh	v1,30(s8)
bfc067f0:	27c20010 	addiu	v0,s8,16
bfc067f4:	00431021 	addu	v0,v0,v1
bfc067f8:	80430020 	lb	v1,32(v0)
bfc067fc:	24020020 	li	v0,32
bfc06800:	1462000e 	bne	v1,v0,bfc0683c <cmdline+0x2fc>
bfc06804:	00000000 	nop
D:\loongson\works\ls1d-mylib\lib\test/cmdline.c:165
bfc06808:	a7c0001c 	sh	zero,28(s8)
D:\loongson\works\ls1d-mylib\lib\test/cmdline.c:166
bfc0680c:	97c20018 	lhu	v0,24(s8)
bfc06810:	24420001 	addiu	v0,v0,1
bfc06814:	a7c20018 	sh	v0,24(s8)
D:\loongson\works\ls1d-mylib\lib\test/cmdline.c:167
bfc06818:	27c40058 	addiu	a0,s8,88
bfc0681c:	87c30018 	lh	v1,24(s8)
bfc06820:	00601021 	move	v0,v1
bfc06824:	00021100 	sll	v0,v0,0x4
bfc06828:	00431023 	subu	v0,v0,v1
bfc0682c:	00821021 	addu	v0,a0,v0
bfc06830:	afc20024 	sw	v0,36(s8)
bfc06834:	0bf01a1a 	j	bfc06868 <cmdline+0x328>
bfc06838:	00000000 	nop
D:\loongson\works\ls1d-mylib\lib\test/cmdline.c:171
bfc0683c:	87c3001c 	lh	v1,28(s8)
bfc06840:	8fc20024 	lw	v0,36(s8)
bfc06844:	00432021 	addu	a0,v0,v1
bfc06848:	87c3001e 	lh	v1,30(s8)
bfc0684c:	27c20010 	addiu	v0,s8,16
bfc06850:	00431021 	addu	v0,v0,v1
bfc06854:	80420020 	lb	v0,32(v0)
bfc06858:	a0820000 	sb	v0,0(a0)
D:\loongson\works\ls1d-mylib\lib\test/cmdline.c:172
bfc0685c:	97c2001c 	lhu	v0,28(s8)
bfc06860:	24420001 	addiu	v0,v0,1
bfc06864:	a7c2001c 	sh	v0,28(s8)
D:\loongson\works\ls1d-mylib\lib\test/cmdline.c:161
bfc06868:	97c2001e 	lhu	v0,30(s8)
bfc0686c:	24420001 	addiu	v0,v0,1
bfc06870:	a7c2001e 	sh	v0,30(s8)
bfc06874:	87c2001e 	lh	v0,30(s8)
bfc06878:	87c30020 	lh	v1,32(s8)
bfc0687c:	0043102a 	slt	v0,v0,v1
bfc06880:	1440ffda 	bnez	v0,bfc067ec <cmdline+0x2ac>
bfc06884:	00000000 	nop
D:\loongson\works\ls1d-mylib\lib\test/cmdline.c:176
bfc06888:	27c20058 	addiu	v0,s8,88
bfc0688c:	afc20024 	sw	v0,36(s8)
D:\loongson\works\ls1d-mylib\lib\test/cmdline.c:177
bfc06890:	3c02bfc1 	lui	v0,0xbfc1
bfc06894:	8c42d7f0 	lw	v0,-10256(v0)
bfc06898:	8fc40024 	lw	a0,36(s8)
bfc0689c:	00402821 	move	a1,v0
bfc068a0:	3c02bfc1 	lui	v0,0xbfc1
bfc068a4:	2459bd50 	addiu	t9,v0,-17072
bfc068a8:	0320f809 	jalr	t9
bfc068ac:	00000000 	nop
bfc068b0:	104000cb 	beqz	v0,bfc06be0 <cmdline+0x6a0>
bfc068b4:	00000000 	nop
D:\loongson\works\ls1d-mylib\lib\test/cmdline.c:180
bfc068b8:	24020001 	li	v0,1
bfc068bc:	a7c2001a 	sh	v0,26(s8)
bfc068c0:	0bf01ad7 	j	bfc06b5c <cmdline+0x61c>
bfc068c4:	00000000 	nop
D:\loongson\works\ls1d-mylib\lib\test/cmdline.c:182
bfc068c8:	87c2001a 	lh	v0,26(s8)
bfc068cc:	3c04bfc1 	lui	a0,0xbfc1
bfc068d0:	00021080 	sll	v0,v0,0x2
bfc068d4:	00021880 	sll	v1,v0,0x2
bfc068d8:	00431021 	addu	v0,v0,v1
bfc068dc:	2483d7f0 	addiu	v1,a0,-10256
bfc068e0:	00431021 	addu	v0,v0,v1
bfc068e4:	8c420000 	lw	v0,0(v0)
bfc068e8:	8fc40024 	lw	a0,36(s8)
bfc068ec:	00402821 	move	a1,v0
bfc068f0:	3c02bfc1 	lui	v0,0xbfc1
bfc068f4:	2459bd50 	addiu	t9,v0,-17072
bfc068f8:	0320f809 	jalr	t9
bfc068fc:	00000000 	nop
bfc06900:	14400093 	bnez	v0,bfc06b50 <cmdline+0x610>
bfc06904:	00000000 	nop
D:\loongson\works\ls1d-mylib\lib\test/cmdline.c:184
bfc06908:	87c3001a 	lh	v1,26(s8)
bfc0690c:	3c02bfc1 	lui	v0,0xbfc1
bfc06910:	2444d7f0 	addiu	a0,v0,-10256
bfc06914:	00601021 	move	v0,v1
bfc06918:	00021880 	sll	v1,v0,0x2
bfc0691c:	00031080 	sll	v0,v1,0x2
bfc06920:	00621021 	addu	v0,v1,v0
bfc06924:	00821021 	addu	v0,a0,v0
bfc06928:	8c420004 	lw	v0,4(v0)
bfc0692c:	afc20028 	sw	v0,40(s8)
D:\loongson\works\ls1d-mylib\lib\test/cmdline.c:185
bfc06930:	a7c0001c 	sh	zero,28(s8)
bfc06934:	0bf01a70 	j	bfc069c0 <cmdline+0x480>
bfc06938:	00000000 	nop
D:\loongson\works\ls1d-mylib\lib\test/cmdline.c:187
bfc0693c:	87c5001c 	lh	a1,28(s8)
bfc06940:	27c40058 	addiu	a0,s8,88
bfc06944:	87c3001c 	lh	v1,28(s8)
bfc06948:	00601021 	move	v0,v1
bfc0694c:	00021100 	sll	v0,v0,0x4
bfc06950:	00431023 	subu	v0,v0,v1
bfc06954:	00822021 	addu	a0,a0,v0
bfc06958:	00051080 	sll	v0,a1,0x2
bfc0695c:	27c30010 	addiu	v1,s8,16
bfc06960:	00621021 	addu	v0,v1,v0
bfc06964:	ac4400c0 	sw	a0,192(v0)
D:\loongson\works\ls1d-mylib\lib\test/cmdline.c:188
bfc06968:	3c02a000 	lui	v0,0xa000
bfc0696c:	8c421258 	lw	v0,4696(v0)
bfc06970:	2c420004 	sltiu	v0,v0,4
bfc06974:	1440000f 	bnez	v0,bfc069b4 <cmdline+0x474>
bfc06978:	00000000 	nop
bfc0697c:	87c5001c 	lh	a1,28(s8)
bfc06980:	27c40058 	addiu	a0,s8,88
bfc06984:	87c3001c 	lh	v1,28(s8)
bfc06988:	00601021 	move	v0,v1
bfc0698c:	00021100 	sll	v0,v0,0x4
bfc06990:	00431023 	subu	v0,v0,v1
bfc06994:	00821821 	addu	v1,a0,v0
bfc06998:	3c02bfc1 	lui	v0,0xbfc1
bfc0699c:	2444d380 	addiu	a0,v0,-11392
bfc069a0:	00603021 	move	a2,v1
bfc069a4:	3c02bfc1 	lui	v0,0xbfc1
bfc069a8:	2459be10 	addiu	t9,v0,-16880
bfc069ac:	0320f809 	jalr	t9
bfc069b0:	00000000 	nop
D:\loongson\works\ls1d-mylib\lib\test/cmdline.c:185
bfc069b4:	97c2001c 	lhu	v0,28(s8)
bfc069b8:	24420001 	addiu	v0,v0,1
bfc069bc:	a7c2001c 	sh	v0,28(s8)
bfc069c0:	87c2001c 	lh	v0,28(s8)
bfc069c4:	87c30018 	lh	v1,24(s8)
bfc069c8:	0062102a 	slt	v0,v1,v0
bfc069cc:	1040ffdb 	beqz	v0,bfc0693c <cmdline+0x3fc>
bfc069d0:	00000000 	nop
D:\loongson\works\ls1d-mylib\lib\test/cmdline.c:191
bfc069d4:	87c20018 	lh	v0,24(s8)
bfc069d8:	24420001 	addiu	v0,v0,1
bfc069dc:	27c300d0 	addiu	v1,s8,208
bfc069e0:	8fd90028 	lw	t9,40(s8)
bfc069e4:	00402021 	move	a0,v0
bfc069e8:	00602821 	move	a1,v1
bfc069ec:	0320f809 	jalr	t9
bfc069f0:	00000000 	nop
D:\loongson\works\ls1d-mylib\lib\test/cmdline.c:192
bfc069f4:	87c2001a 	lh	v0,26(s8)
bfc069f8:	3c04bfc1 	lui	a0,0xbfc1
bfc069fc:	00021080 	sll	v0,v0,0x2
bfc06a00:	00021880 	sll	v1,v0,0x2
bfc06a04:	00431021 	addu	v0,v0,v1
bfc06a08:	2483d7f0 	addiu	v1,a0,-10256
bfc06a0c:	00431021 	addu	v0,v0,v1
bfc06a10:	8c420008 	lw	v0,8(v0)
bfc06a14:	1040005b 	beqz	v0,bfc06b84 <cmdline+0x644>
bfc06a18:	00000000 	nop
D:\loongson\works\ls1d-mylib\lib\test/cmdline.c:194
bfc06a1c:	3c02a000 	lui	v0,0xa000
bfc06a20:	8c421258 	lw	v0,4696(v0)
bfc06a24:	2c420004 	sltiu	v0,v0,4
bfc06a28:	14400007 	bnez	v0,bfc06a48 <cmdline+0x508>
bfc06a2c:	00000000 	nop
bfc06a30:	3c02bfc1 	lui	v0,0xbfc1
bfc06a34:	2444d394 	addiu	a0,v0,-11372
bfc06a38:	3c02bfc1 	lui	v0,0xbfc1
bfc06a3c:	2459bcb0 	addiu	t9,v0,-17232
bfc06a40:	0320f809 	jalr	t9
bfc06a44:	00000000 	nop
D:\loongson\works\ls1d-mylib\lib\test/cmdline.c:195
bfc06a48:	87c2001a 	lh	v0,26(s8)
bfc06a4c:	afc20014 	sw	v0,20(s8)
D:\loongson\works\ls1d-mylib\lib\test/cmdline.c:196
bfc06a50:	87c20018 	lh	v0,24(s8)
bfc06a54:	afc20010 	sw	v0,16(s8)
D:\loongson\works\ls1d-mylib\lib\test/cmdline.c:197
bfc06a58:	a7c0001e 	sh	zero,30(s8)
bfc06a5c:	0bf01ab8 	j	bfc06ae0 <cmdline+0x5a0>
bfc06a60:	00000000 	nop
D:\loongson\works\ls1d-mylib\lib\test/cmdline.c:198
bfc06a64:	a7c0001c 	sh	zero,28(s8)
bfc06a68:	0bf01ab1 	j	bfc06ac4 <cmdline+0x584>
bfc06a6c:	00000000 	nop
D:\loongson\works\ls1d-mylib\lib\test/cmdline.c:199
bfc06a70:	87c4001e 	lh	a0,30(s8)
bfc06a74:	87c6001c 	lh	a2,28(s8)
bfc06a78:	87c3001e 	lh	v1,30(s8)
bfc06a7c:	87c5001c 	lh	a1,28(s8)
bfc06a80:	00601021 	move	v0,v1
bfc06a84:	00021100 	sll	v0,v0,0x4
bfc06a88:	00431023 	subu	v0,v0,v1
bfc06a8c:	27c30010 	addiu	v1,s8,16
bfc06a90:	00621021 	addu	v0,v1,v0
bfc06a94:	00451021 	addu	v0,v0,a1
bfc06a98:	80450048 	lb	a1,72(v0)
bfc06a9c:	00801021 	move	v0,a0
bfc06aa0:	00021100 	sll	v0,v0,0x4
bfc06aa4:	00441023 	subu	v0,v0,a0
bfc06aa8:	27c30010 	addiu	v1,s8,16
bfc06aac:	00621021 	addu	v0,v1,v0
bfc06ab0:	00461021 	addu	v0,v0,a2
bfc06ab4:	a04500e0 	sb	a1,224(v0)
D:\loongson\works\ls1d-mylib\lib\test/cmdline.c:198
bfc06ab8:	97c2001c 	lhu	v0,28(s8)
bfc06abc:	24420001 	addiu	v0,v0,1
bfc06ac0:	a7c2001c 	sh	v0,28(s8)
bfc06ac4:	87c2001c 	lh	v0,28(s8)
bfc06ac8:	2842000f 	slti	v0,v0,15
bfc06acc:	1440ffe8 	bnez	v0,bfc06a70 <cmdline+0x530>
bfc06ad0:	00000000 	nop
D:\loongson\works\ls1d-mylib\lib\test/cmdline.c:197
bfc06ad4:	97c2001e 	lhu	v0,30(s8)
bfc06ad8:	24420001 	addiu	v0,v0,1
bfc06adc:	a7c2001e 	sh	v0,30(s8)
bfc06ae0:	87c2001e 	lh	v0,30(s8)
bfc06ae4:	28420008 	slti	v0,v0,8
bfc06ae8:	1440ffde 	bnez	v0,bfc06a64 <cmdline+0x524>
bfc06aec:	00000000 	nop
D:\loongson\works\ls1d-mylib\lib\test/cmdline.c:200
bfc06af0:	a7c0001c 	sh	zero,28(s8)
bfc06af4:	0bf01acd 	j	bfc06b34 <cmdline+0x5f4>
bfc06af8:	00000000 	nop
D:\loongson\works\ls1d-mylib\lib\test/cmdline.c:201
bfc06afc:	87c5001c 	lh	a1,28(s8)
bfc06b00:	27c400f0 	addiu	a0,s8,240
bfc06b04:	87c3001c 	lh	v1,28(s8)
bfc06b08:	00601021 	move	v0,v1
bfc06b0c:	00021100 	sll	v0,v0,0x4
bfc06b10:	00431023 	subu	v0,v0,v1
bfc06b14:	00822021 	addu	a0,a0,v0
bfc06b18:	00051080 	sll	v0,a1,0x2
bfc06b1c:	27c30010 	addiu	v1,s8,16
bfc06b20:	00621021 	addu	v0,v1,v0
bfc06b24:	ac440158 	sw	a0,344(v0)
D:\loongson\works\ls1d-mylib\lib\test/cmdline.c:200
bfc06b28:	97c2001c 	lhu	v0,28(s8)
bfc06b2c:	24420001 	addiu	v0,v0,1
bfc06b30:	a7c2001c 	sh	v0,28(s8)
bfc06b34:	87c2001c 	lh	v0,28(s8)
bfc06b38:	8fc30010 	lw	v1,16(s8)
bfc06b3c:	0062102a 	slt	v0,v1,v0
bfc06b40:	1040ffee 	beqz	v0,bfc06afc <cmdline+0x5bc>
bfc06b44:	00000000 	nop
bfc06b48:	0bf01ae1 	j	bfc06b84 <cmdline+0x644>
bfc06b4c:	00000000 	nop
D:\loongson\works\ls1d-mylib\lib\test/cmdline.c:180
bfc06b50:	97c2001a 	lhu	v0,26(s8)
bfc06b54:	24420001 	addiu	v0,v0,1
bfc06b58:	a7c2001a 	sh	v0,26(s8)
bfc06b5c:	87c2001a 	lh	v0,26(s8)
bfc06b60:	3c04bfc1 	lui	a0,0xbfc1
bfc06b64:	00021080 	sll	v0,v0,0x2
bfc06b68:	00021880 	sll	v1,v0,0x2
bfc06b6c:	00431021 	addu	v0,v0,v1
bfc06b70:	2483d7f0 	addiu	v1,a0,-10256
bfc06b74:	00431021 	addu	v0,v0,v1
bfc06b78:	8c420000 	lw	v0,0(v0)
bfc06b7c:	1440ff52 	bnez	v0,bfc068c8 <cmdline+0x388>
bfc06b80:	00000000 	nop
D:\loongson\works\ls1d-mylib\lib\test/cmdline.c:206
bfc06b84:	87c2001a 	lh	v0,26(s8)
bfc06b88:	3c04bfc1 	lui	a0,0xbfc1
bfc06b8c:	00021080 	sll	v0,v0,0x2
bfc06b90:	00021880 	sll	v1,v0,0x2
bfc06b94:	00431021 	addu	v0,v0,v1
bfc06b98:	2483d7f0 	addiu	v1,a0,-10256
bfc06b9c:	00431021 	addu	v0,v0,v1
bfc06ba0:	8c420000 	lw	v0,0(v0)
bfc06ba4:	1440fe6d 	bnez	v0,bfc0655c <cmdline+0x1c>
bfc06ba8:	00000000 	nop
D:\loongson\works\ls1d-mylib\lib\test/cmdline.c:208
bfc06bac:	3c02a000 	lui	v0,0xa000
bfc06bb0:	8c421258 	lw	v0,4696(v0)
bfc06bb4:	2c420002 	sltiu	v0,v0,2
bfc06bb8:	1440fe68 	bnez	v0,bfc0655c <cmdline+0x1c>
bfc06bbc:	00000000 	nop
bfc06bc0:	3c02bfc1 	lui	v0,0xbfc1
bfc06bc4:	2444d354 	addiu	a0,v0,-11436
bfc06bc8:	3c02bfc1 	lui	v0,0xbfc1
bfc06bcc:	2459bcb0 	addiu	t9,v0,-17232
bfc06bd0:	0320f809 	jalr	t9
bfc06bd4:	00000000 	nop
bfc06bd8:	0bf01957 	j	bfc0655c <cmdline+0x1c>
bfc06bdc:	00000000 	nop
D:\loongson\works\ls1d-mylib\lib\test/cmdline.c:213
bfc06be0:	00001021 	move	v0,zero
D:\loongson\works\ls1d-mylib\lib\test/cmdline.c:214
bfc06be4:	03c0e821 	move	sp,s8
bfc06be8:	8fbf018c 	lw	ra,396(sp)
bfc06bec:	8fbe0188 	lw	s8,392(sp)
bfc06bf0:	27bd0190 	addiu	sp,sp,400
bfc06bf4:	03e00008 	jr	ra
bfc06bf8:	00000000 	nop
bfc06bfc:	00000000 	nop

bfc06c00 <ls1d_batfail_test>:
ls1d_batfail_test():
D:\loongson\works\ls1d-mylib\lib\test/batfail.c:10
bfc06c00:	27bdffe0 	addiu	sp,sp,-32
bfc06c04:	afbf001c 	sw	ra,28(sp)
bfc06c08:	afbe0018 	sw	s8,24(sp)
bfc06c0c:	03a0f021 	move	s8,sp
D:\loongson\works\ls1d-mylib\lib\test/batfail.c:11
bfc06c10:	3c02bfc1 	lui	v0,0xbfc1
bfc06c14:	2442d3a0 	addiu	v0,v0,-11360
bfc06c18:	afc20010 	sw	v0,16(s8)
D:\loongson\works\ls1d-mylib\lib\test/batfail.c:12
bfc06c1c:	3c02a000 	lui	v0,0xa000
bfc06c20:	24421030 	addiu	v0,v0,4144
bfc06c24:	8c5900e8 	lw	t9,232(v0)
bfc06c28:	8fc30010 	lw	v1,16(s8)
bfc06c2c:	3c02bfc0 	lui	v0,0xbfc0
bfc06c30:	3444ff00 	ori	a0,v0,0xff00
bfc06c34:	00602821 	move	a1,v1
bfc06c38:	24060003 	li	a2,3
bfc06c3c:	0320f809 	jalr	t9
bfc06c40:	00000000 	nop
D:\loongson\works\ls1d-mylib\lib\test/batfail.c:14
bfc06c44:	3c02a000 	lui	v0,0xa000
bfc06c48:	8c421258 	lw	v0,4696(v0)
bfc06c4c:	2c420003 	sltiu	v0,v0,3
bfc06c50:	14400007 	bnez	v0,bfc06c70 <ls1d_batfail_test+0x70>
bfc06c54:	00000000 	nop
bfc06c58:	3c02bfc1 	lui	v0,0xbfc1
bfc06c5c:	2444d3ac 	addiu	a0,v0,-11348
bfc06c60:	3c02bfc1 	lui	v0,0xbfc1
bfc06c64:	2459bcb0 	addiu	t9,v0,-17232
bfc06c68:	0320f809 	jalr	t9
bfc06c6c:	00000000 	nop
D:\loongson\works\ls1d-mylib\lib\test/batfail.c:16
bfc06c70:	03c0e821 	move	sp,s8
bfc06c74:	8fbf001c 	lw	ra,28(sp)
bfc06c78:	8fbe0018 	lw	s8,24(sp)
bfc06c7c:	27bd0020 	addiu	sp,sp,32
bfc06c80:	03e00008 	jr	ra
bfc06c84:	00000000 	nop
bfc06c88:	00000000 	nop
bfc06c8c:	00000000 	nop

bfc06c90 <tdc_test>:
tdc_test():
D:\loongson\works\ls1d-mylib\lib\test/tdc-test.c:12
bfc06c90:	27bdffb0 	addiu	sp,sp,-80
bfc06c94:	afbf004c 	sw	ra,76(sp)
bfc06c98:	afbe0048 	sw	s8,72(sp)
bfc06c9c:	03a0f021 	move	s8,sp
bfc06ca0:	afc40050 	sw	a0,80(s8)
bfc06ca4:	afc50054 	sw	a1,84(s8)
D:\loongson\works\ls1d-mylib\lib\test/tdc-test.c:13
bfc06ca8:	8fc20050 	lw	v0,80(s8)
bfc06cac:	28420002 	slti	v0,v0,2
bfc06cb0:	10400010 	beqz	v0,bfc06cf4 <tdc_test+0x64>
bfc06cb4:	00000000 	nop
D:\loongson\works\ls1d-mylib\lib\test/tdc-test.c:15
bfc06cb8:	3c02a000 	lui	v0,0xa000
bfc06cbc:	8c421258 	lw	v0,4696(v0)
bfc06cc0:	2c420002 	sltiu	v0,v0,2
bfc06cc4:	14400007 	bnez	v0,bfc06ce4 <tdc_test+0x54>
bfc06cc8:	00000000 	nop
bfc06ccc:	3c02bfc1 	lui	v0,0xbfc1
bfc06cd0:	2444d4bc 	addiu	a0,v0,-11076
bfc06cd4:	3c02bfc1 	lui	v0,0xbfc1
bfc06cd8:	2459bcb0 	addiu	t9,v0,-17232
bfc06cdc:	0320f809 	jalr	t9
bfc06ce0:	00000000 	nop
D:\loongson\works\ls1d-mylib\lib\test/tdc-test.c:19
bfc06ce4:	24020001 	li	v0,1
bfc06ce8:	afc20044 	sw	v0,68(s8)
bfc06cec:	0bf01bcf 	j	bfc06f3c <tdc_test+0x2ac>
bfc06cf0:	00000000 	nop
D:\loongson\works\ls1d-mylib\lib\test/tdc-test.c:34
bfc06cf4:	3c02bfc1 	lui	v0,0xbfc1
bfc06cf8:	27c30018 	addiu	v1,s8,24
bfc06cfc:	2442d494 	addiu	v0,v0,-11116
bfc06d00:	24060028 	li	a2,40
bfc06d04:	00602021 	move	a0,v1
bfc06d08:	00402821 	move	a1,v0
bfc06d0c:	3c02bfc1 	lui	v0,0xbfc1
bfc06d10:	2459bb90 	addiu	t9,v0,-17520
bfc06d14:	0320f809 	jalr	t9
bfc06d18:	00000000 	nop
D:\loongson\works\ls1d-mylib\lib\test/tdc-test.c:36
bfc06d1c:	8fc20054 	lw	v0,84(s8)
bfc06d20:	24420004 	addiu	v0,v0,4
bfc06d24:	8c420000 	lw	v0,0(v0)
bfc06d28:	afc20014 	sw	v0,20(s8)
D:\loongson\works\ls1d-mylib\lib\test/tdc-test.c:37
bfc06d2c:	afc00010 	sw	zero,16(s8)
D:\loongson\works\ls1d-mylib\lib\test/tdc-test.c:38
bfc06d30:	8fc20050 	lw	v0,80(s8)
bfc06d34:	28420003 	slti	v0,v0,3
bfc06d38:	1440000a 	bnez	v0,bfc06d64 <tdc_test+0xd4>
bfc06d3c:	00000000 	nop
D:\loongson\works\ls1d-mylib\lib\test/tdc-test.c:39
bfc06d40:	8fc20054 	lw	v0,84(s8)
bfc06d44:	24420008 	addiu	v0,v0,8
bfc06d48:	8c420000 	lw	v0,0(v0)
bfc06d4c:	00402021 	move	a0,v0
bfc06d50:	3c02bfc1 	lui	v0,0xbfc1
bfc06d54:	2459b178 	addiu	t9,v0,-20104
bfc06d58:	0320f809 	jalr	t9
bfc06d5c:	00000000 	nop
bfc06d60:	afc20010 	sw	v0,16(s8)
D:\loongson\works\ls1d-mylib\lib\test/tdc-test.c:40
bfc06d64:	8fc20014 	lw	v0,20(s8)
bfc06d68:	90420000 	lbu	v0,0(v0)
bfc06d6c:	afc20040 	sw	v0,64(s8)
bfc06d70:	2402006d 	li	v0,109
bfc06d74:	8fc30040 	lw	v1,64(s8)
bfc06d78:	10620015 	beq	v1,v0,bfc06dd0 <tdc_test+0x140>
bfc06d7c:	00000000 	nop
bfc06d80:	8fc30040 	lw	v1,64(s8)
bfc06d84:	2862006e 	slti	v0,v1,110
bfc06d88:	10400007 	beqz	v0,bfc06da8 <tdc_test+0x118>
bfc06d8c:	00000000 	nop
bfc06d90:	24020068 	li	v0,104
bfc06d94:	8fc30040 	lw	v1,64(s8)
bfc06d98:	10620067 	beq	v1,v0,bfc06f38 <tdc_test+0x2a8>
bfc06d9c:	00000000 	nop
bfc06da0:	0bf01bc3 	j	bfc06f0c <tdc_test+0x27c>
bfc06da4:	00000000 	nop
bfc06da8:	24020072 	li	v0,114
bfc06dac:	8fc30040 	lw	v1,64(s8)
bfc06db0:	10620061 	beq	v1,v0,bfc06f38 <tdc_test+0x2a8>
bfc06db4:	00000000 	nop
bfc06db8:	24020073 	li	v0,115
bfc06dbc:	8fc30040 	lw	v1,64(s8)
bfc06dc0:	10620015 	beq	v1,v0,bfc06e18 <tdc_test+0x188>
bfc06dc4:	00000000 	nop
bfc06dc8:	0bf01bc3 	j	bfc06f0c <tdc_test+0x27c>
bfc06dcc:	00000000 	nop
D:\loongson\works\ls1d-mylib\lib\test/tdc-test.c:42
bfc06dd0:	3c02a000 	lui	v0,0xa000
bfc06dd4:	24421030 	addiu	v0,v0,4144
bfc06dd8:	8c5900a4 	lw	t9,164(v0)
bfc06ddc:	0320f809 	jalr	t9
bfc06de0:	00000000 	nop
D:\loongson\works\ls1d-mylib\lib\test/tdc-test.c:43
bfc06de4:	3c02a000 	lui	v0,0xa000
bfc06de8:	8c421258 	lw	v0,4696(v0)
bfc06dec:	2c420002 	sltiu	v0,v0,2
bfc06df0:	14400051 	bnez	v0,bfc06f38 <tdc_test+0x2a8>
bfc06df4:	00000000 	nop
bfc06df8:	3c02bfc1 	lui	v0,0xbfc1
bfc06dfc:	2444d574 	addiu	a0,v0,-10892
bfc06e00:	3c02bfc1 	lui	v0,0xbfc1
bfc06e04:	2459bcb0 	addiu	t9,v0,-17232
bfc06e08:	0320f809 	jalr	t9
bfc06e0c:	00000000 	nop
bfc06e10:	0bf01bce 	j	bfc06f38 <tdc_test+0x2a8>
bfc06e14:	00000000 	nop
D:\loongson\works\ls1d-mylib\lib\test/tdc-test.c:46
bfc06e18:	3c02a000 	lui	v0,0xa000
bfc06e1c:	24421030 	addiu	v0,v0,4144
bfc06e20:	8c5900a8 	lw	t9,168(v0)
bfc06e24:	24040002 	li	a0,2
bfc06e28:	0320f809 	jalr	t9
bfc06e2c:	00000000 	nop
D:\loongson\works\ls1d-mylib\lib\test/tdc-test.c:47
bfc06e30:	3c02a000 	lui	v0,0xa000
bfc06e34:	8c421258 	lw	v0,4696(v0)
bfc06e38:	2c420003 	sltiu	v0,v0,3
bfc06e3c:	1440000d 	bnez	v0,bfc06e74 <tdc_test+0x1e4>
bfc06e40:	00000000 	nop
bfc06e44:	8fc20010 	lw	v0,16(s8)
bfc06e48:	00021080 	sll	v0,v0,0x2
bfc06e4c:	27c30010 	addiu	v1,s8,16
bfc06e50:	00621021 	addu	v0,v1,v0
bfc06e54:	8c430008 	lw	v1,8(v0)
bfc06e58:	3c02bfc1 	lui	v0,0xbfc1
bfc06e5c:	2444d594 	addiu	a0,v0,-10860
bfc06e60:	00602821 	move	a1,v1
bfc06e64:	3c02bfc1 	lui	v0,0xbfc1
bfc06e68:	2459be10 	addiu	t9,v0,-16880
bfc06e6c:	0320f809 	jalr	t9
bfc06e70:	00000000 	nop
D:\loongson\works\ls1d-mylib\lib\test/tdc-test.c:48
bfc06e74:	8fc20010 	lw	v0,16(s8)
bfc06e78:	2c420007 	sltiu	v0,v0,7
bfc06e7c:	10400017 	beqz	v0,bfc06edc <tdc_test+0x24c>
bfc06e80:	00000000 	nop
D:\loongson\works\ls1d-mylib\lib\test/tdc-test.c:49
bfc06e84:	3c02a000 	lui	v0,0xa000
bfc06e88:	24421030 	addiu	v0,v0,4144
bfc06e8c:	8c5900ac 	lw	t9,172(v0)
bfc06e90:	8fc20010 	lw	v0,16(s8)
bfc06e94:	00021080 	sll	v0,v0,0x2
bfc06e98:	24041014 	li	a0,4116
bfc06e9c:	00402821 	move	a1,v0
bfc06ea0:	0320f809 	jalr	t9
bfc06ea4:	00000000 	nop
D:\loongson\works\ls1d-mylib\lib\test/tdc-test.c:50
bfc06ea8:	3c02a000 	lui	v0,0xa000
bfc06eac:	24421030 	addiu	v0,v0,4144
bfc06eb0:	8c59003c 	lw	t9,60(v0)
bfc06eb4:	24040010 	li	a0,16
bfc06eb8:	0320f809 	jalr	t9
bfc06ebc:	00000000 	nop
D:\loongson\works\ls1d-mylib\lib\test/tdc-test.c:51
bfc06ec0:	3c02a000 	lui	v0,0xa000
bfc06ec4:	24431030 	addiu	v1,v0,4144
bfc06ec8:	8c620004 	lw	v0,4(v1)
bfc06ecc:	34420004 	ori	v0,v0,0x4
bfc06ed0:	ac620004 	sw	v0,4(v1)
bfc06ed4:	0bf01bce 	j	bfc06f38 <tdc_test+0x2a8>
bfc06ed8:	00000000 	nop
D:\loongson\works\ls1d-mylib\lib\test/tdc-test.c:53
bfc06edc:	3c02a000 	lui	v0,0xa000
bfc06ee0:	24421030 	addiu	v0,v0,4144
bfc06ee4:	8c5900ac 	lw	t9,172(v0)
bfc06ee8:	8fc20010 	lw	v0,16(s8)
bfc06eec:	2442fffa 	addiu	v0,v0,-6
bfc06ef0:	00021180 	sll	v0,v0,0x6
bfc06ef4:	24041014 	li	a0,4116
bfc06ef8:	00402821 	move	a1,v0
bfc06efc:	0320f809 	jalr	t9
bfc06f00:	00000000 	nop
bfc06f04:	0bf01bce 	j	bfc06f38 <tdc_test+0x2a8>
bfc06f08:	00000000 	nop
D:\loongson\works\ls1d-mylib\lib\test/tdc-test.c:61
bfc06f0c:	3c02a000 	lui	v0,0xa000
bfc06f10:	8c421258 	lw	v0,4696(v0)
bfc06f14:	2c420002 	sltiu	v0,v0,2
bfc06f18:	14400007 	bnez	v0,bfc06f38 <tdc_test+0x2a8>
bfc06f1c:	00000000 	nop
bfc06f20:	3c02bfc1 	lui	v0,0xbfc1
bfc06f24:	2444d59c 	addiu	a0,v0,-10852
bfc06f28:	3c02bfc1 	lui	v0,0xbfc1
bfc06f2c:	2459be10 	addiu	t9,v0,-16880
bfc06f30:	0320f809 	jalr	t9
bfc06f34:	00000000 	nop
D:\loongson\works\ls1d-mylib\lib\test/tdc-test.c:65
bfc06f38:	afc00044 	sw	zero,68(s8)
bfc06f3c:	8fc20044 	lw	v0,68(s8)
D:\loongson\works\ls1d-mylib\lib\test/tdc-test.c:66
bfc06f40:	03c0e821 	move	sp,s8
bfc06f44:	8fbf004c 	lw	ra,76(sp)
bfc06f48:	8fbe0048 	lw	s8,72(sp)
bfc06f4c:	27bd0050 	addiu	sp,sp,80
bfc06f50:	03e00008 	jr	ra
bfc06f54:	00000000 	nop
bfc06f58:	00000000 	nop
bfc06f5c:	00000000 	nop

bfc06f60 <time_to_flow>:
time_to_flow():
D:\loongson\works\ls1d-mylib\lib\func/temp_flow.c:11
bfc06f60:	27bdfff0 	addiu	sp,sp,-16
bfc06f64:	afbe000c 	sw	s8,12(sp)
bfc06f68:	03a0f021 	move	s8,sp
bfc06f6c:	e7cc0010 	swc1	$f12,16(s8)
bfc06f70:	e7cd0014 	swc1	$f13,20(s8)
D:\loongson\works\ls1d-mylib\lib\func/temp_flow.c:13
bfc06f74:	c7c10014 	lwc1	$f1,20(s8)
bfc06f78:	c7c00010 	lwc1	$f0,16(s8)
bfc06f7c:	46000802 	mul.s	$f0,$f1,$f0
bfc06f80:	e7c00000 	swc1	$f0,0(s8)
D:\loongson\works\ls1d-mylib\lib\func/temp_flow.c:15
bfc06f84:	c7c00000 	lwc1	$f0,0(s8)
D:\loongson\works\ls1d-mylib\lib\func/temp_flow.c:16
bfc06f88:	03c0e821 	move	sp,s8
bfc06f8c:	8fbe000c 	lw	s8,12(sp)
bfc06f90:	27bd0010 	addiu	sp,sp,16
bfc06f94:	03e00008 	jr	ra
bfc06f98:	00000000 	nop

bfc06f9c <time_to_temp>:
time_to_temp():
D:\loongson\works\ls1d-mylib\lib\func/temp_flow.c:19
bfc06f9c:	27bdfff0 	addiu	sp,sp,-16
bfc06fa0:	afbe000c 	sw	s8,12(sp)
bfc06fa4:	03a0f021 	move	s8,sp
bfc06fa8:	e7cc0010 	swc1	$f12,16(s8)
bfc06fac:	e7cd0014 	swc1	$f13,20(s8)
D:\loongson\works\ls1d-mylib\lib\func/temp_flow.c:20
bfc06fb0:	c7c10010 	lwc1	$f1,16(s8)
bfc06fb4:	c7c00014 	lwc1	$f0,20(s8)
bfc06fb8:	46000803 	div.s	$f0,$f1,$f0
bfc06fbc:	e7c00004 	swc1	$f0,4(s8)
D:\loongson\works\ls1d-mylib\lib\func/temp_flow.c:23
bfc06fc0:	c7c10004 	lwc1	$f1,4(s8)
bfc06fc4:	3c02bfc1 	lui	v0,0xbfc1
bfc06fc8:	c440d5d0 	lwc1	$f0,-10800(v0)
bfc06fcc:	46000842 	mul.s	$f1,$f1,$f0
bfc06fd0:	c7c00004 	lwc1	$f0,4(s8)
bfc06fd4:	46000882 	mul.s	$f2,$f1,$f0
bfc06fd8:	c7c10004 	lwc1	$f1,4(s8)
bfc06fdc:	3c02bfc1 	lui	v0,0xbfc1
bfc06fe0:	c440d5d4 	lwc1	$f0,-10796(v0)
bfc06fe4:	46000802 	mul.s	$f0,$f1,$f0
bfc06fe8:	46001040 	add.s	$f1,$f2,$f0
bfc06fec:	3c02bfc1 	lui	v0,0xbfc1
bfc06ff0:	c440d5d8 	lwc1	$f0,-10792(v0)
bfc06ff4:	46000801 	sub.s	$f0,$f1,$f0
bfc06ff8:	e7c00000 	swc1	$f0,0(s8)
D:\loongson\works\ls1d-mylib\lib\func/temp_flow.c:25
bfc06ffc:	c7c00000 	lwc1	$f0,0(s8)
D:\loongson\works\ls1d-mylib\lib\func/temp_flow.c:26
bfc07000:	03c0e821 	move	sp,s8
bfc07004:	8fbe000c 	lw	s8,12(sp)
bfc07008:	27bd0010 	addiu	sp,sp,16
bfc0700c:	03e00008 	jr	ra
bfc07010:	00000000 	nop
bfc07014:	00000000 	nop
bfc07018:	00000000 	nop
bfc0701c:	00000000 	nop

bfc07020 <ls1d_ADC_MEASURE>:
ls1d_ADC_MEASURE():
D:\loongson\works\ls1d-mylib\lib\func/adc.c:12
bfc07020:	27bdfff0 	addiu	sp,sp,-16
bfc07024:	afbe000c 	sw	s8,12(sp)
bfc07028:	03a0f021 	move	s8,sp
bfc0702c:	00801021 	move	v0,a0
bfc07030:	a3c20010 	sb	v0,16(s8)
D:\loongson\works\ls1d-mylib\lib\func/adc.c:13
bfc07034:	93c20010 	lbu	v0,16(s8)
bfc07038:	304300ff 	andi	v1,v0,0xff
bfc0703c:	24020003 	li	v0,3
bfc07040:	1462001a 	bne	v1,v0,bfc070ac <ls1d_ADC_MEASURE+0x8c>
bfc07044:	00000000 	nop
D:\loongson\works\ls1d-mylib\lib\func/adc.c:15
bfc07048:	40086000 	mfc0	t0,c0_status
bfc0704c:	3c09ffff 	lui	t1,0xffff
bfc07050:	352900fe 	ori	t1,t1,0xfe
bfc07054:	01095024 	and	t2,t0,t1
bfc07058:	408a6000 	mtc0	t2,c0_status
D:\loongson\works\ls1d-mylib\lib\func/adc.c:16
bfc0705c:	3c02bfeb 	lui	v0,0xbfeb
bfc07060:	3443007c 	ori	v1,v0,0x7c
bfc07064:	3c0215da 	lui	v0,0x15da
bfc07068:	3442ed27 	ori	v0,v0,0xed27
bfc0706c:	ac620000 	sw	v0,0(v1)
D:\loongson\works\ls1d-mylib\lib\func/adc.c:17
bfc07070:	3c02bfeb 	lui	v0,0xbfeb
bfc07074:	3444000c 	ori	a0,v0,0xc
bfc07078:	3c02bfeb 	lui	v0,0xbfeb
bfc0707c:	3442000c 	ori	v0,v0,0xc
bfc07080:	8c430000 	lw	v1,0(v0)
bfc07084:	3c020400 	lui	v0,0x400
bfc07088:	00621025 	or	v0,v1,v0
bfc0708c:	ac820000 	sw	v0,0(a0)
D:\loongson\works\ls1d-mylib\lib\func/adc.c:18
bfc07090:	40086000 	mfc0	t0,c0_status
bfc07094:	3c09ffff 	lui	t1,0xffff
bfc07098:	352900fe 	ori	t1,t1,0xfe
bfc0709c:	01095024 	and	t2,t0,t1
bfc070a0:	3409ff01 	li	t1,0xff01
bfc070a4:	01494025 	or	t0,t2,t1
bfc070a8:	40886000 	mtc0	t0,c0_status
D:\loongson\works\ls1d-mylib\lib\func/adc.c:22
bfc070ac:	3c02bfea 	lui	v0,0xbfea
bfc070b0:	34448000 	ori	a0,v0,0x8000
bfc070b4:	93c20010 	lbu	v0,16(s8)
bfc070b8:	304300ff 	andi	v1,v0,0xff
bfc070bc:	2402ff80 	li	v0,-128
bfc070c0:	00621025 	or	v0,v1,v0
bfc070c4:	304200ff 	andi	v0,v0,0xff
bfc070c8:	a0820000 	sb	v0,0(a0)
D:\loongson\works\ls1d-mylib\lib\func/adc.c:23
bfc070cc:	3c02bfea 	lui	v0,0xbfea
bfc070d0:	34428000 	ori	v0,v0,0x8000
bfc070d4:	90420000 	lbu	v0,0(v0)
bfc070d8:	304200ff 	andi	v0,v0,0xff
bfc070dc:	30420040 	andi	v0,v0,0x40
bfc070e0:	1040fffa 	beqz	v0,bfc070cc <ls1d_ADC_MEASURE+0xac>
bfc070e4:	00000000 	nop
D:\loongson\works\ls1d-mylib\lib\func/adc.c:25
bfc070e8:	afc00000 	sw	zero,0(s8)
D:\loongson\works\ls1d-mylib\lib\func/adc.c:26
bfc070ec:	3c02bfea 	lui	v0,0xbfea
bfc070f0:	34428001 	ori	v0,v0,0x8001
bfc070f4:	90420000 	lbu	v0,0(v0)
bfc070f8:	304200ff 	andi	v0,v0,0xff
bfc070fc:	00021102 	srl	v0,v0,0x4
bfc07100:	304200ff 	andi	v0,v0,0xff
bfc07104:	00401821 	move	v1,v0
bfc07108:	3c02bfea 	lui	v0,0xbfea
bfc0710c:	34428002 	ori	v0,v0,0x8002
bfc07110:	90420000 	lbu	v0,0(v0)
bfc07114:	304200ff 	andi	v0,v0,0xff
bfc07118:	00021100 	sll	v0,v0,0x4
bfc0711c:	00621021 	addu	v0,v1,v0
bfc07120:	afc20000 	sw	v0,0(s8)
D:\loongson\works\ls1d-mylib\lib\func/adc.c:28
bfc07124:	93c20010 	lbu	v0,16(s8)
bfc07128:	304300ff 	andi	v1,v0,0xff
bfc0712c:	24020003 	li	v0,3
bfc07130:	1462001b 	bne	v1,v0,bfc071a0 <ls1d_ADC_MEASURE+0x180>
bfc07134:	00000000 	nop
D:\loongson\works\ls1d-mylib\lib\func/adc.c:30
bfc07138:	40086000 	mfc0	t0,c0_status
bfc0713c:	3c09ffff 	lui	t1,0xffff
bfc07140:	352900fe 	ori	t1,t1,0xfe
bfc07144:	01095024 	and	t2,t0,t1
bfc07148:	408a6000 	mtc0	t2,c0_status
D:\loongson\works\ls1d-mylib\lib\func/adc.c:31
bfc0714c:	3c02bfeb 	lui	v0,0xbfeb
bfc07150:	3443007c 	ori	v1,v0,0x7c
bfc07154:	3c0215da 	lui	v0,0x15da
bfc07158:	3442ed27 	ori	v0,v0,0xed27
bfc0715c:	ac620000 	sw	v0,0(v1)
D:\loongson\works\ls1d-mylib\lib\func/adc.c:32
bfc07160:	3c02bfeb 	lui	v0,0xbfeb
bfc07164:	3444000c 	ori	a0,v0,0xc
bfc07168:	3c02bfeb 	lui	v0,0xbfeb
bfc0716c:	3442000c 	ori	v0,v0,0xc
bfc07170:	8c430000 	lw	v1,0(v0)
bfc07174:	3c02fbff 	lui	v0,0xfbff
bfc07178:	3442ffff 	ori	v0,v0,0xffff
bfc0717c:	00621024 	and	v0,v1,v0
bfc07180:	ac820000 	sw	v0,0(a0)
D:\loongson\works\ls1d-mylib\lib\func/adc.c:33
bfc07184:	40086000 	mfc0	t0,c0_status
bfc07188:	3c09ffff 	lui	t1,0xffff
bfc0718c:	352900fe 	ori	t1,t1,0xfe
bfc07190:	01095024 	and	t2,t0,t1
bfc07194:	3409ff01 	li	t1,0xff01
bfc07198:	01494025 	or	t0,t2,t1
bfc0719c:	40886000 	mtc0	t0,c0_status
D:\loongson\works\ls1d-mylib\lib\func/adc.c:35
bfc071a0:	8fc20000 	lw	v0,0(s8)
D:\loongson\works\ls1d-mylib\lib\func/adc.c:36
bfc071a4:	03c0e821 	move	sp,s8
bfc071a8:	8fbe000c 	lw	s8,12(sp)
bfc071ac:	03e00008 	jr	ra
bfc071b0:	27bd0010 	addiu	sp,sp,16
bfc071b4:	00000000 	nop
bfc071b8:	00000000 	nop
bfc071bc:	00000000 	nop

bfc071c0 <ls1d_IIC_master_init>:
ls1d_IIC_master_init():
D:\loongson\works\ls1d-mylib\lib\func/I2C.c:12
bfc071c0:	27bdffe8 	addiu	sp,sp,-24
bfc071c4:	afbe0014 	sw	s8,20(sp)
bfc071c8:	03a0f021 	move	s8,sp
bfc071cc:	afc40018 	sw	a0,24(s8)
D:\loongson\works\ls1d-mylib\lib\func/I2C.c:14
bfc071d0:	40086000 	mfc0	t0,c0_status
bfc071d4:	3c09ffff 	lui	t1,0xffff
bfc071d8:	352900fe 	ori	t1,t1,0xfe
bfc071dc:	01095024 	and	t2,t0,t1
bfc071e0:	408a6000 	mtc0	t2,c0_status
D:\loongson\works\ls1d-mylib\lib\func/I2C.c:15
bfc071e4:	3c02bfeb 	lui	v0,0xbfeb
bfc071e8:	3443007c 	ori	v1,v0,0x7c
bfc071ec:	3c0215da 	lui	v0,0x15da
bfc071f0:	3442ed27 	ori	v0,v0,0xed27
bfc071f4:	ac620000 	sw	v0,0(v1)
D:\loongson\works\ls1d-mylib\lib\func/I2C.c:16
bfc071f8:	3c02bfeb 	lui	v0,0xbfeb
bfc071fc:	3444000c 	ori	a0,v0,0xc
bfc07200:	3c02bfeb 	lui	v0,0xbfeb
bfc07204:	3442000c 	ori	v0,v0,0xc
bfc07208:	8c430000 	lw	v1,0(v0)
bfc0720c:	2402fffd 	li	v0,-3
bfc07210:	00621024 	and	v0,v1,v0
bfc07214:	ac820000 	sw	v0,0(a0)
D:\loongson\works\ls1d-mylib\lib\func/I2C.c:17
bfc07218:	40086000 	mfc0	t0,c0_status
bfc0721c:	3c09ffff 	lui	t1,0xffff
bfc07220:	352900fe 	ori	t1,t1,0xfe
bfc07224:	01095024 	and	t2,t0,t1
bfc07228:	3409ff01 	li	t1,0xff01
bfc0722c:	01494025 	or	t0,t2,t1
bfc07230:	40886000 	mtc0	t0,c0_status
D:\loongson\works\ls1d-mylib\lib\func/I2C.c:19
bfc07234:	8fc30018 	lw	v1,24(s8)
bfc07238:	00601021 	move	v0,v1
bfc0723c:	00021080 	sll	v0,v0,0x2
bfc07240:	00431821 	addu	v1,v0,v1
bfc07244:	3c020098 	lui	v0,0x98
bfc07248:	34429680 	ori	v0,v0,0x9680
bfc0724c:	0043001b 	divu	zero,v0,v1
bfc07250:	006001f4 	teq	v1,zero,0x7
bfc07254:	00001012 	mflo	v0
bfc07258:	2442ffff 	addiu	v0,v0,-1
bfc0725c:	afc20000 	sw	v0,0(s8)
D:\loongson\works\ls1d-mylib\lib\func/I2C.c:21
bfc07260:	3c03bfe9 	lui	v1,0xbfe9
bfc07264:	8fc20000 	lw	v0,0(s8)
bfc07268:	304200ff 	andi	v0,v0,0xff
bfc0726c:	a0620000 	sb	v0,0(v1)
D:\loongson\works\ls1d-mylib\lib\func/I2C.c:22
bfc07270:	3c02bfe9 	lui	v0,0xbfe9
bfc07274:	34430001 	ori	v1,v0,0x1
bfc07278:	8fc20000 	lw	v0,0(s8)
bfc0727c:	00021202 	srl	v0,v0,0x8
bfc07280:	304200ff 	andi	v0,v0,0xff
bfc07284:	a0620000 	sb	v0,0(v1)
D:\loongson\works\ls1d-mylib\lib\func/I2C.c:23
bfc07288:	3c02bfe9 	lui	v0,0xbfe9
bfc0728c:	34430002 	ori	v1,v0,0x2
bfc07290:	2402ffa0 	li	v0,-96
bfc07294:	a0620000 	sb	v0,0(v1)
D:\loongson\works\ls1d-mylib\lib\func/I2C.c:25
bfc07298:	03c0e821 	move	sp,s8
bfc0729c:	8fbe0014 	lw	s8,20(sp)
bfc072a0:	03e00008 	jr	ra
bfc072a4:	27bd0018 	addiu	sp,sp,24

bfc072a8 <ls1d_IIC_slave_init>:
ls1d_IIC_slave_init():
D:\loongson\works\ls1d-mylib\lib\func/I2C.c:28
bfc072a8:	27bdfff8 	addiu	sp,sp,-8
bfc072ac:	afbe0004 	sw	s8,4(sp)
bfc072b0:	03a0f021 	move	s8,sp
bfc072b4:	00801021 	move	v0,a0
bfc072b8:	a3c20008 	sb	v0,8(s8)
D:\loongson\works\ls1d-mylib\lib\func/I2C.c:30
bfc072bc:	40086000 	mfc0	t0,c0_status
bfc072c0:	3c09ffff 	lui	t1,0xffff
bfc072c4:	352900fe 	ori	t1,t1,0xfe
bfc072c8:	01095024 	and	t2,t0,t1
bfc072cc:	408a6000 	mtc0	t2,c0_status
D:\loongson\works\ls1d-mylib\lib\func/I2C.c:31
bfc072d0:	3c02bfeb 	lui	v0,0xbfeb
bfc072d4:	3443007c 	ori	v1,v0,0x7c
bfc072d8:	3c0215da 	lui	v0,0x15da
bfc072dc:	3442ed27 	ori	v0,v0,0xed27
bfc072e0:	ac620000 	sw	v0,0(v1)
D:\loongson\works\ls1d-mylib\lib\func/I2C.c:32
bfc072e4:	3c02bfeb 	lui	v0,0xbfeb
bfc072e8:	3444000c 	ori	a0,v0,0xc
bfc072ec:	3c02bfeb 	lui	v0,0xbfeb
bfc072f0:	3442000c 	ori	v0,v0,0xc
bfc072f4:	8c430000 	lw	v1,0(v0)
bfc072f8:	2402fffd 	li	v0,-3
bfc072fc:	00621024 	and	v0,v1,v0
bfc07300:	ac820000 	sw	v0,0(a0)
D:\loongson\works\ls1d-mylib\lib\func/I2C.c:33
bfc07304:	40086000 	mfc0	t0,c0_status
bfc07308:	3c09ffff 	lui	t1,0xffff
bfc0730c:	352900fe 	ori	t1,t1,0xfe
bfc07310:	01095024 	and	t2,t0,t1
bfc07314:	3409ff01 	li	t1,0xff01
bfc07318:	01494025 	or	t0,t2,t1
bfc0731c:	40886000 	mtc0	t0,c0_status
D:\loongson\works\ls1d-mylib\lib\func/I2C.c:36
bfc07320:	3c02bfe9 	lui	v0,0xbfe9
bfc07324:	34430002 	ori	v1,v0,0x2
bfc07328:	2402ffc0 	li	v0,-64
bfc0732c:	a0620000 	sb	v0,0(v1)
D:\loongson\works\ls1d-mylib\lib\func/I2C.c:37
bfc07330:	3c02bfe9 	lui	v0,0xbfe9
bfc07334:	34430007 	ori	v1,v0,0x7
bfc07338:	93c20008 	lbu	v0,8(s8)
bfc0733c:	a0620000 	sb	v0,0(v1)
D:\loongson\works\ls1d-mylib\lib\func/I2C.c:39
bfc07340:	3c02bfea 	lui	v0,0xbfea
bfc07344:	34430002 	ori	v1,v0,0x2
bfc07348:	3c02bfea 	lui	v0,0xbfea
bfc0734c:	34420002 	ori	v0,v0,0x2
bfc07350:	90420000 	lbu	v0,0(v0)
bfc07354:	304200ff 	andi	v0,v0,0xff
bfc07358:	34420002 	ori	v0,v0,0x2
bfc0735c:	304200ff 	andi	v0,v0,0xff
bfc07360:	a0620000 	sb	v0,0(v1)
D:\loongson\works\ls1d-mylib\lib\func/I2C.c:40
bfc07364:	3c03bfea 	lui	v1,0xbfea
bfc07368:	3c02bfea 	lui	v0,0xbfea
bfc0736c:	90420000 	lbu	v0,0(v0)
bfc07370:	304200ff 	andi	v0,v0,0xff
bfc07374:	34420002 	ori	v0,v0,0x2
bfc07378:	304200ff 	andi	v0,v0,0xff
bfc0737c:	a0620000 	sb	v0,0(v1)
D:\loongson\works\ls1d-mylib\lib\func/I2C.c:42
bfc07380:	03c0e821 	move	sp,s8
bfc07384:	8fbe0004 	lw	s8,4(sp)
bfc07388:	03e00008 	jr	ra
bfc0738c:	27bd0008 	addiu	sp,sp,8

bfc07390 <ls1d_IIC_write_addr>:
ls1d_IIC_write_addr():
D:\loongson\works\ls1d-mylib\lib\func/I2C.c:45
bfc07390:	27bdfff0 	addiu	sp,sp,-16
bfc07394:	afbe000c 	sw	s8,12(sp)
bfc07398:	03a0f021 	move	s8,sp
bfc0739c:	00801021 	move	v0,a0
bfc073a0:	00a01821 	move	v1,a1
bfc073a4:	a3c20010 	sb	v0,16(s8)
bfc073a8:	a3c30014 	sb	v1,20(s8)
D:\loongson\works\ls1d-mylib\lib\func/I2C.c:46
bfc073ac:	93c20014 	lbu	v0,20(s8)
bfc073b0:	afc20000 	sw	v0,0(s8)
bfc073b4:	8fc30000 	lw	v1,0(s8)
bfc073b8:	10600007 	beqz	v1,bfc073d8 <ls1d_IIC_write_addr+0x48>
bfc073bc:	00000000 	nop
bfc073c0:	24020001 	li	v0,1
bfc073c4:	8fc30000 	lw	v1,0(s8)
bfc073c8:	1062000b 	beq	v1,v0,bfc073f8 <ls1d_IIC_write_addr+0x68>
bfc073cc:	00000000 	nop
bfc073d0:	0bf01d06 	j	bfc07418 <ls1d_IIC_write_addr+0x88>
bfc073d4:	00000000 	nop
D:\loongson\works\ls1d-mylib\lib\func/I2C.c:48
bfc073d8:	3c02bfe9 	lui	v0,0xbfe9
bfc073dc:	34430003 	ori	v1,v0,0x3
bfc073e0:	93c20010 	lbu	v0,16(s8)
bfc073e4:	00021040 	sll	v0,v0,0x1
bfc073e8:	304200ff 	andi	v0,v0,0xff
bfc073ec:	a0620000 	sb	v0,0(v1)
bfc073f0:	0bf01d06 	j	bfc07418 <ls1d_IIC_write_addr+0x88>
bfc073f4:	00000000 	nop
D:\loongson\works\ls1d-mylib\lib\func/I2C.c:51
bfc073f8:	3c02bfe9 	lui	v0,0xbfe9
bfc073fc:	34430003 	ori	v1,v0,0x3
bfc07400:	93c20010 	lbu	v0,16(s8)
bfc07404:	00021040 	sll	v0,v0,0x1
bfc07408:	304200ff 	andi	v0,v0,0xff
bfc0740c:	24420001 	addiu	v0,v0,1
bfc07410:	304200ff 	andi	v0,v0,0xff
bfc07414:	a0620000 	sb	v0,0(v1)
D:\loongson\works\ls1d-mylib\lib\func/I2C.c:56
bfc07418:	3c02bfe9 	lui	v0,0xbfe9
bfc0741c:	34430004 	ori	v1,v0,0x4
bfc07420:	2402ff90 	li	v0,-112
bfc07424:	a0620000 	sb	v0,0(v1)
D:\loongson\works\ls1d-mylib\lib\func/I2C.c:57
bfc07428:	3c02bfe9 	lui	v0,0xbfe9
bfc0742c:	34420004 	ori	v0,v0,0x4
bfc07430:	90420000 	lbu	v0,0(v0)
bfc07434:	304200ff 	andi	v0,v0,0xff
bfc07438:	30430083 	andi	v1,v0,0x83
bfc0743c:	24020001 	li	v0,1
bfc07440:	1462fff9 	bne	v1,v0,bfc07428 <ls1d_IIC_write_addr+0x98>
bfc07444:	00000000 	nop
D:\loongson\works\ls1d-mylib\lib\func/I2C.c:58
bfc07448:	3c02bfe9 	lui	v0,0xbfe9
bfc0744c:	34430004 	ori	v1,v0,0x4
bfc07450:	24020001 	li	v0,1
bfc07454:	a0620000 	sb	v0,0(v1)
D:\loongson\works\ls1d-mylib\lib\func/I2C.c:59
bfc07458:	03c0e821 	move	sp,s8
bfc0745c:	8fbe000c 	lw	s8,12(sp)
bfc07460:	27bd0010 	addiu	sp,sp,16
bfc07464:	03e00008 	jr	ra
bfc07468:	00000000 	nop

bfc0746c <ls1d_IIC_write_data>:
ls1d_IIC_write_data():
D:\loongson\works\ls1d-mylib\lib\func/I2C.c:62
bfc0746c:	27bdfff8 	addiu	sp,sp,-8
bfc07470:	afbe0004 	sw	s8,4(sp)
bfc07474:	03a0f021 	move	s8,sp
bfc07478:	00801021 	move	v0,a0
bfc0747c:	a3c20008 	sb	v0,8(s8)
D:\loongson\works\ls1d-mylib\lib\func/I2C.c:63
bfc07480:	3c02bfe9 	lui	v0,0xbfe9
bfc07484:	34430003 	ori	v1,v0,0x3
bfc07488:	93c20008 	lbu	v0,8(s8)
bfc0748c:	a0620000 	sb	v0,0(v1)
D:\loongson\works\ls1d-mylib\lib\func/I2C.c:64
bfc07490:	3c02bfe9 	lui	v0,0xbfe9
bfc07494:	34430004 	ori	v1,v0,0x4
bfc07498:	24020010 	li	v0,16
bfc0749c:	a0620000 	sb	v0,0(v1)
D:\loongson\works\ls1d-mylib\lib\func/I2C.c:65
bfc074a0:	3c02bfe9 	lui	v0,0xbfe9
bfc074a4:	34420004 	ori	v0,v0,0x4
bfc074a8:	90420000 	lbu	v0,0(v0)
bfc074ac:	304200ff 	andi	v0,v0,0xff
bfc074b0:	30430083 	andi	v1,v0,0x83
bfc074b4:	24020001 	li	v0,1
bfc074b8:	1462fff9 	bne	v1,v0,bfc074a0 <ls1d_IIC_write_data+0x34>
bfc074bc:	00000000 	nop
D:\loongson\works\ls1d-mylib\lib\func/I2C.c:66
bfc074c0:	3c02bfe9 	lui	v0,0xbfe9
bfc074c4:	34430004 	ori	v1,v0,0x4
bfc074c8:	24020001 	li	v0,1
bfc074cc:	a0620000 	sb	v0,0(v1)
D:\loongson\works\ls1d-mylib\lib\func/I2C.c:67
bfc074d0:	03c0e821 	move	sp,s8
bfc074d4:	8fbe0004 	lw	s8,4(sp)
bfc074d8:	27bd0008 	addiu	sp,sp,8
bfc074dc:	03e00008 	jr	ra
bfc074e0:	00000000 	nop

bfc074e4 <ls1d_IIC_write_data_stop>:
ls1d_IIC_write_data_stop():
D:\loongson\works\ls1d-mylib\lib\func/I2C.c:70
bfc074e4:	27bdfff8 	addiu	sp,sp,-8
bfc074e8:	afbe0004 	sw	s8,4(sp)
bfc074ec:	03a0f021 	move	s8,sp
bfc074f0:	00801021 	move	v0,a0
bfc074f4:	a3c20008 	sb	v0,8(s8)
D:\loongson\works\ls1d-mylib\lib\func/I2C.c:71
bfc074f8:	3c02bfe9 	lui	v0,0xbfe9
bfc074fc:	34430003 	ori	v1,v0,0x3
bfc07500:	93c20008 	lbu	v0,8(s8)
bfc07504:	a0620000 	sb	v0,0(v1)
D:\loongson\works\ls1d-mylib\lib\func/I2C.c:72
bfc07508:	3c02bfe9 	lui	v0,0xbfe9
bfc0750c:	34430004 	ori	v1,v0,0x4
bfc07510:	24020050 	li	v0,80
bfc07514:	a0620000 	sb	v0,0(v1)
D:\loongson\works\ls1d-mylib\lib\func/I2C.c:73
bfc07518:	3c02bfe9 	lui	v0,0xbfe9
bfc0751c:	34420004 	ori	v0,v0,0x4
bfc07520:	90420000 	lbu	v0,0(v0)
bfc07524:	304200ff 	andi	v0,v0,0xff
bfc07528:	30430083 	andi	v1,v0,0x83
bfc0752c:	24020001 	li	v0,1
bfc07530:	1462fff9 	bne	v1,v0,bfc07518 <ls1d_IIC_write_data_stop+0x34>
bfc07534:	00000000 	nop
D:\loongson\works\ls1d-mylib\lib\func/I2C.c:74
bfc07538:	3c02bfe9 	lui	v0,0xbfe9
bfc0753c:	34430004 	ori	v1,v0,0x4
bfc07540:	24020001 	li	v0,1
bfc07544:	a0620000 	sb	v0,0(v1)
D:\loongson\works\ls1d-mylib\lib\func/I2C.c:75
bfc07548:	03c0e821 	move	sp,s8
bfc0754c:	8fbe0004 	lw	s8,4(sp)
bfc07550:	27bd0008 	addiu	sp,sp,8
bfc07554:	03e00008 	jr	ra
bfc07558:	00000000 	nop

bfc0755c <ls1d_IIC_read>:
ls1d_IIC_read():
D:\loongson\works\ls1d-mylib\lib\func/I2C.c:78
bfc0755c:	27bdfff0 	addiu	sp,sp,-16
bfc07560:	afbe000c 	sw	s8,12(sp)
bfc07564:	03a0f021 	move	s8,sp
D:\loongson\works\ls1d-mylib\lib\func/I2C.c:80
bfc07568:	3c02bfe9 	lui	v0,0xbfe9
bfc0756c:	34430004 	ori	v1,v0,0x4
bfc07570:	24020020 	li	v0,32
bfc07574:	a0620000 	sb	v0,0(v1)
D:\loongson\works\ls1d-mylib\lib\func/I2C.c:81
bfc07578:	3c02bfe9 	lui	v0,0xbfe9
bfc0757c:	34420004 	ori	v0,v0,0x4
bfc07580:	90420000 	lbu	v0,0(v0)
bfc07584:	304200ff 	andi	v0,v0,0xff
bfc07588:	30430083 	andi	v1,v0,0x83
bfc0758c:	24020001 	li	v0,1
bfc07590:	1462fff9 	bne	v1,v0,bfc07578 <ls1d_IIC_read+0x1c>
bfc07594:	00000000 	nop
D:\loongson\works\ls1d-mylib\lib\func/I2C.c:82
bfc07598:	3c02bfe9 	lui	v0,0xbfe9
bfc0759c:	34430004 	ori	v1,v0,0x4
bfc075a0:	24020001 	li	v0,1
bfc075a4:	a0620000 	sb	v0,0(v1)
D:\loongson\works\ls1d-mylib\lib\func/I2C.c:83
bfc075a8:	3c02bfe9 	lui	v0,0xbfe9
bfc075ac:	34420003 	ori	v0,v0,0x3
bfc075b0:	90420000 	lbu	v0,0(v0)
bfc075b4:	a3c20000 	sb	v0,0(s8)
D:\loongson\works\ls1d-mylib\lib\func/I2C.c:85
bfc075b8:	93c20000 	lbu	v0,0(s8)
D:\loongson\works\ls1d-mylib\lib\func/I2C.c:86
bfc075bc:	03c0e821 	move	sp,s8
bfc075c0:	8fbe000c 	lw	s8,12(sp)
bfc075c4:	27bd0010 	addiu	sp,sp,16
bfc075c8:	03e00008 	jr	ra
bfc075cc:	00000000 	nop

bfc075d0 <ls1d_IIC_read_stop>:
ls1d_IIC_read_stop():
D:\loongson\works\ls1d-mylib\lib\func/I2C.c:89
bfc075d0:	27bdffe0 	addiu	sp,sp,-32
bfc075d4:	afbf001c 	sw	ra,28(sp)
bfc075d8:	afbe0018 	sw	s8,24(sp)
bfc075dc:	03a0f021 	move	s8,sp
D:\loongson\works\ls1d-mylib\lib\func/I2C.c:91
bfc075e0:	3c02bfe9 	lui	v0,0xbfe9
bfc075e4:	34430004 	ori	v1,v0,0x4
bfc075e8:	24020068 	li	v0,104
bfc075ec:	a0620000 	sb	v0,0(v1)
D:\loongson\works\ls1d-mylib\lib\func/I2C.c:92
bfc075f0:	3c02bfe9 	lui	v0,0xbfe9
bfc075f4:	34420004 	ori	v0,v0,0x4
bfc075f8:	90420000 	lbu	v0,0(v0)
bfc075fc:	304200ff 	andi	v0,v0,0xff
bfc07600:	30430003 	andi	v1,v0,0x3
bfc07604:	24020001 	li	v0,1
bfc07608:	1462fff9 	bne	v1,v0,bfc075f0 <ls1d_IIC_read_stop+0x20>
bfc0760c:	00000000 	nop
D:\loongson\works\ls1d-mylib\lib\func/I2C.c:93
bfc07610:	3c02bfe9 	lui	v0,0xbfe9
bfc07614:	34430004 	ori	v1,v0,0x4
bfc07618:	24020001 	li	v0,1
bfc0761c:	a0620000 	sb	v0,0(v1)
D:\loongson\works\ls1d-mylib\lib\func/I2C.c:94
bfc07620:	3c02bfe9 	lui	v0,0xbfe9
bfc07624:	34420003 	ori	v0,v0,0x3
bfc07628:	90420000 	lbu	v0,0(v0)
bfc0762c:	a3c20010 	sb	v0,16(s8)
D:\loongson\works\ls1d-mylib\lib\func/I2C.c:96
bfc07630:	24042000 	li	a0,8192
bfc07634:	3c02bfc1 	lui	v0,0xbfc1
bfc07638:	2459b410 	addiu	t9,v0,-19440
bfc0763c:	0320f809 	jalr	t9
bfc07640:	00000000 	nop
D:\loongson\works\ls1d-mylib\lib\func/I2C.c:97
bfc07644:	93c20010 	lbu	v0,16(s8)
D:\loongson\works\ls1d-mylib\lib\func/I2C.c:98
bfc07648:	03c0e821 	move	sp,s8
bfc0764c:	8fbf001c 	lw	ra,28(sp)
bfc07650:	8fbe0018 	lw	s8,24(sp)
bfc07654:	27bd0020 	addiu	sp,sp,32
bfc07658:	03e00008 	jr	ra
bfc0765c:	00000000 	nop

bfc07660 <tgt_putchar>:
tgt_putchar():
D:\loongson\works\ls1d-mylib\lib\func/isp.c:11
bfc07660:	27bdfff8 	addiu	sp,sp,-8
bfc07664:	afbe0004 	sw	s8,4(sp)
bfc07668:	03a0f021 	move	s8,sp
bfc0766c:	00801021 	move	v0,a0
bfc07670:	a3c20008 	sb	v0,8(s8)
D:\loongson\works\ls1d-mylib\lib\func/isp.c:12
bfc07674:	3c02bfe8 	lui	v0,0xbfe8
bfc07678:	34428005 	ori	v0,v0,0x8005
bfc0767c:	90420000 	lbu	v0,0(v0)
bfc07680:	304200ff 	andi	v0,v0,0xff
bfc07684:	30420020 	andi	v0,v0,0x20
bfc07688:	1040fffa 	beqz	v0,bfc07674 <tgt_putchar+0x14>
bfc0768c:	00000000 	nop
D:\loongson\works\ls1d-mylib\lib\func/isp.c:13
bfc07690:	3c02bfe8 	lui	v0,0xbfe8
bfc07694:	34438000 	ori	v1,v0,0x8000
bfc07698:	93c20008 	lbu	v0,8(s8)
bfc0769c:	a0620000 	sb	v0,0(v1)
D:\loongson\works\ls1d-mylib\lib\func/isp.c:14
bfc076a0:	03c0e821 	move	sp,s8
bfc076a4:	8fbe0004 	lw	s8,4(sp)
bfc076a8:	27bd0008 	addiu	sp,sp,8
bfc076ac:	03e00008 	jr	ra
bfc076b0:	00000000 	nop

bfc076b4 <tgt_getchar>:
tgt_getchar():
D:\loongson\works\ls1d-mylib\lib\func/isp.c:17
bfc076b4:	27bdfff0 	addiu	sp,sp,-16
bfc076b8:	afbe000c 	sw	s8,12(sp)
bfc076bc:	03a0f021 	move	s8,sp
D:\loongson\works\ls1d-mylib\lib\func/isp.c:19
bfc076c0:	3c02bfe8 	lui	v0,0xbfe8
bfc076c4:	34428005 	ori	v0,v0,0x8005
bfc076c8:	90420000 	lbu	v0,0(v0)
bfc076cc:	304200ff 	andi	v0,v0,0xff
bfc076d0:	30420001 	andi	v0,v0,0x1
bfc076d4:	1040fffa 	beqz	v0,bfc076c0 <tgt_getchar+0xc>
bfc076d8:	00000000 	nop
D:\loongson\works\ls1d-mylib\lib\func/isp.c:20
bfc076dc:	3c02bfe8 	lui	v0,0xbfe8
bfc076e0:	34428000 	ori	v0,v0,0x8000
bfc076e4:	90420000 	lbu	v0,0(v0)
bfc076e8:	a3c20000 	sb	v0,0(s8)
D:\loongson\works\ls1d-mylib\lib\func/isp.c:22
bfc076ec:	93c20000 	lbu	v0,0(s8)
D:\loongson\works\ls1d-mylib\lib\func/isp.c:23
bfc076f0:	03c0e821 	move	sp,s8
bfc076f4:	8fbe000c 	lw	s8,12(sp)
bfc076f8:	27bd0010 	addiu	sp,sp,16
bfc076fc:	03e00008 	jr	ra
bfc07700:	00000000 	nop

bfc07704 <tgt_testchar>:
tgt_testchar():
D:\loongson\works\ls1d-mylib\lib\func/isp.c:26
bfc07704:	27bdfff0 	addiu	sp,sp,-16
bfc07708:	afbe000c 	sw	s8,12(sp)
bfc0770c:	03a0f021 	move	s8,sp
D:\loongson\works\ls1d-mylib\lib\func/isp.c:28
bfc07710:	3c02bfe8 	lui	v0,0xbfe8
bfc07714:	34428005 	ori	v0,v0,0x8005
bfc07718:	90420000 	lbu	v0,0(v0)
bfc0771c:	304200ff 	andi	v0,v0,0xff
bfc07720:	30420001 	andi	v0,v0,0x1
bfc07724:	a3c20000 	sb	v0,0(s8)
D:\loongson\works\ls1d-mylib\lib\func/isp.c:30
bfc07728:	93c20000 	lbu	v0,0(s8)
D:\loongson\works\ls1d-mylib\lib\func/isp.c:31
bfc0772c:	03c0e821 	move	sp,s8
bfc07730:	8fbe000c 	lw	s8,12(sp)
bfc07734:	27bd0010 	addiu	sp,sp,16
bfc07738:	03e00008 	jr	ra
bfc0773c:	00000000 	nop

bfc07740 <now>:
now():
D:\loongson\works\ls1d-mylib\lib\func/isp.c:34
bfc07740:	27bdfff0 	addiu	sp,sp,-16
bfc07744:	afbe000c 	sw	s8,12(sp)
bfc07748:	03a0f021 	move	s8,sp
D:\loongson\works\ls1d-mylib\lib\func/isp.c:36
bfc0774c:	3c02bfeb 	lui	v0,0xbfeb
bfc07750:	3442001c 	ori	v0,v0,0x1c
bfc07754:	8c420000 	lw	v0,0(v0)
bfc07758:	afc20000 	sw	v0,0(s8)
D:\loongson\works\ls1d-mylib\lib\func/isp.c:37
bfc0775c:	8fc30000 	lw	v1,0(s8)
bfc07760:	3c02000f 	lui	v0,0xf
bfc07764:	3442ffff 	ori	v0,v0,0xffff
bfc07768:	00621024 	and	v0,v1,v0
bfc0776c:	afc20000 	sw	v0,0(s8)
D:\loongson\works\ls1d-mylib\lib\func/isp.c:39
bfc07770:	8fc20000 	lw	v0,0(s8)
D:\loongson\works\ls1d-mylib\lib\func/isp.c:40
bfc07774:	03c0e821 	move	sp,s8
bfc07778:	8fbe000c 	lw	s8,12(sp)
bfc0777c:	27bd0010 	addiu	sp,sp,16
bfc07780:	03e00008 	jr	ra
bfc07784:	00000000 	nop
bfc07788:	00000000 	nop
bfc0778c:	00000000 	nop

bfc07790 <ls1d_InitTdc>:
ls1d_InitTdc():
D:\loongson\works\ls1d-mylib\lib\func/tdc.c:16
bfc07790:	27bdffe0 	addiu	sp,sp,-32
bfc07794:	afbf001c 	sw	ra,28(sp)
bfc07798:	afbe0018 	sw	s8,24(sp)
bfc0779c:	03a0f021 	move	s8,sp
D:\loongson\works\ls1d-mylib\lib\func/tdc.c:17
bfc077a0:	3c02bfc1 	lui	v0,0xbfc1
bfc077a4:	8c43d9f4 	lw	v1,-9740(v0)
bfc077a8:	3c028000 	lui	v0,0x8000
bfc077ac:	34428210 	ori	v0,v0,0x8210
bfc077b0:	ac620000 	sw	v0,0(v1)
D:\loongson\works\ls1d-mylib\lib\func/tdc.c:18
bfc077b4:	3c02bfc1 	lui	v0,0xbfc1
bfc077b8:	8c42d9f4 	lw	v0,-9740(v0)
bfc077bc:	24430004 	addiu	v1,v0,4
bfc077c0:	3c02f0c4 	lui	v0,0xf0c4
bfc077c4:	344207a8 	ori	v0,v0,0x7a8
bfc077c8:	ac620000 	sw	v0,0(v1)
D:\loongson\works\ls1d-mylib\lib\func/tdc.c:20
bfc077cc:	3c02bfc1 	lui	v0,0xbfc1
bfc077d0:	8c42d9f4 	lw	v0,-9740(v0)
bfc077d4:	24430008 	addiu	v1,v0,8
bfc077d8:	3c024050 	lui	v0,0x4050
bfc077dc:	ac620000 	sw	v0,0(v1)
D:\loongson\works\ls1d-mylib\lib\func/tdc.c:21
bfc077e0:	3c02bfc1 	lui	v0,0xbfc1
bfc077e4:	8c42d9f4 	lw	v0,-9740(v0)
bfc077e8:	2443000c 	addiu	v1,v0,12
bfc077ec:	3c020800 	lui	v0,0x800
bfc077f0:	34423a00 	ori	v0,v0,0x3a00
bfc077f4:	ac620000 	sw	v0,0(v1)
D:\loongson\works\ls1d-mylib\lib\func/tdc.c:22
bfc077f8:	3c02bfc1 	lui	v0,0xbfc1
bfc077fc:	8c42d9f4 	lw	v0,-9740(v0)
bfc07800:	24430010 	addiu	v1,v0,16
bfc07804:	3c020400 	lui	v0,0x400
bfc07808:	344206a0 	ori	v0,v0,0x6a0
bfc0780c:	ac620000 	sw	v0,0(v1)
D:\loongson\works\ls1d-mylib\lib\func/tdc.c:29
bfc07810:	3c02bfc1 	lui	v0,0xbfc1
bfc07814:	8c43d9f8 	lw	v1,-9736(v0)
bfc07818:	240200f7 	li	v0,247
bfc0781c:	ac620000 	sw	v0,0(v1)
D:\loongson\works\ls1d-mylib\lib\func/tdc.c:32
bfc07820:	0bf01e1b 	j	bfc0786c <ls1d_InitTdc+0xdc>
bfc07824:	afc00010 	sw	zero,16(s8)
D:\loongson\works\ls1d-mylib\lib\func/tdc.c:33
bfc07828:	3c02bfc1 	lui	v0,0xbfc1
bfc0782c:	8c43d9f4 	lw	v1,-9740(v0)
bfc07830:	8fc20010 	lw	v0,16(s8)
bfc07834:	00021080 	sll	v0,v0,0x2
bfc07838:	00621021 	addu	v0,v1,v0
bfc0783c:	8c430000 	lw	v1,0(v0)
bfc07840:	3c02bfc1 	lui	v0,0xbfc1
bfc07844:	2444d5e0 	addiu	a0,v0,-10784
bfc07848:	8fc50010 	lw	a1,16(s8)
bfc0784c:	00603021 	move	a2,v1
bfc07850:	3c02bfc1 	lui	v0,0xbfc1
bfc07854:	2459be10 	addiu	t9,v0,-16880
bfc07858:	0320f809 	jalr	t9
bfc0785c:	00000000 	nop
D:\loongson\works\ls1d-mylib\lib\func/tdc.c:32
bfc07860:	8fc20010 	lw	v0,16(s8)
bfc07864:	24420001 	addiu	v0,v0,1
bfc07868:	afc20010 	sw	v0,16(s8)
bfc0786c:	8fc20010 	lw	v0,16(s8)
bfc07870:	2c420006 	sltiu	v0,v0,6
bfc07874:	1440ffec 	bnez	v0,bfc07828 <ls1d_InitTdc+0x98>
bfc07878:	00000000 	nop
D:\loongson\works\ls1d-mylib\lib\func/tdc.c:35
bfc0787c:	40086000 	mfc0	t0,c0_status
bfc07880:	3c09ffff 	lui	t1,0xffff
bfc07884:	352900fe 	ori	t1,t1,0xfe
bfc07888:	01095024 	and	t2,t0,t1
bfc0788c:	408a6000 	mtc0	t2,c0_status
D:\loongson\works\ls1d-mylib\lib\func/tdc.c:36
bfc07890:	3c02bfeb 	lui	v0,0xbfeb
bfc07894:	3443007c 	ori	v1,v0,0x7c
bfc07898:	3c0215da 	lui	v0,0x15da
bfc0789c:	3442ed27 	ori	v0,v0,0xed27
bfc078a0:	ac620000 	sw	v0,0(v1)
D:\loongson\works\ls1d-mylib\lib\func/tdc.c:37
bfc078a4:	3c02bfeb 	lui	v0,0xbfeb
bfc078a8:	3444000c 	ori	a0,v0,0xc
bfc078ac:	3c02bfeb 	lui	v0,0xbfeb
bfc078b0:	3442000c 	ori	v0,v0,0xc
bfc078b4:	8c430000 	lw	v1,0(v0)
bfc078b8:	2402ffef 	li	v0,-17
bfc078bc:	00621024 	and	v0,v1,v0
bfc078c0:	ac820000 	sw	v0,0(a0)
D:\loongson\works\ls1d-mylib\lib\func/tdc.c:38
bfc078c4:	3c02bfeb 	lui	v0,0xbfeb
bfc078c8:	3443007c 	ori	v1,v0,0x7c
bfc078cc:	3c02cf21 	lui	v0,0xcf21
bfc078d0:	34426e95 	ori	v0,v0,0x6e95
bfc078d4:	ac620000 	sw	v0,0(v1)
D:\loongson\works\ls1d-mylib\lib\func/tdc.c:39
bfc078d8:	3c02bfeb 	lui	v0,0xbfeb
bfc078dc:	34430004 	ori	v1,v0,0x4
bfc078e0:	3c02bfeb 	lui	v0,0xbfeb
bfc078e4:	34420004 	ori	v0,v0,0x4
bfc078e8:	8c420000 	lw	v0,0(v0)
bfc078ec:	34428000 	ori	v0,v0,0x8000
bfc078f0:	ac620000 	sw	v0,0(v1)
D:\loongson\works\ls1d-mylib\lib\func/tdc.c:40
bfc078f4:	40086000 	mfc0	t0,c0_status
bfc078f8:	3c09ffff 	lui	t1,0xffff
bfc078fc:	352900fe 	ori	t1,t1,0xfe
bfc07900:	01095024 	and	t2,t0,t1
bfc07904:	3409ff01 	li	t1,0xff01
bfc07908:	01494025 	or	t0,t2,t1
bfc0790c:	40886000 	mtc0	t0,c0_status
D:\loongson\works\ls1d-mylib\lib\func/tdc.c:41
bfc07910:	03c0e821 	move	sp,s8
bfc07914:	8fbf001c 	lw	ra,28(sp)
bfc07918:	8fbe0018 	lw	s8,24(sp)
bfc0791c:	03e00008 	jr	ra
bfc07920:	27bd0020 	addiu	sp,sp,32

bfc07924 <ls1d_tdc_select>:
ls1d_tdc_select():
D:\loongson\works\ls1d-mylib\lib\func/tdc.c:44
bfc07924:	27bdfff0 	addiu	sp,sp,-16
bfc07928:	afbe000c 	sw	s8,12(sp)
bfc0792c:	03a0f021 	move	s8,sp
bfc07930:	afc40010 	sw	a0,16(s8)
D:\loongson\works\ls1d-mylib\lib\func/tdc.c:45
bfc07934:	8fc20010 	lw	v0,16(s8)
bfc07938:	afc20000 	sw	v0,0(s8)
bfc0793c:	8fc30000 	lw	v1,0(s8)
bfc07940:	1060001a 	beqz	v1,bfc079ac <ls1d_tdc_select+0x88>
bfc07944:	00000000 	nop
bfc07948:	24020001 	li	v0,1
bfc0794c:	8fc30000 	lw	v1,0(s8)
bfc07950:	10620016 	beq	v1,v0,bfc079ac <ls1d_tdc_select+0x88>
bfc07954:	00000000 	nop
D:\loongson\works\ls1d-mylib\lib\func/tdc.c:52
bfc07958:	3c02bfc1 	lui	v0,0xbfc1
bfc0795c:	8c42d9f4 	lw	v0,-9740(v0)
bfc07960:	24440004 	addiu	a0,v0,4
bfc07964:	3c02bfc1 	lui	v0,0xbfc1
bfc07968:	8c42d9f4 	lw	v0,-9740(v0)
bfc0796c:	24420004 	addiu	v0,v0,4
bfc07970:	8c430000 	lw	v1,0(v0)
bfc07974:	3c02f7f7 	lui	v0,0xf7f7
bfc07978:	3442ffff 	ori	v0,v0,0xffff
bfc0797c:	00621024 	and	v0,v1,v0
bfc07980:	ac820000 	sw	v0,0(a0)
D:\loongson\works\ls1d-mylib\lib\func/tdc.c:53
bfc07984:	3c02bfc1 	lui	v0,0xbfc1
bfc07988:	8c42d9f4 	lw	v0,-9740(v0)
bfc0798c:	24440004 	addiu	a0,v0,4
bfc07990:	3c02bfc1 	lui	v0,0xbfc1
bfc07994:	8c42d9f4 	lw	v0,-9740(v0)
bfc07998:	24420004 	addiu	v0,v0,4
bfc0799c:	8c430000 	lw	v1,0(v0)
bfc079a0:	3c020800 	lui	v0,0x800
bfc079a4:	00621025 	or	v0,v1,v0
bfc079a8:	ac820000 	sw	v0,0(a0)
D:\loongson\works\ls1d-mylib\lib\func/tdc.c:57
bfc079ac:	03c0e821 	move	sp,s8
bfc079b0:	8fbe000c 	lw	s8,12(sp)
bfc079b4:	27bd0010 	addiu	sp,sp,16
bfc079b8:	03e00008 	jr	ra
bfc079bc:	00000000 	nop

bfc079c0 <Tdc_mop>:
Tdc_mop():
D:\loongson\works\ls1d-mylib\lib\func/tdc.c:60
bfc079c0:	27bdfff0 	addiu	sp,sp,-16
bfc079c4:	afbe000c 	sw	s8,12(sp)
bfc079c8:	03a0f021 	move	s8,sp
bfc079cc:	afc40010 	sw	a0,16(s8)
bfc079d0:	afc50014 	sw	a1,20(s8)
D:\loongson\works\ls1d-mylib\lib\func/tdc.c:61
bfc079d4:	40086000 	mfc0	t0,c0_status
bfc079d8:	3c09ffff 	lui	t1,0xffff
bfc079dc:	352900fe 	ori	t1,t1,0xfe
bfc079e0:	01095024 	and	t2,t0,t1
bfc079e4:	408a6000 	mtc0	t2,c0_status
D:\loongson\works\ls1d-mylib\lib\func/tdc.c:63
bfc079e8:	3c02bfeb 	lui	v0,0xbfeb
bfc079ec:	3443007c 	ori	v1,v0,0x7c
bfc079f0:	3c025f43 	lui	v0,0x5f43
bfc079f4:	34429e29 	ori	v0,v0,0x9e29
bfc079f8:	ac620000 	sw	v0,0(v1)
D:\loongson\works\ls1d-mylib\lib\func/tdc.c:64
bfc079fc:	3c03bfeb 	lui	v1,0xbfeb
bfc07a00:	8fc20010 	lw	v0,16(s8)
bfc07a04:	ac620000 	sw	v0,0(v1)
D:\loongson\works\ls1d-mylib\lib\func/tdc.c:66
bfc07a08:	3c02bfeb 	lui	v0,0xbfeb
bfc07a0c:	34420004 	ori	v0,v0,0x4
bfc07a10:	8c430000 	lw	v1,0(v0)
bfc07a14:	2402ff20 	li	v0,-224
bfc07a18:	00621024 	and	v0,v1,v0
bfc07a1c:	afc20000 	sw	v0,0(s8)
D:\loongson\works\ls1d-mylib\lib\func/tdc.c:67
bfc07a20:	3c02bfeb 	lui	v0,0xbfeb
bfc07a24:	3443007c 	ori	v1,v0,0x7c
bfc07a28:	3c02cf21 	lui	v0,0xcf21
bfc07a2c:	34426e95 	ori	v0,v0,0x6e95
bfc07a30:	ac620000 	sw	v0,0(v1)
D:\loongson\works\ls1d-mylib\lib\func/tdc.c:68
bfc07a34:	3c02bfeb 	lui	v0,0xbfeb
bfc07a38:	34440004 	ori	a0,v0,0x4
bfc07a3c:	8fc30000 	lw	v1,0(s8)
bfc07a40:	8fc20014 	lw	v0,20(s8)
bfc07a44:	00621025 	or	v0,v1,v0
bfc07a48:	ac820000 	sw	v0,0(a0)
D:\loongson\works\ls1d-mylib\lib\func/tdc.c:69
bfc07a4c:	40086000 	mfc0	t0,c0_status
bfc07a50:	3c09ffff 	lui	t1,0xffff
bfc07a54:	352900fe 	ori	t1,t1,0xfe
bfc07a58:	01095024 	and	t2,t0,t1
bfc07a5c:	3409ff01 	li	t1,0xff01
bfc07a60:	01494025 	or	t0,t2,t1
bfc07a64:	40886000 	mtc0	t0,c0_status
D:\loongson\works\ls1d-mylib\lib\func/tdc.c:70
bfc07a68:	03c0e821 	move	sp,s8
bfc07a6c:	8fbe000c 	lw	s8,12(sp)
bfc07a70:	03e00008 	jr	ra
bfc07a74:	27bd0010 	addiu	sp,sp,16

bfc07a78 <ls1d_tdc_start>:
ls1d_tdc_start():
D:\loongson\works\ls1d-mylib\lib\func/tdc.c:73
bfc07a78:	27bdfff8 	addiu	sp,sp,-8
bfc07a7c:	afbe0004 	sw	s8,4(sp)
bfc07a80:	03a0f021 	move	s8,sp
D:\loongson\works\ls1d-mylib\lib\func/tdc.c:74
bfc07a84:	40086000 	mfc0	t0,c0_status
bfc07a88:	3c09ffff 	lui	t1,0xffff
bfc07a8c:	352900fe 	ori	t1,t1,0xfe
bfc07a90:	01095024 	and	t2,t0,t1
bfc07a94:	408a6000 	mtc0	t2,c0_status
D:\loongson\works\ls1d-mylib\lib\func/tdc.c:75
bfc07a98:	3c02bfeb 	lui	v0,0xbfeb
bfc07a9c:	3443007c 	ori	v1,v0,0x7c
bfc07aa0:	3c02cf21 	lui	v0,0xcf21
bfc07aa4:	34426e95 	ori	v0,v0,0x6e95
bfc07aa8:	ac620000 	sw	v0,0(v1)
D:\loongson\works\ls1d-mylib\lib\func/tdc.c:76
bfc07aac:	3c02bfeb 	lui	v0,0xbfeb
bfc07ab0:	3443003c 	ori	v1,v0,0x3c
bfc07ab4:	24020002 	li	v0,2
bfc07ab8:	ac620000 	sw	v0,0(v1)
D:\loongson\works\ls1d-mylib\lib\func/tdc.c:77
bfc07abc:	40086000 	mfc0	t0,c0_status
bfc07ac0:	3c09ffff 	lui	t1,0xffff
bfc07ac4:	352900fe 	ori	t1,t1,0xfe
bfc07ac8:	01095024 	and	t2,t0,t1
bfc07acc:	3409ff01 	li	t1,0xff01
bfc07ad0:	01494025 	or	t0,t2,t1
bfc07ad4:	40886000 	mtc0	t0,c0_status
D:\loongson\works\ls1d-mylib\lib\func/tdc.c:78
bfc07ad8:	03c0e821 	move	sp,s8
bfc07adc:	8fbe0004 	lw	s8,4(sp)
bfc07ae0:	03e00008 	jr	ra
bfc07ae4:	27bd0008 	addiu	sp,sp,8

bfc07ae8 <check_res>:
check_res():
D:\loongson\works\ls1d-mylib\lib\func/tdc.c:82
bfc07ae8:	27bdffd0 	addiu	sp,sp,-48
bfc07aec:	afbf002c 	sw	ra,44(sp)
bfc07af0:	afbe0028 	sw	s8,40(sp)
bfc07af4:	03a0f021 	move	s8,sp
bfc07af8:	afc40030 	sw	a0,48(s8)
D:\loongson\works\ls1d-mylib\lib\func/tdc.c:83
bfc07afc:	3c02bfc1 	lui	v0,0xbfc1
bfc07b00:	8c42d9f4 	lw	v0,-9740(v0)
bfc07b04:	24420020 	addiu	v0,v0,32
bfc07b08:	8c420000 	lw	v0,0(v0)
bfc07b0c:	3043000f 	andi	v1,v0,0xf
bfc07b10:	8fc20030 	lw	v0,48(s8)
bfc07b14:	ac4300b4 	sw	v1,180(v0)
D:\loongson\works\ls1d-mylib\lib\func/tdc.c:84
bfc07b18:	8fc20030 	lw	v0,48(s8)
bfc07b1c:	8c4200b4 	lw	v0,180(v0)
bfc07b20:	14400004 	bnez	v0,bfc07b34 <check_res+0x4c>
bfc07b24:	00000000 	nop
D:\loongson\works\ls1d-mylib\lib\func/tdc.c:85
bfc07b28:	8fc30030 	lw	v1,48(s8)
bfc07b2c:	24020010 	li	v0,16
bfc07b30:	ac6200b4 	sw	v0,180(v1)
D:\loongson\works\ls1d-mylib\lib\func/tdc.c:86
bfc07b34:	3c02bfc1 	lui	v0,0xbfc1
bfc07b38:	8c42d9f4 	lw	v0,-9740(v0)
bfc07b3c:	24420020 	addiu	v0,v0,32
bfc07b40:	8c420000 	lw	v0,0(v0)
bfc07b44:	00021102 	srl	v0,v0,0x4
bfc07b48:	3043000f 	andi	v1,v0,0xf
bfc07b4c:	8fc20030 	lw	v0,48(s8)
bfc07b50:	ac4300b8 	sw	v1,184(v0)
D:\loongson\works\ls1d-mylib\lib\func/tdc.c:87
bfc07b54:	8fc20030 	lw	v0,48(s8)
bfc07b58:	8c4200b8 	lw	v0,184(v0)
bfc07b5c:	14400004 	bnez	v0,bfc07b70 <check_res+0x88>
bfc07b60:	00000000 	nop
D:\loongson\works\ls1d-mylib\lib\func/tdc.c:88
bfc07b64:	8fc30030 	lw	v1,48(s8)
bfc07b68:	24020010 	li	v0,16
bfc07b6c:	ac6200b8 	sw	v0,184(v1)
D:\loongson\works\ls1d-mylib\lib\func/tdc.c:89
bfc07b70:	3c02bfc1 	lui	v0,0xbfc1
bfc07b74:	8c42d9f4 	lw	v0,-9740(v0)
bfc07b78:	24420020 	addiu	v0,v0,32
bfc07b7c:	8c420000 	lw	v0,0(v0)
bfc07b80:	00021202 	srl	v0,v0,0x8
bfc07b84:	3043000f 	andi	v1,v0,0xf
bfc07b88:	8fc20030 	lw	v0,48(s8)
bfc07b8c:	ac4300bc 	sw	v1,188(v0)
D:\loongson\works\ls1d-mylib\lib\func/tdc.c:90
bfc07b90:	3c02bfc1 	lui	v0,0xbfc1
bfc07b94:	8c42d9f4 	lw	v0,-9740(v0)
bfc07b98:	24420020 	addiu	v0,v0,32
bfc07b9c:	8c420000 	lw	v0,0(v0)
bfc07ba0:	00021302 	srl	v0,v0,0xc
bfc07ba4:	3043000f 	andi	v1,v0,0xf
bfc07ba8:	8fc20030 	lw	v0,48(s8)
bfc07bac:	ac4300c0 	sw	v1,192(v0)
D:\loongson\works\ls1d-mylib\lib\func/tdc.c:97
bfc07bb0:	afc00018 	sw	zero,24(s8)
D:\loongson\works\ls1d-mylib\lib\func/tdc.c:98
bfc07bb4:	8fc20030 	lw	v0,48(s8)
bfc07bb8:	8c4300b4 	lw	v1,180(v0)
bfc07bbc:	8fc20030 	lw	v0,48(s8)
bfc07bc0:	8c4200bc 	lw	v0,188(v0)
bfc07bc4:	00621023 	subu	v0,v1,v0
bfc07bc8:	3043000f 	andi	v1,v0,0xf
bfc07bcc:	8fc20030 	lw	v0,48(s8)
bfc07bd0:	8c4200c4 	lw	v0,196(v0)
bfc07bd4:	00621026 	xor	v0,v1,v0
bfc07bd8:	0002102b 	sltu	v0,zero,v0
bfc07bdc:	afc20018 	sw	v0,24(s8)
D:\loongson\works\ls1d-mylib\lib\func/tdc.c:99
bfc07be0:	8fc20030 	lw	v0,48(s8)
bfc07be4:	8c4300d4 	lw	v1,212(v0)
bfc07be8:	24020003 	li	v0,3
bfc07bec:	10620006 	beq	v1,v0,bfc07c08 <check_res+0x120>
bfc07bf0:	00000000 	nop
bfc07bf4:	8fc20030 	lw	v0,48(s8)
bfc07bf8:	8c4300d4 	lw	v1,212(v0)
bfc07bfc:	24020002 	li	v0,2
bfc07c00:	14620011 	bne	v1,v0,bfc07c48 <check_res+0x160>
bfc07c04:	00000000 	nop
D:\loongson\works\ls1d-mylib\lib\func/tdc.c:100
bfc07c08:	8fc20018 	lw	v0,24(s8)
bfc07c0c:	14400007 	bnez	v0,bfc07c2c <check_res+0x144>
bfc07c10:	00000000 	nop
bfc07c14:	8fc20030 	lw	v0,48(s8)
bfc07c18:	8c4300bc 	lw	v1,188(v0)
bfc07c1c:	8fc20030 	lw	v0,48(s8)
bfc07c20:	8c4200c4 	lw	v0,196(v0)
bfc07c24:	10620005 	beq	v1,v0,bfc07c3c <check_res+0x154>
bfc07c28:	00000000 	nop
bfc07c2c:	24020001 	li	v0,1
bfc07c30:	afc20024 	sw	v0,36(s8)
bfc07c34:	0bf01f10 	j	bfc07c40 <check_res+0x158>
bfc07c38:	00000000 	nop
bfc07c3c:	afc00024 	sw	zero,36(s8)
bfc07c40:	8fc20024 	lw	v0,36(s8)
bfc07c44:	afc20018 	sw	v0,24(s8)
D:\loongson\works\ls1d-mylib\lib\func/tdc.c:102
bfc07c48:	8fc20018 	lw	v0,24(s8)
bfc07c4c:	10400014 	beqz	v0,bfc07ca0 <check_res+0x1b8>
bfc07c50:	00000000 	nop
D:\loongson\works\ls1d-mylib\lib\func/tdc.c:104
bfc07c54:	3c02bfeb 	lui	v0,0xbfeb
bfc07c58:	3443007c 	ori	v1,v0,0x7c
bfc07c5c:	3c02cf21 	lui	v0,0xcf21
bfc07c60:	34426e95 	ori	v0,v0,0x6e95
bfc07c64:	ac620000 	sw	v0,0(v1)
D:\loongson\works\ls1d-mylib\lib\func/tdc.c:105
bfc07c68:	3c02bfeb 	lui	v0,0xbfeb
bfc07c6c:	3443003c 	ori	v1,v0,0x3c
bfc07c70:	3c028000 	lui	v0,0x8000
bfc07c74:	ac620000 	sw	v0,0(v1)
D:\loongson\works\ls1d-mylib\lib\func/tdc.c:106
bfc07c78:	3c02bfc1 	lui	v0,0xbfc1
bfc07c7c:	2444d5f4 	addiu	a0,v0,-10764
bfc07c80:	3c02bfc1 	lui	v0,0xbfc1
bfc07c84:	2459bcb0 	addiu	t9,v0,-17232
bfc07c88:	0320f809 	jalr	t9
bfc07c8c:	00000000 	nop
D:\loongson\works\ls1d-mylib\lib\func/tdc.c:107
bfc07c90:	24020001 	li	v0,1
bfc07c94:	afc20020 	sw	v0,32(s8)
bfc07c98:	0bf01f58 	j	bfc07d60 <check_res+0x278>
bfc07c9c:	00000000 	nop
D:\loongson\works\ls1d-mylib\lib\func/tdc.c:110
bfc07ca0:	8fc20030 	lw	v0,48(s8)
bfc07ca4:	24420034 	addiu	v0,v0,52
bfc07ca8:	afc20014 	sw	v0,20(s8)
D:\loongson\works\ls1d-mylib\lib\func/tdc.c:112
bfc07cac:	afc00010 	sw	zero,16(s8)
bfc07cb0:	0bf01f3d 	j	bfc07cf4 <check_res+0x20c>
bfc07cb4:	00000000 	nop
D:\loongson\works\ls1d-mylib\lib\func/tdc.c:114
bfc07cb8:	8fc20010 	lw	v0,16(s8)
bfc07cbc:	00021880 	sll	v1,v0,0x2
bfc07cc0:	8fc20014 	lw	v0,20(s8)
bfc07cc4:	00432021 	addu	a0,v0,v1
bfc07cc8:	3c02bfc1 	lui	v0,0xbfc1
bfc07ccc:	8c43d9f4 	lw	v1,-9740(v0)
bfc07cd0:	8fc20010 	lw	v0,16(s8)
bfc07cd4:	24420010 	addiu	v0,v0,16
bfc07cd8:	00021080 	sll	v0,v0,0x2
bfc07cdc:	00621021 	addu	v0,v1,v0
bfc07ce0:	8c420000 	lw	v0,0(v0)
bfc07ce4:	ac820000 	sw	v0,0(a0)
D:\loongson\works\ls1d-mylib\lib\func/tdc.c:112
bfc07ce8:	8fc20010 	lw	v0,16(s8)
bfc07cec:	24420001 	addiu	v0,v0,1
bfc07cf0:	afc20010 	sw	v0,16(s8)
bfc07cf4:	8fc20030 	lw	v0,48(s8)
bfc07cf8:	8c4300b4 	lw	v1,180(v0)
bfc07cfc:	8fc20010 	lw	v0,16(s8)
bfc07d00:	0043102b 	sltu	v0,v0,v1
bfc07d04:	1440ffec 	bnez	v0,bfc07cb8 <check_res+0x1d0>
bfc07d08:	00000000 	nop
D:\loongson\works\ls1d-mylib\lib\func/tdc.c:117
bfc07d0c:	8fc20030 	lw	v0,48(s8)
bfc07d10:	8c4200c8 	lw	v0,200(v0)
bfc07d14:	10400008 	beqz	v0,bfc07d38 <check_res+0x250>
bfc07d18:	00000000 	nop
D:\loongson\works\ls1d-mylib\lib\func/tdc.c:118
bfc07d1c:	3c02bfc1 	lui	v0,0xbfc1
bfc07d20:	8c43d9f4 	lw	v1,-9740(v0)
bfc07d24:	3c02bfc1 	lui	v0,0xbfc1
bfc07d28:	8c42d9f4 	lw	v0,-9740(v0)
bfc07d2c:	8c420000 	lw	v0,0(v0)
bfc07d30:	3842c000 	xori	v0,v0,0xc000
bfc07d34:	ac620000 	sw	v0,0(v1)
D:\loongson\works\ls1d-mylib\lib\func/tdc.c:119
bfc07d38:	3c02bfeb 	lui	v0,0xbfeb
bfc07d3c:	3443007c 	ori	v1,v0,0x7c
bfc07d40:	3c02cf21 	lui	v0,0xcf21
bfc07d44:	34426e95 	ori	v0,v0,0x6e95
bfc07d48:	ac620000 	sw	v0,0(v1)
D:\loongson\works\ls1d-mylib\lib\func/tdc.c:120
bfc07d4c:	3c02bfeb 	lui	v0,0xbfeb
bfc07d50:	3443003c 	ori	v1,v0,0x3c
bfc07d54:	3c028000 	lui	v0,0x8000
bfc07d58:	ac620000 	sw	v0,0(v1)
D:\loongson\works\ls1d-mylib\lib\func/tdc.c:122
bfc07d5c:	afc00020 	sw	zero,32(s8)
bfc07d60:	8fc20020 	lw	v0,32(s8)
D:\loongson\works\ls1d-mylib\lib\func/tdc.c:123
bfc07d64:	03c0e821 	move	sp,s8
bfc07d68:	8fbf002c 	lw	ra,44(sp)
bfc07d6c:	8fbe0028 	lw	s8,40(sp)
bfc07d70:	27bd0030 	addiu	sp,sp,48
bfc07d74:	03e00008 	jr	ra
bfc07d78:	00000000 	nop

bfc07d7c <calibrate>:
calibrate():
D:\loongson\works\ls1d-mylib\lib\func/tdc.c:125
bfc07d7c:	27bdffe0 	addiu	sp,sp,-32
bfc07d80:	afbe001c 	sw	s8,28(sp)
bfc07d84:	03a0f021 	move	s8,sp
bfc07d88:	afc40020 	sw	a0,32(s8)
bfc07d8c:	afc50024 	sw	a1,36(s8)
bfc07d90:	afc60028 	sw	a2,40(s8)
D:\loongson\works\ls1d-mylib\lib\func/tdc.c:126
bfc07d94:	24020001 	li	v0,1
bfc07d98:	afc20010 	sw	v0,16(s8)
D:\loongson\works\ls1d-mylib\lib\func/tdc.c:129
bfc07d9c:	8fc20028 	lw	v0,40(s8)
bfc07da0:	8c430000 	lw	v1,0(v0)
bfc07da4:	24020002 	li	v0,2
bfc07da8:	14620039 	bne	v1,v0,bfc07e90 <calibrate+0x114>
bfc07dac:	00000000 	nop
D:\loongson\works\ls1d-mylib\lib\func/tdc.c:131
bfc07db0:	8fc20020 	lw	v0,32(s8)
bfc07db4:	00021402 	srl	v0,v0,0x10
bfc07db8:	afc2000c 	sw	v0,12(s8)
D:\loongson\works\ls1d-mylib\lib\func/tdc.c:132
bfc07dbc:	8fc20020 	lw	v0,32(s8)
bfc07dc0:	3042ffff 	andi	v0,v0,0xffff
bfc07dc4:	afc20004 	sw	v0,4(s8)
D:\loongson\works\ls1d-mylib\lib\func/tdc.c:133
bfc07dc8:	8fc20024 	lw	v0,36(s8)
bfc07dcc:	00021402 	srl	v0,v0,0x10
bfc07dd0:	afc20008 	sw	v0,8(s8)
D:\loongson\works\ls1d-mylib\lib\func/tdc.c:134
bfc07dd4:	8fc20024 	lw	v0,36(s8)
bfc07dd8:	3042ffff 	andi	v0,v0,0xffff
bfc07ddc:	afc20000 	sw	v0,0(s8)
D:\loongson\works\ls1d-mylib\lib\func/tdc.c:135
bfc07de0:	8fc20028 	lw	v0,40(s8)
bfc07de4:	8c420010 	lw	v0,16(v0)
bfc07de8:	30420001 	andi	v0,v0,0x1
bfc07dec:	304200ff 	andi	v0,v0,0xff
bfc07df0:	10400015 	beqz	v0,bfc07e48 <calibrate+0xcc>
bfc07df4:	00000000 	nop
D:\loongson\works\ls1d-mylib\lib\func/tdc.c:136
bfc07df8:	8fc20000 	lw	v0,0(s8)
bfc07dfc:	000211c2 	srl	v0,v0,0x7
bfc07e00:	00021840 	sll	v1,v0,0x1
bfc07e04:	00031180 	sll	v0,v1,0x6
bfc07e08:	00431823 	subu	v1,v0,v1
bfc07e0c:	8fc20000 	lw	v0,0(s8)
bfc07e10:	3042007f 	andi	v0,v0,0x7f
bfc07e14:	00622021 	addu	a0,v1,v0
bfc07e18:	8fc20004 	lw	v0,4(s8)
bfc07e1c:	000211c2 	srl	v0,v0,0x7
bfc07e20:	00021840 	sll	v1,v0,0x1
bfc07e24:	00031180 	sll	v0,v1,0x6
bfc07e28:	00431823 	subu	v1,v0,v1
bfc07e2c:	8fc20004 	lw	v0,4(s8)
bfc07e30:	3042007f 	andi	v0,v0,0x7f
bfc07e34:	00621021 	addu	v0,v1,v0
bfc07e38:	00821023 	subu	v0,a0,v0
bfc07e3c:	afc20010 	sw	v0,16(s8)
bfc07e40:	0bf01fa4 	j	bfc07e90 <calibrate+0x114>
bfc07e44:	00000000 	nop
D:\loongson\works\ls1d-mylib\lib\func/tdc.c:138
bfc07e48:	8fc20000 	lw	v0,0(s8)
bfc07e4c:	00021982 	srl	v1,v0,0x6
bfc07e50:	00601021 	move	v0,v1
bfc07e54:	00021180 	sll	v0,v0,0x6
bfc07e58:	00431823 	subu	v1,v0,v1
bfc07e5c:	8fc20000 	lw	v0,0(s8)
bfc07e60:	3042003f 	andi	v0,v0,0x3f
bfc07e64:	00622021 	addu	a0,v1,v0
bfc07e68:	8fc20004 	lw	v0,4(s8)
bfc07e6c:	00021982 	srl	v1,v0,0x6
bfc07e70:	00601021 	move	v0,v1
bfc07e74:	00021180 	sll	v0,v0,0x6
bfc07e78:	00431823 	subu	v1,v0,v1
bfc07e7c:	8fc20004 	lw	v0,4(s8)
bfc07e80:	3042003f 	andi	v0,v0,0x3f
bfc07e84:	00621021 	addu	v0,v1,v0
bfc07e88:	00821023 	subu	v0,a0,v0
bfc07e8c:	afc20010 	sw	v0,16(s8)
D:\loongson\works\ls1d-mylib\lib\func/tdc.c:148
bfc07e90:	8fc20010 	lw	v0,16(s8)
D:\loongson\works\ls1d-mylib\lib\func/tdc.c:149
bfc07e94:	03c0e821 	move	sp,s8
bfc07e98:	8fbe001c 	lw	s8,28(sp)
bfc07e9c:	27bd0020 	addiu	sp,sp,32
bfc07ea0:	03e00008 	jr	ra
bfc07ea4:	00000000 	nop

bfc07ea8 <res_cal>:
res_cal():
D:\loongson\works\ls1d-mylib\lib\func/tdc.c:151
bfc07ea8:	27bdffa8 	addiu	sp,sp,-88
bfc07eac:	afbe0054 	sw	s8,84(sp)
bfc07eb0:	03a0f021 	move	s8,sp
bfc07eb4:	afc40058 	sw	a0,88(s8)
bfc07eb8:	afc5005c 	sw	a1,92(s8)
D:\loongson\works\ls1d-mylib\lib\func/tdc.c:152
bfc07ebc:	afc00010 	sw	zero,16(s8)
D:\loongson\works\ls1d-mylib\lib\func/tdc.c:155
bfc07ec0:	8fc2005c 	lw	v0,92(s8)
bfc07ec4:	8c420010 	lw	v0,16(v0)
bfc07ec8:	30420001 	andi	v0,v0,0x1
bfc07ecc:	afc20004 	sw	v0,4(s8)
D:\loongson\works\ls1d-mylib\lib\func/tdc.c:156
bfc07ed0:	8fc2005c 	lw	v0,92(s8)
bfc07ed4:	8c420010 	lw	v0,16(v0)
bfc07ed8:	00021182 	srl	v0,v0,0x6
bfc07edc:	30420003 	andi	v0,v0,0x3
bfc07ee0:	afc20000 	sw	v0,0(s8)
D:\loongson\works\ls1d-mylib\lib\func/tdc.c:158
bfc07ee4:	8fc2005c 	lw	v0,92(s8)
bfc07ee8:	8c430000 	lw	v1,0(v0)
bfc07eec:	24020002 	li	v0,2
bfc07ef0:	146200cb 	bne	v1,v0,bfc08220 <res_cal+0x378>
bfc07ef4:	00000000 	nop
D:\loongson\works\ls1d-mylib\lib\func/tdc.c:160
bfc07ef8:	8fc20058 	lw	v0,88(s8)
bfc07efc:	00021402 	srl	v0,v0,0x10
bfc07f00:	afc2000c 	sw	v0,12(s8)
D:\loongson\works\ls1d-mylib\lib\func/tdc.c:161
bfc07f04:	8fc20058 	lw	v0,88(s8)
bfc07f08:	3042ffff 	andi	v0,v0,0xffff
bfc07f0c:	afc20008 	sw	v0,8(s8)
D:\loongson\works\ls1d-mylib\lib\func/tdc.c:162
bfc07f10:	8fc30000 	lw	v1,0(s8)
bfc07f14:	24020003 	li	v0,3
bfc07f18:	14620004 	bne	v1,v0,bfc07f2c <res_cal+0x84>
bfc07f1c:	00000000 	nop
D:\loongson\works\ls1d-mylib\lib\func/tdc.c:163
bfc07f20:	8fc20008 	lw	v0,8(s8)
bfc07f24:	00021040 	sll	v0,v0,0x1
bfc07f28:	afc20008 	sw	v0,8(s8)
D:\loongson\works\ls1d-mylib\lib\func/tdc.c:165
bfc07f2c:	8fc20004 	lw	v0,4(s8)
bfc07f30:	1040005f 	beqz	v0,bfc080b0 <res_cal+0x208>
bfc07f34:	00000000 	nop
D:\loongson\works\ls1d-mylib\lib\func/tdc.c:166
bfc07f38:	8fc2000c 	lw	v0,12(s8)
bfc07f3c:	04400006 	bltz	v0,bfc07f58 <res_cal+0xb0>
bfc07f40:	00000000 	nop
bfc07f44:	c7c0000c 	lwc1	$f0,12(s8)
bfc07f48:	46800020 	cvt.s.w	$f0,$f0
bfc07f4c:	e7c0004c 	swc1	$f0,76(s8)
bfc07f50:	0bf01fe2 	j	bfc07f88 <res_cal+0xe0>
bfc07f54:	00000000 	nop
bfc07f58:	8fc2000c 	lw	v0,12(s8)
bfc07f5c:	30420001 	andi	v0,v0,0x1
bfc07f60:	8fc3000c 	lw	v1,12(s8)
bfc07f64:	00031842 	srl	v1,v1,0x1
bfc07f68:	00431025 	or	v0,v0,v1
bfc07f6c:	44820000 	mtc1	v0,$f0
bfc07f70:	46800020 	cvt.s.w	$f0,$f0
bfc07f74:	e7c0004c 	swc1	$f0,76(s8)
bfc07f78:	c7c1004c 	lwc1	$f1,76(s8)
bfc07f7c:	c7c2004c 	lwc1	$f2,76(s8)
bfc07f80:	46020840 	add.s	$f1,$f1,$f2
bfc07f84:	e7c1004c 	swc1	$f1,76(s8)
bfc07f88:	3c02bfc1 	lui	v0,0xbfc1
bfc07f8c:	c440d630 	lwc1	$f0,-10704(v0)
bfc07f90:	c7c1004c 	lwc1	$f1,76(s8)
bfc07f94:	46000802 	mul.s	$f0,$f1,$f0
bfc07f98:	e7c00048 	swc1	$f0,72(s8)
bfc07f9c:	8fc20008 	lw	v0,8(s8)
bfc07fa0:	000211c2 	srl	v0,v0,0x7
bfc07fa4:	00021840 	sll	v1,v0,0x1
bfc07fa8:	00031180 	sll	v0,v1,0x6
bfc07fac:	00431823 	subu	v1,v0,v1
bfc07fb0:	8fc20008 	lw	v0,8(s8)
bfc07fb4:	3042007f 	andi	v0,v0,0x7f
bfc07fb8:	00621821 	addu	v1,v1,v0
bfc07fbc:	afc30044 	sw	v1,68(s8)
bfc07fc0:	8fc20044 	lw	v0,68(s8)
bfc07fc4:	04400006 	bltz	v0,bfc07fe0 <res_cal+0x138>
bfc07fc8:	00000000 	nop
bfc07fcc:	c7c00044 	lwc1	$f0,68(s8)
bfc07fd0:	46800020 	cvt.s.w	$f0,$f0
bfc07fd4:	e7c00040 	swc1	$f0,64(s8)
bfc07fd8:	0bf02004 	j	bfc08010 <res_cal+0x168>
bfc07fdc:	00000000 	nop
bfc07fe0:	8fc30044 	lw	v1,68(s8)
bfc07fe4:	30620001 	andi	v0,v1,0x1
bfc07fe8:	8fc40044 	lw	a0,68(s8)
bfc07fec:	00041842 	srl	v1,a0,0x1
bfc07ff0:	00431025 	or	v0,v0,v1
bfc07ff4:	44820000 	mtc1	v0,$f0
bfc07ff8:	46800020 	cvt.s.w	$f0,$f0
bfc07ffc:	e7c00040 	swc1	$f0,64(s8)
bfc08000:	c7c10040 	lwc1	$f1,64(s8)
bfc08004:	c7c20040 	lwc1	$f2,64(s8)
bfc08008:	46020840 	add.s	$f1,$f1,$f2
bfc0800c:	e7c10040 	swc1	$f1,64(s8)
bfc08010:	3c02bfc1 	lui	v0,0xbfc1
bfc08014:	c440d634 	lwc1	$f0,-10700(v0)
bfc08018:	c7c10040 	lwc1	$f1,64(s8)
bfc0801c:	46000802 	mul.s	$f0,$f1,$f0
bfc08020:	e7c0003c 	swc1	$f0,60(s8)
bfc08024:	8fc2005c 	lw	v0,92(s8)
bfc08028:	8c430030 	lw	v1,48(v0)
bfc0802c:	8fc20000 	lw	v0,0(s8)
bfc08030:	24420001 	addiu	v0,v0,1
bfc08034:	00620018 	mult	v1,v0
bfc08038:	00002012 	mflo	a0
bfc0803c:	afc40038 	sw	a0,56(s8)
bfc08040:	8fc20038 	lw	v0,56(s8)
bfc08044:	04400006 	bltz	v0,bfc08060 <res_cal+0x1b8>
bfc08048:	00000000 	nop
bfc0804c:	c7c00038 	lwc1	$f0,56(s8)
bfc08050:	46800020 	cvt.s.w	$f0,$f0
bfc08054:	e7c00034 	swc1	$f0,52(s8)
bfc08058:	0bf02024 	j	bfc08090 <res_cal+0x1e8>
bfc0805c:	00000000 	nop
bfc08060:	8fc30038 	lw	v1,56(s8)
bfc08064:	30620001 	andi	v0,v1,0x1
bfc08068:	8fc40038 	lw	a0,56(s8)
bfc0806c:	00041842 	srl	v1,a0,0x1
bfc08070:	00431025 	or	v0,v0,v1
bfc08074:	44820000 	mtc1	v0,$f0
bfc08078:	46800020 	cvt.s.w	$f0,$f0
bfc0807c:	e7c00034 	swc1	$f0,52(s8)
bfc08080:	c7c10034 	lwc1	$f1,52(s8)
bfc08084:	c7c20034 	lwc1	$f2,52(s8)
bfc08088:	46020840 	add.s	$f1,$f1,$f2
bfc0808c:	e7c10034 	swc1	$f1,52(s8)
bfc08090:	c7c1003c 	lwc1	$f1,60(s8)
bfc08094:	c7c20034 	lwc1	$f2,52(s8)
bfc08098:	46020803 	div.s	$f0,$f1,$f2
bfc0809c:	c7c10048 	lwc1	$f1,72(s8)
bfc080a0:	46000800 	add.s	$f0,$f1,$f0
bfc080a4:	e7c00010 	swc1	$f0,16(s8)
bfc080a8:	0bf02088 	j	bfc08220 <res_cal+0x378>
bfc080ac:	00000000 	nop
D:\loongson\works\ls1d-mylib\lib\func/tdc.c:168
bfc080b0:	8fc2000c 	lw	v0,12(s8)
bfc080b4:	04400006 	bltz	v0,bfc080d0 <res_cal+0x228>
bfc080b8:	00000000 	nop
bfc080bc:	c7c0000c 	lwc1	$f0,12(s8)
bfc080c0:	46800020 	cvt.s.w	$f0,$f0
bfc080c4:	e7c00030 	swc1	$f0,48(s8)
bfc080c8:	0bf02040 	j	bfc08100 <res_cal+0x258>
bfc080cc:	00000000 	nop
bfc080d0:	8fc2000c 	lw	v0,12(s8)
bfc080d4:	30420001 	andi	v0,v0,0x1
bfc080d8:	8fc3000c 	lw	v1,12(s8)
bfc080dc:	00031842 	srl	v1,v1,0x1
bfc080e0:	00431025 	or	v0,v0,v1
bfc080e4:	44821000 	mtc1	v0,$f2
bfc080e8:	468010a0 	cvt.s.w	$f2,$f2
bfc080ec:	e7c20030 	swc1	$f2,48(s8)
bfc080f0:	c7c00030 	lwc1	$f0,48(s8)
bfc080f4:	c7c10030 	lwc1	$f1,48(s8)
bfc080f8:	46010000 	add.s	$f0,$f0,$f1
bfc080fc:	e7c00030 	swc1	$f0,48(s8)
bfc08100:	3c02bfc1 	lui	v0,0xbfc1
bfc08104:	c440d630 	lwc1	$f0,-10704(v0)
bfc08108:	c7c20030 	lwc1	$f2,48(s8)
bfc0810c:	46001002 	mul.s	$f0,$f2,$f0
bfc08110:	e7c0002c 	swc1	$f0,44(s8)
bfc08114:	8fc20008 	lw	v0,8(s8)
bfc08118:	00021982 	srl	v1,v0,0x6
bfc0811c:	00601021 	move	v0,v1
bfc08120:	00021180 	sll	v0,v0,0x6
bfc08124:	00431823 	subu	v1,v0,v1
bfc08128:	8fc20008 	lw	v0,8(s8)
bfc0812c:	3042003f 	andi	v0,v0,0x3f
bfc08130:	00621821 	addu	v1,v1,v0
bfc08134:	afc30028 	sw	v1,40(s8)
bfc08138:	8fc20028 	lw	v0,40(s8)
bfc0813c:	04400006 	bltz	v0,bfc08158 <res_cal+0x2b0>
bfc08140:	00000000 	nop
bfc08144:	c7c00028 	lwc1	$f0,40(s8)
bfc08148:	46800020 	cvt.s.w	$f0,$f0
bfc0814c:	e7c00024 	swc1	$f0,36(s8)
bfc08150:	0bf02062 	j	bfc08188 <res_cal+0x2e0>
bfc08154:	00000000 	nop
bfc08158:	8fc30028 	lw	v1,40(s8)
bfc0815c:	30620001 	andi	v0,v1,0x1
bfc08160:	8fc40028 	lw	a0,40(s8)
bfc08164:	00041842 	srl	v1,a0,0x1
bfc08168:	00431025 	or	v0,v0,v1
bfc0816c:	44820000 	mtc1	v0,$f0
bfc08170:	46800020 	cvt.s.w	$f0,$f0
bfc08174:	e7c00024 	swc1	$f0,36(s8)
bfc08178:	c7c10024 	lwc1	$f1,36(s8)
bfc0817c:	c7c20024 	lwc1	$f2,36(s8)
bfc08180:	46020840 	add.s	$f1,$f1,$f2
bfc08184:	e7c10024 	swc1	$f1,36(s8)
bfc08188:	3c02bfc1 	lui	v0,0xbfc1
bfc0818c:	c440d634 	lwc1	$f0,-10700(v0)
bfc08190:	c7c10024 	lwc1	$f1,36(s8)
bfc08194:	46000802 	mul.s	$f0,$f1,$f0
bfc08198:	e7c00020 	swc1	$f0,32(s8)
bfc0819c:	8fc2005c 	lw	v0,92(s8)
bfc081a0:	8c430030 	lw	v1,48(v0)
bfc081a4:	8fc20000 	lw	v0,0(s8)
bfc081a8:	24420001 	addiu	v0,v0,1
bfc081ac:	00620018 	mult	v1,v0
bfc081b0:	00002012 	mflo	a0
bfc081b4:	afc4001c 	sw	a0,28(s8)
bfc081b8:	8fc2001c 	lw	v0,28(s8)
bfc081bc:	04400006 	bltz	v0,bfc081d8 <res_cal+0x330>
bfc081c0:	00000000 	nop
bfc081c4:	c7c0001c 	lwc1	$f0,28(s8)
bfc081c8:	46800020 	cvt.s.w	$f0,$f0
bfc081cc:	e7c00018 	swc1	$f0,24(s8)
bfc081d0:	0bf02082 	j	bfc08208 <res_cal+0x360>
bfc081d4:	00000000 	nop
bfc081d8:	8fc3001c 	lw	v1,28(s8)
bfc081dc:	30620001 	andi	v0,v1,0x1
bfc081e0:	8fc4001c 	lw	a0,28(s8)
bfc081e4:	00041842 	srl	v1,a0,0x1
bfc081e8:	00431025 	or	v0,v0,v1
bfc081ec:	44820000 	mtc1	v0,$f0
bfc081f0:	46800020 	cvt.s.w	$f0,$f0
bfc081f4:	e7c00018 	swc1	$f0,24(s8)
bfc081f8:	c7c10018 	lwc1	$f1,24(s8)
bfc081fc:	c7c20018 	lwc1	$f2,24(s8)
bfc08200:	46020840 	add.s	$f1,$f1,$f2
bfc08204:	e7c10018 	swc1	$f1,24(s8)
bfc08208:	c7c10020 	lwc1	$f1,32(s8)
bfc0820c:	c7c20018 	lwc1	$f2,24(s8)
bfc08210:	46020803 	div.s	$f0,$f1,$f2
bfc08214:	c7c1002c 	lwc1	$f1,44(s8)
bfc08218:	46000800 	add.s	$f0,$f1,$f0
bfc0821c:	e7c00010 	swc1	$f0,16(s8)
D:\loongson\works\ls1d-mylib\lib\func/tdc.c:178
bfc08220:	c7c00010 	lwc1	$f0,16(s8)
D:\loongson\works\ls1d-mylib\lib\func/tdc.c:179
bfc08224:	03c0e821 	move	sp,s8
bfc08228:	8fbe0054 	lw	s8,84(sp)
bfc0822c:	27bd0058 	addiu	sp,sp,88
bfc08230:	03e00008 	jr	ra
bfc08234:	00000000 	nop

bfc08238 <ftime_Caculate>:
ftime_Caculate():
D:\loongson\works\ls1d-mylib\lib\func/tdc.c:182
bfc08238:	27bdffc8 	addiu	sp,sp,-56
bfc0823c:	afbe0034 	sw	s8,52(sp)
bfc08240:	03a0f021 	move	s8,sp
bfc08244:	afc40038 	sw	a0,56(s8)
bfc08248:	afc5003c 	sw	a1,60(s8)
bfc0824c:	afc60040 	sw	a2,64(s8)
bfc08250:	03a01021 	move	v0,sp
bfc08254:	afc20010 	sw	v0,16(s8)
D:\loongson\works\ls1d-mylib\lib\func/tdc.c:184
bfc08258:	8fc70040 	lw	a3,64(s8)
bfc0825c:	00e01021 	move	v0,a3
bfc08260:	afc20028 	sw	v0,40(s8)
bfc08264:	00001821 	move	v1,zero
bfc08268:	afc3002c 	sw	v1,44(s8)
bfc0826c:	8fc40028 	lw	a0,40(s8)
bfc08270:	8fc5002c 	lw	a1,44(s8)
bfc08274:	afc40028 	sw	a0,40(s8)
bfc08278:	afc5002c 	sw	a1,44(s8)
bfc0827c:	2404ffff 	li	a0,-1
bfc08280:	8fc50028 	lw	a1,40(s8)
bfc08284:	00a41024 	and	v0,a1,a0
bfc08288:	8fc4002c 	lw	a0,44(s8)
bfc0828c:	3083000f 	andi	v1,a0,0xf
bfc08290:	afc20028 	sw	v0,40(s8)
bfc08294:	afc3002c 	sw	v1,44(s8)
bfc08298:	8fc50028 	lw	a1,40(s8)
bfc0829c:	000516c2 	srl	v0,a1,0x1b
bfc082a0:	8fc3002c 	lw	v1,44(s8)
bfc082a4:	00032940 	sll	a1,v1,0x5
bfc082a8:	00452825 	or	a1,v0,a1
bfc082ac:	8fc20028 	lw	v0,40(s8)
bfc082b0:	00022140 	sll	a0,v0,0x5
bfc082b4:	2406ffff 	li	a2,-1
bfc082b8:	00861024 	and	v0,a0,a2
bfc082bc:	30a3000f 	andi	v1,a1,0xf
bfc082c0:	00402021 	move	a0,v0
bfc082c4:	00602821 	move	a1,v1
bfc082c8:	00e01821 	move	v1,a3
bfc082cc:	afc30020 	sw	v1,32(s8)
bfc082d0:	00002021 	move	a0,zero
bfc082d4:	afc40024 	sw	a0,36(s8)
bfc082d8:	8fc20020 	lw	v0,32(s8)
bfc082dc:	8fc30024 	lw	v1,36(s8)
bfc082e0:	afc20020 	sw	v0,32(s8)
bfc082e4:	afc30024 	sw	v1,36(s8)
bfc082e8:	2404ffff 	li	a0,-1
bfc082ec:	8fc50020 	lw	a1,32(s8)
bfc082f0:	00a41024 	and	v0,a1,a0
bfc082f4:	8fc40024 	lw	a0,36(s8)
bfc082f8:	3083000f 	andi	v1,a0,0xf
bfc082fc:	afc20020 	sw	v0,32(s8)
bfc08300:	afc30024 	sw	v1,36(s8)
bfc08304:	8fc50020 	lw	a1,32(s8)
bfc08308:	000516c2 	srl	v0,a1,0x1b
bfc0830c:	8fc30024 	lw	v1,36(s8)
bfc08310:	00032940 	sll	a1,v1,0x5
bfc08314:	00452825 	or	a1,v0,a1
bfc08318:	8fc20020 	lw	v0,32(s8)
bfc0831c:	00022140 	sll	a0,v0,0x5
bfc08320:	2406ffff 	li	a2,-1
bfc08324:	00861024 	and	v0,a0,a2
bfc08328:	30a3000f 	andi	v1,a1,0xf
bfc0832c:	00402021 	move	a0,v0
bfc08330:	00602821 	move	a1,v1
bfc08334:	00071080 	sll	v0,a3,0x2
bfc08338:	24420007 	addiu	v0,v0,7
bfc0833c:	24420007 	addiu	v0,v0,7
bfc08340:	000210c2 	srl	v0,v0,0x3
bfc08344:	000210c0 	sll	v0,v0,0x3
bfc08348:	03a2e823 	subu	sp,sp,v0
bfc0834c:	afdd001c 	sw	sp,28(s8)
bfc08350:	8fc3001c 	lw	v1,28(s8)
bfc08354:	24620007 	addiu	v0,v1,7
bfc08358:	000210c2 	srl	v0,v0,0x3
bfc0835c:	000210c0 	sll	v0,v0,0x3
bfc08360:	afc2001c 	sw	v0,28(s8)
bfc08364:	8fc4001c 	lw	a0,28(s8)
bfc08368:	afc40008 	sw	a0,8(s8)
bfc0836c:	afc00000 	sw	zero,0(s8)
D:\loongson\works\ls1d-mylib\lib\func/tdc.c:185
bfc08370:	24020001 	li	v0,1
bfc08374:	afc20004 	sw	v0,4(s8)
bfc08378:	0bf020fd 	j	bfc083f4 <ftime_Caculate+0x1bc>
bfc0837c:	00000000 	nop
D:\loongson\works\ls1d-mylib\lib\func/tdc.c:187
bfc08380:	8fc40004 	lw	a0,4(s8)
bfc08384:	8fc30004 	lw	v1,4(s8)
bfc08388:	8fc2003c 	lw	v0,60(s8)
bfc0838c:	00621021 	addu	v0,v1,v0
bfc08390:	00021880 	sll	v1,v0,0x2
bfc08394:	8fc20038 	lw	v0,56(s8)
bfc08398:	00431021 	addu	v0,v0,v1
bfc0839c:	c4410000 	lwc1	$f1,0(v0)
bfc083a0:	8fc2003c 	lw	v0,60(s8)
bfc083a4:	00021880 	sll	v1,v0,0x2
bfc083a8:	8fc20038 	lw	v0,56(s8)
bfc083ac:	00431021 	addu	v0,v0,v1
bfc083b0:	c4400000 	lwc1	$f0,0(v0)
bfc083b4:	46000801 	sub.s	$f0,$f1,$f0
bfc083b8:	8fc30008 	lw	v1,8(s8)
bfc083bc:	00041080 	sll	v0,a0,0x2
bfc083c0:	00621021 	addu	v0,v1,v0
bfc083c4:	e4400000 	swc1	$f0,0(v0)
D:\loongson\works\ls1d-mylib\lib\func/tdc.c:188
bfc083c8:	8fc20004 	lw	v0,4(s8)
bfc083cc:	8fc30008 	lw	v1,8(s8)
bfc083d0:	00021080 	sll	v0,v0,0x2
bfc083d4:	00621021 	addu	v0,v1,v0
bfc083d8:	c4410000 	lwc1	$f1,0(v0)
bfc083dc:	c7c00000 	lwc1	$f0,0(s8)
bfc083e0:	46010000 	add.s	$f0,$f0,$f1
bfc083e4:	e7c00000 	swc1	$f0,0(s8)
D:\loongson\works\ls1d-mylib\lib\func/tdc.c:185
bfc083e8:	8fc20004 	lw	v0,4(s8)
bfc083ec:	24420001 	addiu	v0,v0,1
bfc083f0:	afc20004 	sw	v0,4(s8)
bfc083f4:	8fc20004 	lw	v0,4(s8)
bfc083f8:	8fc30040 	lw	v1,64(s8)
bfc083fc:	0043102b 	sltu	v0,v0,v1
bfc08400:	1440ffdf 	bnez	v0,bfc08380 <ftime_Caculate+0x148>
bfc08404:	00000000 	nop
D:\loongson\works\ls1d-mylib\lib\func/tdc.c:191
bfc08408:	8fc30040 	lw	v1,64(s8)
bfc0840c:	24020001 	li	v0,1
bfc08410:	1062001c 	beq	v1,v0,bfc08484 <ftime_Caculate+0x24c>
bfc08414:	00000000 	nop
D:\loongson\works\ls1d-mylib\lib\func/tdc.c:192
bfc08418:	8fc20040 	lw	v0,64(s8)
bfc0841c:	2442ffff 	addiu	v0,v0,-1
bfc08420:	afc20018 	sw	v0,24(s8)
bfc08424:	8fc50018 	lw	a1,24(s8)
bfc08428:	04a00006 	bltz	a1,bfc08444 <ftime_Caculate+0x20c>
bfc0842c:	00000000 	nop
bfc08430:	c7c00018 	lwc1	$f0,24(s8)
bfc08434:	46800020 	cvt.s.w	$f0,$f0
bfc08438:	e7c00014 	swc1	$f0,20(s8)
bfc0843c:	0bf0211d 	j	bfc08474 <ftime_Caculate+0x23c>
bfc08440:	00000000 	nop
bfc08444:	8fc30018 	lw	v1,24(s8)
bfc08448:	30620001 	andi	v0,v1,0x1
bfc0844c:	8fc40018 	lw	a0,24(s8)
bfc08450:	00041842 	srl	v1,a0,0x1
bfc08454:	00431025 	or	v0,v0,v1
bfc08458:	44820000 	mtc1	v0,$f0
bfc0845c:	46800020 	cvt.s.w	$f0,$f0
bfc08460:	e7c00014 	swc1	$f0,20(s8)
bfc08464:	c7c10014 	lwc1	$f1,20(s8)
bfc08468:	c7c00014 	lwc1	$f0,20(s8)
bfc0846c:	46000840 	add.s	$f1,$f1,$f0
bfc08470:	e7c10014 	swc1	$f1,20(s8)
bfc08474:	c7c00000 	lwc1	$f0,0(s8)
bfc08478:	c7c10014 	lwc1	$f1,20(s8)
bfc0847c:	46010003 	div.s	$f0,$f0,$f1
bfc08480:	e7c00000 	swc1	$f0,0(s8)
D:\loongson\works\ls1d-mylib\lib\func/tdc.c:194
bfc08484:	c7c00000 	lwc1	$f0,0(s8)
bfc08488:	8fdd0010 	lw	sp,16(s8)
D:\loongson\works\ls1d-mylib\lib\func/tdc.c:195
bfc0848c:	03c0e821 	move	sp,s8
bfc08490:	8fbe0034 	lw	s8,52(sp)
bfc08494:	27bd0038 	addiu	sp,sp,56
bfc08498:	03e00008 	jr	ra
bfc0849c:	00000000 	nop

bfc084a0 <ptime_Caculate>:
ptime_Caculate():
D:\loongson\works\ls1d-mylib\lib\func/tdc.c:197
bfc084a0:	27bdffe8 	addiu	sp,sp,-24
bfc084a4:	afbe0014 	sw	s8,20(sp)
bfc084a8:	03a0f021 	move	s8,sp
bfc084ac:	afc40018 	sw	a0,24(s8)
bfc084b0:	afc5001c 	sw	a1,28(s8)
bfc084b4:	afc60020 	sw	a2,32(s8)
bfc084b8:	afc70024 	sw	a3,36(s8)
D:\loongson\works\ls1d-mylib\lib\func/tdc.c:199
bfc084bc:	afc00004 	sw	zero,4(s8)
bfc084c0:	0bf0213a 	j	bfc084e8 <ptime_Caculate+0x48>
bfc084c4:	00000000 	nop
D:\loongson\works\ls1d-mylib\lib\func/tdc.c:200
bfc084c8:	8fc20004 	lw	v0,4(s8)
bfc084cc:	00021880 	sll	v1,v0,0x2
bfc084d0:	8fc20020 	lw	v0,32(s8)
bfc084d4:	00431021 	addu	v0,v0,v1
bfc084d8:	ac400000 	sw	zero,0(v0)
D:\loongson\works\ls1d-mylib\lib\func/tdc.c:199
bfc084dc:	8fc20004 	lw	v0,4(s8)
bfc084e0:	24420001 	addiu	v0,v0,1
bfc084e4:	afc20004 	sw	v0,4(s8)
bfc084e8:	8fc20004 	lw	v0,4(s8)
bfc084ec:	28420004 	slti	v0,v0,4
bfc084f0:	1440fff5 	bnez	v0,bfc084c8 <ptime_Caculate+0x28>
bfc084f4:	00000000 	nop
D:\loongson\works\ls1d-mylib\lib\func/tdc.c:202
bfc084f8:	8fc20024 	lw	v0,36(s8)
bfc084fc:	8c4200c4 	lw	v0,196(v0)
bfc08500:	afc20008 	sw	v0,8(s8)
bfc08504:	24020004 	li	v0,4
bfc08508:	8fc30008 	lw	v1,8(s8)
bfc0850c:	10620037 	beq	v1,v0,bfc085ec <ptime_Caculate+0x14c>
bfc08510:	00000000 	nop
bfc08514:	8fc30008 	lw	v1,8(s8)
bfc08518:	2c620005 	sltiu	v0,v1,5
bfc0851c:	10400007 	beqz	v0,bfc0853c <ptime_Caculate+0x9c>
bfc08520:	00000000 	nop
bfc08524:	24020003 	li	v0,3
bfc08528:	8fc30008 	lw	v1,8(s8)
bfc0852c:	1062000d 	beq	v1,v0,bfc08564 <ptime_Caculate+0xc4>
bfc08530:	00000000 	nop
bfc08534:	0bf021a1 	j	bfc08684 <ptime_Caculate+0x1e4>
bfc08538:	00000000 	nop
bfc0853c:	24020005 	li	v0,5
bfc08540:	8fc30008 	lw	v1,8(s8)
bfc08544:	10620007 	beq	v1,v0,bfc08564 <ptime_Caculate+0xc4>
bfc08548:	00000000 	nop
bfc0854c:	24020008 	li	v0,8
bfc08550:	8fc30008 	lw	v1,8(s8)
bfc08554:	10620025 	beq	v1,v0,bfc085ec <ptime_Caculate+0x14c>
bfc08558:	00000000 	nop
bfc0855c:	0bf021a1 	j	bfc08684 <ptime_Caculate+0x1e4>
bfc08560:	00000000 	nop
D:\loongson\works\ls1d-mylib\lib\func/tdc.c:205
bfc08564:	afc00004 	sw	zero,4(s8)
bfc08568:	0bf02172 	j	bfc085c8 <ptime_Caculate+0x128>
bfc0856c:	00000000 	nop
D:\loongson\works\ls1d-mylib\lib\func/tdc.c:206
bfc08570:	8fc20004 	lw	v0,4(s8)
bfc08574:	00021880 	sll	v1,v0,0x2
bfc08578:	8fc20020 	lw	v0,32(s8)
bfc0857c:	00432021 	addu	a0,v0,v1
bfc08580:	8fc30004 	lw	v1,4(s8)
bfc08584:	8fc2001c 	lw	v0,28(s8)
bfc08588:	00621021 	addu	v0,v1,v0
bfc0858c:	24420001 	addiu	v0,v0,1
bfc08590:	00021880 	sll	v1,v0,0x2
bfc08594:	8fc20018 	lw	v0,24(s8)
bfc08598:	00431021 	addu	v0,v0,v1
bfc0859c:	c4410000 	lwc1	$f1,0(v0)
bfc085a0:	8fc2001c 	lw	v0,28(s8)
bfc085a4:	00021880 	sll	v1,v0,0x2
bfc085a8:	8fc20018 	lw	v0,24(s8)
bfc085ac:	00431021 	addu	v0,v0,v1
bfc085b0:	c4400000 	lwc1	$f0,0(v0)
bfc085b4:	46000801 	sub.s	$f0,$f1,$f0
bfc085b8:	e4800000 	swc1	$f0,0(a0)
D:\loongson\works\ls1d-mylib\lib\func/tdc.c:205
bfc085bc:	8fc20004 	lw	v0,4(s8)
bfc085c0:	24420001 	addiu	v0,v0,1
bfc085c4:	afc20004 	sw	v0,4(s8)
bfc085c8:	8fc30004 	lw	v1,4(s8)
bfc085cc:	8fc20024 	lw	v0,36(s8)
bfc085d0:	8c4200c4 	lw	v0,196(v0)
bfc085d4:	2442ffff 	addiu	v0,v0,-1
bfc085d8:	0062102b 	sltu	v0,v1,v0
bfc085dc:	1440ffe4 	bnez	v0,bfc08570 <ptime_Caculate+0xd0>
bfc085e0:	00000000 	nop
bfc085e4:	0bf021a1 	j	bfc08684 <ptime_Caculate+0x1e4>
bfc085e8:	00000000 	nop
D:\loongson\works\ls1d-mylib\lib\func/tdc.c:210
bfc085ec:	afc00004 	sw	zero,4(s8)
bfc085f0:	afc00000 	sw	zero,0(s8)
bfc085f4:	0bf0219a 	j	bfc08668 <ptime_Caculate+0x1c8>
bfc085f8:	00000000 	nop
D:\loongson\works\ls1d-mylib\lib\func/tdc.c:211
bfc085fc:	8fc20004 	lw	v0,4(s8)
bfc08600:	00021880 	sll	v1,v0,0x2
bfc08604:	8fc20020 	lw	v0,32(s8)
bfc08608:	00432021 	addu	a0,v0,v1
bfc0860c:	8fc30000 	lw	v1,0(s8)
bfc08610:	8fc2001c 	lw	v0,28(s8)
bfc08614:	00621021 	addu	v0,v1,v0
bfc08618:	24420001 	addiu	v0,v0,1
bfc0861c:	00021880 	sll	v1,v0,0x2
bfc08620:	8fc20018 	lw	v0,24(s8)
bfc08624:	00431021 	addu	v0,v0,v1
bfc08628:	c4410000 	lwc1	$f1,0(v0)
bfc0862c:	8fc30000 	lw	v1,0(s8)
bfc08630:	8fc2001c 	lw	v0,28(s8)
bfc08634:	00621021 	addu	v0,v1,v0
bfc08638:	00021880 	sll	v1,v0,0x2
bfc0863c:	8fc20018 	lw	v0,24(s8)
bfc08640:	00431021 	addu	v0,v0,v1
bfc08644:	c4400000 	lwc1	$f0,0(v0)
bfc08648:	46000801 	sub.s	$f0,$f1,$f0
bfc0864c:	e4800000 	swc1	$f0,0(a0)
D:\loongson\works\ls1d-mylib\lib\func/tdc.c:210
bfc08650:	8fc20004 	lw	v0,4(s8)
bfc08654:	24420001 	addiu	v0,v0,1
bfc08658:	afc20004 	sw	v0,4(s8)
bfc0865c:	8fc20000 	lw	v0,0(s8)
bfc08660:	24420002 	addiu	v0,v0,2
bfc08664:	afc20000 	sw	v0,0(s8)
bfc08668:	8fc30004 	lw	v1,4(s8)
bfc0866c:	8fc20024 	lw	v0,36(s8)
bfc08670:	8c4200c4 	lw	v0,196(v0)
bfc08674:	00021042 	srl	v0,v0,0x1
bfc08678:	0062102b 	sltu	v0,v1,v0
bfc0867c:	1440ffdf 	bnez	v0,bfc085fc <ptime_Caculate+0x15c>
bfc08680:	00000000 	nop
D:\loongson\works\ls1d-mylib\lib\func/tdc.c:215
bfc08684:	03c0e821 	move	sp,s8
bfc08688:	8fbe0014 	lw	s8,20(sp)
bfc0868c:	27bd0018 	addiu	sp,sp,24
bfc08690:	03e00008 	jr	ra
bfc08694:	00000000 	nop

bfc08698 <func_once_time>:
func_once_time():
D:\loongson\works\ls1d-mylib\lib\func/tdc.c:218
bfc08698:	27bdffc8 	addiu	sp,sp,-56
bfc0869c:	afbf0034 	sw	ra,52(sp)
bfc086a0:	afbe0030 	sw	s8,48(sp)
bfc086a4:	afb0002c 	sw	s0,44(sp)
bfc086a8:	03a0f021 	move	s8,sp
bfc086ac:	afc40038 	sw	a0,56(s8)
D:\loongson\works\ls1d-mylib\lib\func/tdc.c:219
bfc086b0:	8fc20038 	lw	v0,56(s8)
bfc086b4:	8c430000 	lw	v1,0(v0)
bfc086b8:	24020002 	li	v0,2
bfc086bc:	14620069 	bne	v1,v0,bfc08864 <func_once_time+0x1cc>
bfc086c0:	00000000 	nop
D:\loongson\works\ls1d-mylib\lib\func/tdc.c:223
bfc086c4:	3c02bfc1 	lui	v0,0xbfc1
bfc086c8:	8c42d9f4 	lw	v0,-9740(v0)
bfc086cc:	8c420000 	lw	v0,0(v0)
bfc086d0:	30428000 	andi	v0,v0,0x8000
bfc086d4:	afc2001c 	sw	v0,28(s8)
D:\loongson\works\ls1d-mylib\lib\func/tdc.c:225
bfc086d8:	8fc20038 	lw	v0,56(s8)
bfc086dc:	8c43000c 	lw	v1,12(v0)
bfc086e0:	8fc20038 	lw	v0,56(s8)
bfc086e4:	8c420008 	lw	v0,8(v0)
bfc086e8:	00021040 	sll	v0,v0,0x1
bfc086ec:	00621023 	subu	v0,v1,v0
bfc086f0:	24430002 	addiu	v1,v0,2
bfc086f4:	8fc20038 	lw	v0,56(s8)
bfc086f8:	ac4300c4 	sw	v1,196(v0)
D:\loongson\works\ls1d-mylib\lib\func/tdc.c:227
bfc086fc:	8fc40038 	lw	a0,56(s8)
bfc08700:	0ff01eba 	jal	bfc07ae8 <check_res>
bfc08704:	00000000 	nop
bfc08708:	afc20018 	sw	v0,24(s8)
D:\loongson\works\ls1d-mylib\lib\func/tdc.c:228
bfc0870c:	8fc20018 	lw	v0,24(s8)
bfc08710:	10400005 	beqz	v0,bfc08728 <func_once_time+0x90>
bfc08714:	00000000 	nop
bfc08718:	24020001 	li	v0,1
bfc0871c:	afc20020 	sw	v0,32(s8)
bfc08720:	0bf0221a 	j	bfc08868 <func_once_time+0x1d0>
bfc08724:	00000000 	nop
D:\loongson\works\ls1d-mylib\lib\func/tdc.c:231
bfc08728:	8fc20038 	lw	v0,56(s8)
bfc0872c:	8c4200b4 	lw	v0,180(v0)
bfc08730:	2442fffe 	addiu	v0,v0,-2
bfc08734:	8fc30038 	lw	v1,56(s8)
bfc08738:	2442000c 	addiu	v0,v0,12
bfc0873c:	00021080 	sll	v0,v0,0x2
bfc08740:	00621021 	addu	v0,v1,v0
bfc08744:	8c440004 	lw	a0,4(v0)
bfc08748:	8fc20038 	lw	v0,56(s8)
bfc0874c:	8c4200b4 	lw	v0,180(v0)
bfc08750:	2442ffff 	addiu	v0,v0,-1
bfc08754:	8fc30038 	lw	v1,56(s8)
bfc08758:	2442000c 	addiu	v0,v0,12
bfc0875c:	00021080 	sll	v0,v0,0x2
bfc08760:	00621021 	addu	v0,v1,v0
bfc08764:	8c420004 	lw	v0,4(v0)
bfc08768:	00402821 	move	a1,v0
bfc0876c:	8fc60038 	lw	a2,56(s8)
bfc08770:	0ff01f5f 	jal	bfc07d7c <calibrate>
bfc08774:	00000000 	nop
bfc08778:	00401821 	move	v1,v0
bfc0877c:	8fc20038 	lw	v0,56(s8)
bfc08780:	ac430030 	sw	v1,48(v0)
D:\loongson\works\ls1d-mylib\lib\func/tdc.c:232
bfc08784:	8fc20038 	lw	v0,56(s8)
bfc08788:	8c4200bc 	lw	v0,188(v0)
bfc0878c:	afc20014 	sw	v0,20(s8)
bfc08790:	0bf021f9 	j	bfc087e4 <func_once_time+0x14c>
bfc08794:	00000000 	nop
D:\loongson\works\ls1d-mylib\lib\func/tdc.c:234
bfc08798:	8fd00014 	lw	s0,20(s8)
bfc0879c:	8fc20014 	lw	v0,20(s8)
bfc087a0:	8fc30038 	lw	v1,56(s8)
bfc087a4:	2442000c 	addiu	v0,v0,12
bfc087a8:	00021080 	sll	v0,v0,0x2
bfc087ac:	00621021 	addu	v0,v1,v0
bfc087b0:	8c420004 	lw	v0,4(v0)
bfc087b4:	00402021 	move	a0,v0
bfc087b8:	8fc50038 	lw	a1,56(s8)
bfc087bc:	0ff01faa 	jal	bfc07ea8 <res_cal>
bfc087c0:	00000000 	nop
bfc087c4:	8fc30038 	lw	v1,56(s8)
bfc087c8:	2602001c 	addiu	v0,s0,28
bfc087cc:	00021080 	sll	v0,v0,0x2
bfc087d0:	00621021 	addu	v0,v1,v0
bfc087d4:	e4400004 	swc1	$f0,4(v0)
D:\loongson\works\ls1d-mylib\lib\func/tdc.c:232
bfc087d8:	8fc20014 	lw	v0,20(s8)
bfc087dc:	24420001 	addiu	v0,v0,1
bfc087e0:	afc20014 	sw	v0,20(s8)
bfc087e4:	8fc20038 	lw	v0,56(s8)
bfc087e8:	8c4300bc 	lw	v1,188(v0)
bfc087ec:	8fc20038 	lw	v0,56(s8)
bfc087f0:	8c42000c 	lw	v0,12(v0)
bfc087f4:	00621821 	addu	v1,v1,v0
bfc087f8:	8fc20014 	lw	v0,20(s8)
bfc087fc:	0043102b 	sltu	v0,v0,v1
bfc08800:	1440ffe5 	bnez	v0,bfc08798 <func_once_time+0x100>
bfc08804:	00000000 	nop
D:\loongson\works\ls1d-mylib\lib\func/tdc.c:237
bfc08808:	afc00010 	sw	zero,16(s8)
D:\loongson\works\ls1d-mylib\lib\func/tdc.c:238
bfc0880c:	8fc20038 	lw	v0,56(s8)
bfc08810:	24430074 	addiu	v1,v0,116
bfc08814:	8fc20038 	lw	v0,56(s8)
bfc08818:	8c4500bc 	lw	a1,188(v0)
bfc0881c:	8fc20038 	lw	v0,56(s8)
bfc08820:	8c42000c 	lw	v0,12(v0)
bfc08824:	00602021 	move	a0,v1
bfc08828:	00403021 	move	a2,v0
bfc0882c:	0ff0208e 	jal	bfc08238 <ftime_Caculate>
bfc08830:	00000000 	nop
bfc08834:	e7c00010 	swc1	$f0,16(s8)
D:\loongson\works\ls1d-mylib\lib\func/tdc.c:239
bfc08838:	8fc2001c 	lw	v0,28(s8)
bfc0883c:	10400006 	beqz	v0,bfc08858 <func_once_time+0x1c0>
bfc08840:	00000000 	nop
D:\loongson\works\ls1d-mylib\lib\func/tdc.c:240
bfc08844:	8fc20038 	lw	v0,56(s8)
bfc08848:	c7c00010 	lwc1	$f0,16(s8)
bfc0884c:	e4400024 	swc1	$f0,36(v0)
bfc08850:	0bf02219 	j	bfc08864 <func_once_time+0x1cc>
bfc08854:	00000000 	nop
D:\loongson\works\ls1d-mylib\lib\func/tdc.c:243
bfc08858:	8fc20038 	lw	v0,56(s8)
bfc0885c:	c7c00010 	lwc1	$f0,16(s8)
bfc08860:	e4400028 	swc1	$f0,40(v0)
D:\loongson\works\ls1d-mylib\lib\func/tdc.c:255
bfc08864:	afc00020 	sw	zero,32(s8)
bfc08868:	8fc20020 	lw	v0,32(s8)
D:\loongson\works\ls1d-mylib\lib\func/tdc.c:256
bfc0886c:	03c0e821 	move	sp,s8
bfc08870:	8fbf0034 	lw	ra,52(sp)
bfc08874:	8fbe0030 	lw	s8,48(sp)
bfc08878:	8fb0002c 	lw	s0,44(sp)
bfc0887c:	27bd0038 	addiu	sp,sp,56
bfc08880:	03e00008 	jr	ra
bfc08884:	00000000 	nop

bfc08888 <func_once_thsens>:
func_once_thsens():
D:\loongson\works\ls1d-mylib\lib\func/tdc.c:258
bfc08888:	27bdffb8 	addiu	sp,sp,-72
bfc0888c:	afbf0044 	sw	ra,68(sp)
bfc08890:	afbe0040 	sw	s8,64(sp)
bfc08894:	afb0003c 	sw	s0,60(sp)
bfc08898:	03a0f021 	move	s8,sp
bfc0889c:	afc40048 	sw	a0,72(s8)
D:\loongson\works\ls1d-mylib\lib\func/tdc.c:259
bfc088a0:	8fc20048 	lw	v0,72(s8)
bfc088a4:	8c430000 	lw	v1,0(v0)
bfc088a8:	24020002 	li	v0,2
bfc088ac:	1462008b 	bne	v1,v0,bfc08adc <func_once_thsens+0x254>
bfc088b0:	00000000 	nop
D:\loongson\works\ls1d-mylib\lib\func/tdc.c:262
bfc088b4:	3c02bfc1 	lui	v0,0xbfc1
bfc088b8:	8c42d9f8 	lw	v0,-9736(v0)
bfc088bc:	8c420000 	lw	v0,0(v0)
bfc088c0:	30420008 	andi	v0,v0,0x8
bfc088c4:	10400012 	beqz	v0,bfc08910 <func_once_thsens+0x88>
bfc088c8:	00000000 	nop
D:\loongson\works\ls1d-mylib\lib\func/tdc.c:263
bfc088cc:	3c02bfc1 	lui	v0,0xbfc1
bfc088d0:	8c42d9f8 	lw	v0,-9736(v0)
bfc088d4:	8c420000 	lw	v0,0(v0)
bfc088d8:	30420002 	andi	v0,v0,0x2
bfc088dc:	10400005 	beqz	v0,bfc088f4 <func_once_thsens+0x6c>
bfc088e0:	00000000 	nop
bfc088e4:	24020005 	li	v0,5
bfc088e8:	afc20030 	sw	v0,48(s8)
bfc088ec:	0bf0223f 	j	bfc088fc <func_once_thsens+0x74>
bfc088f0:	00000000 	nop
bfc088f4:	24030003 	li	v1,3
bfc088f8:	afc30030 	sw	v1,48(s8)
bfc088fc:	8fc20048 	lw	v0,72(s8)
bfc08900:	8fc30030 	lw	v1,48(s8)
bfc08904:	ac4300c4 	sw	v1,196(v0)
bfc08908:	0bf02253 	j	bfc0894c <func_once_thsens+0xc4>
bfc0890c:	00000000 	nop
D:\loongson\works\ls1d-mylib\lib\func/tdc.c:265
bfc08910:	3c02bfc1 	lui	v0,0xbfc1
bfc08914:	8c42d9f8 	lw	v0,-9736(v0)
bfc08918:	8c420000 	lw	v0,0(v0)
bfc0891c:	30420002 	andi	v0,v0,0x2
bfc08920:	10400005 	beqz	v0,bfc08938 <func_once_thsens+0xb0>
bfc08924:	00000000 	nop
bfc08928:	24020008 	li	v0,8
bfc0892c:	afc2002c 	sw	v0,44(s8)
bfc08930:	0bf02250 	j	bfc08940 <func_once_thsens+0xb8>
bfc08934:	00000000 	nop
bfc08938:	24030004 	li	v1,4
bfc0893c:	afc3002c 	sw	v1,44(s8)
bfc08940:	8fc20048 	lw	v0,72(s8)
bfc08944:	8fc3002c 	lw	v1,44(s8)
bfc08948:	ac4300c4 	sw	v1,196(v0)
D:\loongson\works\ls1d-mylib\lib\func/tdc.c:267
bfc0894c:	8fc40048 	lw	a0,72(s8)
bfc08950:	0ff01eba 	jal	bfc07ae8 <check_res>
bfc08954:	00000000 	nop
bfc08958:	afc20014 	sw	v0,20(s8)
D:\loongson\works\ls1d-mylib\lib\func/tdc.c:268
bfc0895c:	8fc20014 	lw	v0,20(s8)
bfc08960:	10400005 	beqz	v0,bfc08978 <func_once_thsens+0xf0>
bfc08964:	00000000 	nop
bfc08968:	24020001 	li	v0,1
bfc0896c:	afc20028 	sw	v0,40(s8)
bfc08970:	0bf022b8 	j	bfc08ae0 <func_once_thsens+0x258>
bfc08974:	00000000 	nop
D:\loongson\works\ls1d-mylib\lib\func/tdc.c:271
bfc08978:	afc00010 	sw	zero,16(s8)
bfc0897c:	0bf02274 	j	bfc089d0 <func_once_thsens+0x148>
bfc08980:	00000000 	nop
D:\loongson\works\ls1d-mylib\lib\func/tdc.c:273
bfc08984:	8fd00010 	lw	s0,16(s8)
bfc08988:	8fc20010 	lw	v0,16(s8)
bfc0898c:	8fc30048 	lw	v1,72(s8)
bfc08990:	2442000c 	addiu	v0,v0,12
bfc08994:	00021080 	sll	v0,v0,0x2
bfc08998:	00621021 	addu	v0,v1,v0
bfc0899c:	8c420004 	lw	v0,4(v0)
bfc089a0:	00402021 	move	a0,v0
bfc089a4:	8fc50048 	lw	a1,72(s8)
bfc089a8:	0ff01faa 	jal	bfc07ea8 <res_cal>
bfc089ac:	00000000 	nop
bfc089b0:	8fc30048 	lw	v1,72(s8)
bfc089b4:	2602001c 	addiu	v0,s0,28
bfc089b8:	00021080 	sll	v0,v0,0x2
bfc089bc:	00621021 	addu	v0,v1,v0
bfc089c0:	e4400004 	swc1	$f0,4(v0)
D:\loongson\works\ls1d-mylib\lib\func/tdc.c:271
bfc089c4:	8fc20010 	lw	v0,16(s8)
bfc089c8:	24420001 	addiu	v0,v0,1
bfc089cc:	afc20010 	sw	v0,16(s8)
bfc089d0:	8fc30010 	lw	v1,16(s8)
bfc089d4:	8fc20048 	lw	v0,72(s8)
bfc089d8:	8c4200b4 	lw	v0,180(v0)
bfc089dc:	0062102b 	sltu	v0,v1,v0
bfc089e0:	1440ffe8 	bnez	v0,bfc08984 <func_once_thsens+0xfc>
bfc089e4:	00000000 	nop
D:\loongson\works\ls1d-mylib\lib\func/tdc.c:277
bfc089e8:	8fc20048 	lw	v0,72(s8)
bfc089ec:	24420074 	addiu	v0,v0,116
bfc089f0:	27c30018 	addiu	v1,s8,24
bfc089f4:	00402021 	move	a0,v0
bfc089f8:	00002821 	move	a1,zero
bfc089fc:	00603021 	move	a2,v1
bfc08a00:	8fc70048 	lw	a3,72(s8)
bfc08a04:	0ff02128 	jal	bfc084a0 <ptime_Caculate>
bfc08a08:	00000000 	nop
D:\loongson\works\ls1d-mylib\lib\func/tdc.c:278
bfc08a0c:	3c02bfc1 	lui	v0,0xbfc1
bfc08a10:	8c42d9f8 	lw	v0,-9736(v0)
bfc08a14:	8c420000 	lw	v0,0(v0)
bfc08a18:	30420004 	andi	v0,v0,0x4
bfc08a1c:	1040001a 	beqz	v0,bfc08a88 <func_once_thsens+0x200>
bfc08a20:	00000000 	nop
D:\loongson\works\ls1d-mylib\lib\func/tdc.c:279
bfc08a24:	24020003 	li	v0,3
bfc08a28:	afc20010 	sw	v0,16(s8)
bfc08a2c:	0bf0229d 	j	bfc08a74 <func_once_thsens+0x1ec>
bfc08a30:	00000000 	nop
D:\loongson\works\ls1d-mylib\lib\func/tdc.c:280
bfc08a34:	8fc40010 	lw	a0,16(s8)
bfc08a38:	24030003 	li	v1,3
bfc08a3c:	8fc20010 	lw	v0,16(s8)
bfc08a40:	00621023 	subu	v0,v1,v0
bfc08a44:	00021080 	sll	v0,v0,0x2
bfc08a48:	27c30010 	addiu	v1,s8,16
bfc08a4c:	00621021 	addu	v0,v1,v0
bfc08a50:	c4400008 	lwc1	$f0,8(v0)
bfc08a54:	8fc30048 	lw	v1,72(s8)
bfc08a58:	24820004 	addiu	v0,a0,4
bfc08a5c:	00021080 	sll	v0,v0,0x2
bfc08a60:	00621021 	addu	v0,v1,v0
bfc08a64:	e4400004 	swc1	$f0,4(v0)
D:\loongson\works\ls1d-mylib\lib\func/tdc.c:279
bfc08a68:	8fc20010 	lw	v0,16(s8)
bfc08a6c:	2442ffff 	addiu	v0,v0,-1
bfc08a70:	afc20010 	sw	v0,16(s8)
bfc08a74:	8fc20010 	lw	v0,16(s8)
bfc08a78:	0441ffee 	bgez	v0,bfc08a34 <func_once_thsens+0x1ac>
bfc08a7c:	00000000 	nop
bfc08a80:	0bf022b7 	j	bfc08adc <func_once_thsens+0x254>
bfc08a84:	00000000 	nop
D:\loongson\works\ls1d-mylib\lib\func/tdc.c:282
bfc08a88:	afc00010 	sw	zero,16(s8)
bfc08a8c:	0bf022b3 	j	bfc08acc <func_once_thsens+0x244>
bfc08a90:	00000000 	nop
D:\loongson\works\ls1d-mylib\lib\func/tdc.c:283
bfc08a94:	8fc40010 	lw	a0,16(s8)
bfc08a98:	8fc20010 	lw	v0,16(s8)
bfc08a9c:	00021080 	sll	v0,v0,0x2
bfc08aa0:	27c30010 	addiu	v1,s8,16
bfc08aa4:	00621021 	addu	v0,v1,v0
bfc08aa8:	c4400008 	lwc1	$f0,8(v0)
bfc08aac:	8fc30048 	lw	v1,72(s8)
bfc08ab0:	24820004 	addiu	v0,a0,4
bfc08ab4:	00021080 	sll	v0,v0,0x2
bfc08ab8:	00621021 	addu	v0,v1,v0
bfc08abc:	e4400004 	swc1	$f0,4(v0)
D:\loongson\works\ls1d-mylib\lib\func/tdc.c:282
bfc08ac0:	8fc20010 	lw	v0,16(s8)
bfc08ac4:	24420001 	addiu	v0,v0,1
bfc08ac8:	afc20010 	sw	v0,16(s8)
bfc08acc:	8fc20010 	lw	v0,16(s8)
bfc08ad0:	28420004 	slti	v0,v0,4
bfc08ad4:	1440ffef 	bnez	v0,bfc08a94 <func_once_thsens+0x20c>
bfc08ad8:	00000000 	nop
D:\loongson\works\ls1d-mylib\lib\func/tdc.c:296
bfc08adc:	afc00028 	sw	zero,40(s8)
bfc08ae0:	8fc20028 	lw	v0,40(s8)
D:\loongson\works\ls1d-mylib\lib\func/tdc.c:297
bfc08ae4:	03c0e821 	move	sp,s8
bfc08ae8:	8fbf0044 	lw	ra,68(sp)
bfc08aec:	8fbe0040 	lw	s8,64(sp)
bfc08af0:	8fb0003c 	lw	s0,60(sp)
bfc08af4:	27bd0048 	addiu	sp,sp,72
bfc08af8:	03e00008 	jr	ra
bfc08afc:	00000000 	nop

bfc08b00 <func_twice_time>:
func_twice_time():
D:\loongson\works\ls1d-mylib\lib\func/tdc.c:299
bfc08b00:	27bdffc0 	addiu	sp,sp,-64
bfc08b04:	afbf003c 	sw	ra,60(sp)
bfc08b08:	afbe0038 	sw	s8,56(sp)
bfc08b0c:	afb00034 	sw	s0,52(sp)
bfc08b10:	03a0f021 	move	s8,sp
bfc08b14:	afc40040 	sw	a0,64(s8)
D:\loongson\works\ls1d-mylib\lib\func/tdc.c:300
bfc08b18:	8fc20040 	lw	v0,64(s8)
bfc08b1c:	8c430000 	lw	v1,0(v0)
bfc08b20:	24020002 	li	v0,2
bfc08b24:	146200b9 	bne	v1,v0,bfc08e0c <func_twice_time+0x30c>
bfc08b28:	00000000 	nop
D:\loongson\works\ls1d-mylib\lib\func/tdc.c:304
bfc08b2c:	3c02bfc1 	lui	v0,0xbfc1
bfc08b30:	8c42d9f4 	lw	v0,-9740(v0)
bfc08b34:	8c420000 	lw	v0,0(v0)
bfc08b38:	30428000 	andi	v0,v0,0x8000
bfc08b3c:	afc20024 	sw	v0,36(s8)
D:\loongson\works\ls1d-mylib\lib\func/tdc.c:306
bfc08b40:	8fc20040 	lw	v0,64(s8)
bfc08b44:	8c43000c 	lw	v1,12(v0)
bfc08b48:	8fc20040 	lw	v0,64(s8)
bfc08b4c:	8c420008 	lw	v0,8(v0)
bfc08b50:	00021040 	sll	v0,v0,0x1
bfc08b54:	00621023 	subu	v0,v1,v0
bfc08b58:	24430002 	addiu	v1,v0,2
bfc08b5c:	8fc20040 	lw	v0,64(s8)
bfc08b60:	ac4300c4 	sw	v1,196(v0)
D:\loongson\works\ls1d-mylib\lib\func/tdc.c:308
bfc08b64:	8fc40040 	lw	a0,64(s8)
bfc08b68:	0ff01eba 	jal	bfc07ae8 <check_res>
bfc08b6c:	00000000 	nop
bfc08b70:	afc20020 	sw	v0,32(s8)
D:\loongson\works\ls1d-mylib\lib\func/tdc.c:309
bfc08b74:	8fc20020 	lw	v0,32(s8)
bfc08b78:	10400005 	beqz	v0,bfc08b90 <func_twice_time+0x90>
bfc08b7c:	00000000 	nop
bfc08b80:	24020001 	li	v0,1
bfc08b84:	afc20028 	sw	v0,40(s8)
bfc08b88:	0bf02384 	j	bfc08e10 <func_twice_time+0x310>
bfc08b8c:	00000000 	nop
D:\loongson\works\ls1d-mylib\lib\func/tdc.c:313
bfc08b90:	8fc20040 	lw	v0,64(s8)
bfc08b94:	8c4200bc 	lw	v0,188(v0)
bfc08b98:	2442fffe 	addiu	v0,v0,-2
bfc08b9c:	8fc30040 	lw	v1,64(s8)
bfc08ba0:	2442000c 	addiu	v0,v0,12
bfc08ba4:	00021080 	sll	v0,v0,0x2
bfc08ba8:	00621021 	addu	v0,v1,v0
bfc08bac:	8c440004 	lw	a0,4(v0)
bfc08bb0:	8fc20040 	lw	v0,64(s8)
bfc08bb4:	8c4200bc 	lw	v0,188(v0)
bfc08bb8:	2442ffff 	addiu	v0,v0,-1
bfc08bbc:	8fc30040 	lw	v1,64(s8)
bfc08bc0:	2442000c 	addiu	v0,v0,12
bfc08bc4:	00021080 	sll	v0,v0,0x2
bfc08bc8:	00621021 	addu	v0,v1,v0
bfc08bcc:	8c420004 	lw	v0,4(v0)
bfc08bd0:	00402821 	move	a1,v0
bfc08bd4:	8fc60040 	lw	a2,64(s8)
bfc08bd8:	0ff01f5f 	jal	bfc07d7c <calibrate>
bfc08bdc:	00000000 	nop
bfc08be0:	00401821 	move	v1,v0
bfc08be4:	8fc20040 	lw	v0,64(s8)
bfc08be8:	ac430030 	sw	v1,48(v0)
D:\loongson\works\ls1d-mylib\lib\func/tdc.c:314
bfc08bec:	afc0001c 	sw	zero,28(s8)
bfc08bf0:	0bf02311 	j	bfc08c44 <func_twice_time+0x144>
bfc08bf4:	00000000 	nop
D:\loongson\works\ls1d-mylib\lib\func/tdc.c:316
bfc08bf8:	8fd0001c 	lw	s0,28(s8)
bfc08bfc:	8fc2001c 	lw	v0,28(s8)
bfc08c00:	8fc30040 	lw	v1,64(s8)
bfc08c04:	2442000c 	addiu	v0,v0,12
bfc08c08:	00021080 	sll	v0,v0,0x2
bfc08c0c:	00621021 	addu	v0,v1,v0
bfc08c10:	8c420004 	lw	v0,4(v0)
bfc08c14:	00402021 	move	a0,v0
bfc08c18:	8fc50040 	lw	a1,64(s8)
bfc08c1c:	0ff01faa 	jal	bfc07ea8 <res_cal>
bfc08c20:	00000000 	nop
bfc08c24:	8fc30040 	lw	v1,64(s8)
bfc08c28:	2602001c 	addiu	v0,s0,28
bfc08c2c:	00021080 	sll	v0,v0,0x2
bfc08c30:	00621021 	addu	v0,v1,v0
bfc08c34:	e4400004 	swc1	$f0,4(v0)
D:\loongson\works\ls1d-mylib\lib\func/tdc.c:314
bfc08c38:	8fc2001c 	lw	v0,28(s8)
bfc08c3c:	24420001 	addiu	v0,v0,1
bfc08c40:	afc2001c 	sw	v0,28(s8)
bfc08c44:	8fc20040 	lw	v0,64(s8)
bfc08c48:	8c43000c 	lw	v1,12(v0)
bfc08c4c:	8fc2001c 	lw	v0,28(s8)
bfc08c50:	0043102b 	sltu	v0,v0,v1
bfc08c54:	1440ffe8 	bnez	v0,bfc08bf8 <func_twice_time+0xf8>
bfc08c58:	00000000 	nop
D:\loongson\works\ls1d-mylib\lib\func/tdc.c:318
bfc08c5c:	8fc20040 	lw	v0,64(s8)
bfc08c60:	8c4200b4 	lw	v0,180(v0)
bfc08c64:	2442fffe 	addiu	v0,v0,-2
bfc08c68:	8fc30040 	lw	v1,64(s8)
bfc08c6c:	2442000c 	addiu	v0,v0,12
bfc08c70:	00021080 	sll	v0,v0,0x2
bfc08c74:	00621021 	addu	v0,v1,v0
bfc08c78:	8c440004 	lw	a0,4(v0)
bfc08c7c:	8fc20040 	lw	v0,64(s8)
bfc08c80:	8c4200b4 	lw	v0,180(v0)
bfc08c84:	2442ffff 	addiu	v0,v0,-1
bfc08c88:	8fc30040 	lw	v1,64(s8)
bfc08c8c:	2442000c 	addiu	v0,v0,12
bfc08c90:	00021080 	sll	v0,v0,0x2
bfc08c94:	00621021 	addu	v0,v1,v0
bfc08c98:	8c420004 	lw	v0,4(v0)
bfc08c9c:	00402821 	move	a1,v0
bfc08ca0:	8fc60040 	lw	a2,64(s8)
bfc08ca4:	0ff01f5f 	jal	bfc07d7c <calibrate>
bfc08ca8:	00000000 	nop
bfc08cac:	00401821 	move	v1,v0
bfc08cb0:	8fc20040 	lw	v0,64(s8)
bfc08cb4:	ac430030 	sw	v1,48(v0)
D:\loongson\works\ls1d-mylib\lib\func/tdc.c:319
bfc08cb8:	8fc20040 	lw	v0,64(s8)
bfc08cbc:	8c4200bc 	lw	v0,188(v0)
bfc08cc0:	afc2001c 	sw	v0,28(s8)
bfc08cc4:	0bf02346 	j	bfc08d18 <func_twice_time+0x218>
bfc08cc8:	00000000 	nop
D:\loongson\works\ls1d-mylib\lib\func/tdc.c:321
bfc08ccc:	8fd0001c 	lw	s0,28(s8)
bfc08cd0:	8fc2001c 	lw	v0,28(s8)
bfc08cd4:	8fc30040 	lw	v1,64(s8)
bfc08cd8:	2442000c 	addiu	v0,v0,12
bfc08cdc:	00021080 	sll	v0,v0,0x2
bfc08ce0:	00621021 	addu	v0,v1,v0
bfc08ce4:	8c420004 	lw	v0,4(v0)
bfc08ce8:	00402021 	move	a0,v0
bfc08cec:	8fc50040 	lw	a1,64(s8)
bfc08cf0:	0ff01faa 	jal	bfc07ea8 <res_cal>
bfc08cf4:	00000000 	nop
bfc08cf8:	8fc30040 	lw	v1,64(s8)
bfc08cfc:	2602001c 	addiu	v0,s0,28
bfc08d00:	00021080 	sll	v0,v0,0x2
bfc08d04:	00621021 	addu	v0,v1,v0
bfc08d08:	e4400004 	swc1	$f0,4(v0)
D:\loongson\works\ls1d-mylib\lib\func/tdc.c:319
bfc08d0c:	8fc2001c 	lw	v0,28(s8)
bfc08d10:	24420001 	addiu	v0,v0,1
bfc08d14:	afc2001c 	sw	v0,28(s8)
bfc08d18:	8fc20040 	lw	v0,64(s8)
bfc08d1c:	8c4300bc 	lw	v1,188(v0)
bfc08d20:	8fc20040 	lw	v0,64(s8)
bfc08d24:	8c42000c 	lw	v0,12(v0)
bfc08d28:	00621821 	addu	v1,v1,v0
bfc08d2c:	8fc2001c 	lw	v0,28(s8)
bfc08d30:	0043102b 	sltu	v0,v0,v1
bfc08d34:	1440ffe5 	bnez	v0,bfc08ccc <func_twice_time+0x1cc>
bfc08d38:	00000000 	nop
D:\loongson\works\ls1d-mylib\lib\func/tdc.c:324
bfc08d3c:	afc00018 	sw	zero,24(s8)
D:\loongson\works\ls1d-mylib\lib\func/tdc.c:325
bfc08d40:	afc00014 	sw	zero,20(s8)
D:\loongson\works\ls1d-mylib\lib\func/tdc.c:326
bfc08d44:	afc00010 	sw	zero,16(s8)
D:\loongson\works\ls1d-mylib\lib\func/tdc.c:327
bfc08d48:	8fc20040 	lw	v0,64(s8)
bfc08d4c:	24430074 	addiu	v1,v0,116
bfc08d50:	8fc20040 	lw	v0,64(s8)
bfc08d54:	8c42000c 	lw	v0,12(v0)
bfc08d58:	00602021 	move	a0,v1
bfc08d5c:	00002821 	move	a1,zero
bfc08d60:	00403021 	move	a2,v0
bfc08d64:	0ff0208e 	jal	bfc08238 <ftime_Caculate>
bfc08d68:	00000000 	nop
bfc08d6c:	e7c00014 	swc1	$f0,20(s8)
D:\loongson\works\ls1d-mylib\lib\func/tdc.c:328
bfc08d70:	8fc20040 	lw	v0,64(s8)
bfc08d74:	24430074 	addiu	v1,v0,116
bfc08d78:	8fc20040 	lw	v0,64(s8)
bfc08d7c:	8c4500bc 	lw	a1,188(v0)
bfc08d80:	8fc20040 	lw	v0,64(s8)
bfc08d84:	8c42000c 	lw	v0,12(v0)
bfc08d88:	00602021 	move	a0,v1
bfc08d8c:	00403021 	move	a2,v0
bfc08d90:	0ff0208e 	jal	bfc08238 <ftime_Caculate>
bfc08d94:	00000000 	nop
bfc08d98:	e7c00010 	swc1	$f0,16(s8)
D:\loongson\works\ls1d-mylib\lib\func/tdc.c:329
bfc08d9c:	8fc20024 	lw	v0,36(s8)
bfc08da0:	1040000d 	beqz	v0,bfc08dd8 <func_twice_time+0x2d8>
bfc08da4:	00000000 	nop
D:\loongson\works\ls1d-mylib\lib\func/tdc.c:330
bfc08da8:	c7c10010 	lwc1	$f1,16(s8)
bfc08dac:	c7c00014 	lwc1	$f0,20(s8)
bfc08db0:	46000801 	sub.s	$f0,$f1,$f0
bfc08db4:	e7c00018 	swc1	$f0,24(s8)
D:\loongson\works\ls1d-mylib\lib\func/tdc.c:331
bfc08db8:	8fc20040 	lw	v0,64(s8)
bfc08dbc:	c7c00014 	lwc1	$f0,20(s8)
bfc08dc0:	e4400024 	swc1	$f0,36(v0)
D:\loongson\works\ls1d-mylib\lib\func/tdc.c:332
bfc08dc4:	8fc20040 	lw	v0,64(s8)
bfc08dc8:	c7c00010 	lwc1	$f0,16(s8)
bfc08dcc:	e4400028 	swc1	$f0,40(v0)
bfc08dd0:	0bf02380 	j	bfc08e00 <func_twice_time+0x300>
bfc08dd4:	00000000 	nop
D:\loongson\works\ls1d-mylib\lib\func/tdc.c:335
bfc08dd8:	c7c10014 	lwc1	$f1,20(s8)
bfc08ddc:	c7c00010 	lwc1	$f0,16(s8)
bfc08de0:	46000801 	sub.s	$f0,$f1,$f0
bfc08de4:	e7c00018 	swc1	$f0,24(s8)
D:\loongson\works\ls1d-mylib\lib\func/tdc.c:336
bfc08de8:	8fc20040 	lw	v0,64(s8)
bfc08dec:	c7c00010 	lwc1	$f0,16(s8)
bfc08df0:	e4400024 	swc1	$f0,36(v0)
D:\loongson\works\ls1d-mylib\lib\func/tdc.c:337
bfc08df4:	8fc20040 	lw	v0,64(s8)
bfc08df8:	c7c00014 	lwc1	$f0,20(s8)
bfc08dfc:	e4400028 	swc1	$f0,40(v0)
D:\loongson\works\ls1d-mylib\lib\func/tdc.c:339
bfc08e00:	8fc20040 	lw	v0,64(s8)
bfc08e04:	c7c00018 	lwc1	$f0,24(s8)
bfc08e08:	e440002c 	swc1	$f0,44(v0)
D:\loongson\works\ls1d-mylib\lib\func/tdc.c:350
bfc08e0c:	afc00028 	sw	zero,40(s8)
bfc08e10:	8fc20028 	lw	v0,40(s8)
D:\loongson\works\ls1d-mylib\lib\func/tdc.c:351
bfc08e14:	03c0e821 	move	sp,s8
bfc08e18:	8fbf003c 	lw	ra,60(sp)
bfc08e1c:	8fbe0038 	lw	s8,56(sp)
bfc08e20:	8fb00034 	lw	s0,52(sp)
bfc08e24:	27bd0040 	addiu	sp,sp,64
bfc08e28:	03e00008 	jr	ra
bfc08e2c:	00000000 	nop

bfc08e30 <func_twice_thsens>:
func_twice_thsens():
D:\loongson\works\ls1d-mylib\lib\func/tdc.c:353
bfc08e30:	27bdffb8 	addiu	sp,sp,-72
bfc08e34:	afbf0044 	sw	ra,68(sp)
bfc08e38:	afbe0040 	sw	s8,64(sp)
bfc08e3c:	afb0003c 	sw	s0,60(sp)
bfc08e40:	03a0f021 	move	s8,sp
bfc08e44:	afc40048 	sw	a0,72(s8)
D:\loongson\works\ls1d-mylib\lib\func/tdc.c:354
bfc08e48:	8fc20048 	lw	v0,72(s8)
bfc08e4c:	8c430000 	lw	v1,0(v0)
bfc08e50:	24020002 	li	v0,2
bfc08e54:	146200f0 	bne	v1,v0,bfc09218 <func_twice_thsens+0x3e8>
bfc08e58:	00000000 	nop
D:\loongson\works\ls1d-mylib\lib\func/tdc.c:357
bfc08e5c:	3c02bfc1 	lui	v0,0xbfc1
bfc08e60:	8c42d9f8 	lw	v0,-9736(v0)
bfc08e64:	8c420000 	lw	v0,0(v0)
bfc08e68:	30420008 	andi	v0,v0,0x8
bfc08e6c:	10400012 	beqz	v0,bfc08eb8 <func_twice_thsens+0x88>
bfc08e70:	00000000 	nop
D:\loongson\works\ls1d-mylib\lib\func/tdc.c:358
bfc08e74:	3c02bfc1 	lui	v0,0xbfc1
bfc08e78:	8c42d9f8 	lw	v0,-9736(v0)
bfc08e7c:	8c420000 	lw	v0,0(v0)
bfc08e80:	30420002 	andi	v0,v0,0x2
bfc08e84:	10400005 	beqz	v0,bfc08e9c <func_twice_thsens+0x6c>
bfc08e88:	00000000 	nop
bfc08e8c:	24020005 	li	v0,5
bfc08e90:	afc20030 	sw	v0,48(s8)
bfc08e94:	0bf023a9 	j	bfc08ea4 <func_twice_thsens+0x74>
bfc08e98:	00000000 	nop
bfc08e9c:	24030003 	li	v1,3
bfc08ea0:	afc30030 	sw	v1,48(s8)
bfc08ea4:	8fc20048 	lw	v0,72(s8)
bfc08ea8:	8fc30030 	lw	v1,48(s8)
bfc08eac:	ac4300c4 	sw	v1,196(v0)
bfc08eb0:	0bf023bd 	j	bfc08ef4 <func_twice_thsens+0xc4>
bfc08eb4:	00000000 	nop
D:\loongson\works\ls1d-mylib\lib\func/tdc.c:360
bfc08eb8:	3c02bfc1 	lui	v0,0xbfc1
bfc08ebc:	8c42d9f8 	lw	v0,-9736(v0)
bfc08ec0:	8c420000 	lw	v0,0(v0)
bfc08ec4:	30420002 	andi	v0,v0,0x2
bfc08ec8:	10400005 	beqz	v0,bfc08ee0 <func_twice_thsens+0xb0>
bfc08ecc:	00000000 	nop
bfc08ed0:	24020008 	li	v0,8
bfc08ed4:	afc2002c 	sw	v0,44(s8)
bfc08ed8:	0bf023ba 	j	bfc08ee8 <func_twice_thsens+0xb8>
bfc08edc:	00000000 	nop
bfc08ee0:	24030004 	li	v1,4
bfc08ee4:	afc3002c 	sw	v1,44(s8)
bfc08ee8:	8fc20048 	lw	v0,72(s8)
bfc08eec:	8fc3002c 	lw	v1,44(s8)
bfc08ef0:	ac4300c4 	sw	v1,196(v0)
D:\loongson\works\ls1d-mylib\lib\func/tdc.c:362
bfc08ef4:	8fc40048 	lw	a0,72(s8)
bfc08ef8:	0ff01eba 	jal	bfc07ae8 <check_res>
bfc08efc:	00000000 	nop
bfc08f00:	afc20014 	sw	v0,20(s8)
D:\loongson\works\ls1d-mylib\lib\func/tdc.c:363
bfc08f04:	8fc20014 	lw	v0,20(s8)
bfc08f08:	10400005 	beqz	v0,bfc08f20 <func_twice_thsens+0xf0>
bfc08f0c:	00000000 	nop
bfc08f10:	24020001 	li	v0,1
bfc08f14:	afc20028 	sw	v0,40(s8)
bfc08f18:	0bf02487 	j	bfc0921c <func_twice_thsens+0x3ec>
bfc08f1c:	00000000 	nop
D:\loongson\works\ls1d-mylib\lib\func/tdc.c:366
bfc08f20:	afc00010 	sw	zero,16(s8)
bfc08f24:	0bf023de 	j	bfc08f78 <func_twice_thsens+0x148>
bfc08f28:	00000000 	nop
D:\loongson\works\ls1d-mylib\lib\func/tdc.c:368
bfc08f2c:	8fd00010 	lw	s0,16(s8)
bfc08f30:	8fc20010 	lw	v0,16(s8)
bfc08f34:	8fc30048 	lw	v1,72(s8)
bfc08f38:	2442000c 	addiu	v0,v0,12
bfc08f3c:	00021080 	sll	v0,v0,0x2
bfc08f40:	00621021 	addu	v0,v1,v0
bfc08f44:	8c420004 	lw	v0,4(v0)
bfc08f48:	00402021 	move	a0,v0
bfc08f4c:	8fc50048 	lw	a1,72(s8)
bfc08f50:	0ff01faa 	jal	bfc07ea8 <res_cal>
bfc08f54:	00000000 	nop
bfc08f58:	8fc30048 	lw	v1,72(s8)
bfc08f5c:	2602001c 	addiu	v0,s0,28
bfc08f60:	00021080 	sll	v0,v0,0x2
bfc08f64:	00621021 	addu	v0,v1,v0
bfc08f68:	e4400004 	swc1	$f0,4(v0)
D:\loongson\works\ls1d-mylib\lib\func/tdc.c:366
bfc08f6c:	8fc20010 	lw	v0,16(s8)
bfc08f70:	24420001 	addiu	v0,v0,1
bfc08f74:	afc20010 	sw	v0,16(s8)
bfc08f78:	8fc30010 	lw	v1,16(s8)
bfc08f7c:	8fc20048 	lw	v0,72(s8)
bfc08f80:	8c4200b4 	lw	v0,180(v0)
bfc08f84:	0062102b 	sltu	v0,v1,v0
bfc08f88:	1440ffe8 	bnez	v0,bfc08f2c <func_twice_thsens+0xfc>
bfc08f8c:	00000000 	nop
D:\loongson\works\ls1d-mylib\lib\func/tdc.c:372
bfc08f90:	8fc20048 	lw	v0,72(s8)
bfc08f94:	24420074 	addiu	v0,v0,116
bfc08f98:	27c30018 	addiu	v1,s8,24
bfc08f9c:	00402021 	move	a0,v0
bfc08fa0:	00002821 	move	a1,zero
bfc08fa4:	00603021 	move	a2,v1
bfc08fa8:	8fc70048 	lw	a3,72(s8)
bfc08fac:	0ff02128 	jal	bfc084a0 <ptime_Caculate>
bfc08fb0:	00000000 	nop
D:\loongson\works\ls1d-mylib\lib\func/tdc.c:373
bfc08fb4:	3c02bfc1 	lui	v0,0xbfc1
bfc08fb8:	8c42d9f8 	lw	v0,-9736(v0)
bfc08fbc:	8c420000 	lw	v0,0(v0)
bfc08fc0:	30420004 	andi	v0,v0,0x4
bfc08fc4:	1040001a 	beqz	v0,bfc09030 <func_twice_thsens+0x200>
bfc08fc8:	00000000 	nop
D:\loongson\works\ls1d-mylib\lib\func/tdc.c:374
bfc08fcc:	24020003 	li	v0,3
bfc08fd0:	afc20010 	sw	v0,16(s8)
bfc08fd4:	0bf02407 	j	bfc0901c <func_twice_thsens+0x1ec>
bfc08fd8:	00000000 	nop
D:\loongson\works\ls1d-mylib\lib\func/tdc.c:375
bfc08fdc:	8fc40010 	lw	a0,16(s8)
bfc08fe0:	24030003 	li	v1,3
bfc08fe4:	8fc20010 	lw	v0,16(s8)
bfc08fe8:	00621023 	subu	v0,v1,v0
bfc08fec:	00021080 	sll	v0,v0,0x2
bfc08ff0:	27c30010 	addiu	v1,s8,16
bfc08ff4:	00621021 	addu	v0,v1,v0
bfc08ff8:	c4400008 	lwc1	$f0,8(v0)
bfc08ffc:	8fc30048 	lw	v1,72(s8)
bfc09000:	24820004 	addiu	v0,a0,4
bfc09004:	00021080 	sll	v0,v0,0x2
bfc09008:	00621021 	addu	v0,v1,v0
bfc0900c:	e4400004 	swc1	$f0,4(v0)
D:\loongson\works\ls1d-mylib\lib\func/tdc.c:374
bfc09010:	8fc20010 	lw	v0,16(s8)
bfc09014:	2442ffff 	addiu	v0,v0,-1
bfc09018:	afc20010 	sw	v0,16(s8)
bfc0901c:	8fc20010 	lw	v0,16(s8)
bfc09020:	0441ffee 	bgez	v0,bfc08fdc <func_twice_thsens+0x1ac>
bfc09024:	00000000 	nop
bfc09028:	0bf02421 	j	bfc09084 <func_twice_thsens+0x254>
bfc0902c:	00000000 	nop
D:\loongson\works\ls1d-mylib\lib\func/tdc.c:377
bfc09030:	afc00010 	sw	zero,16(s8)
bfc09034:	0bf0241d 	j	bfc09074 <func_twice_thsens+0x244>
bfc09038:	00000000 	nop
D:\loongson\works\ls1d-mylib\lib\func/tdc.c:378
bfc0903c:	8fc40010 	lw	a0,16(s8)
bfc09040:	8fc20010 	lw	v0,16(s8)
bfc09044:	00021080 	sll	v0,v0,0x2
bfc09048:	27c30010 	addiu	v1,s8,16
bfc0904c:	00621021 	addu	v0,v1,v0
bfc09050:	c4400008 	lwc1	$f0,8(v0)
bfc09054:	8fc30048 	lw	v1,72(s8)
bfc09058:	24820004 	addiu	v0,a0,4
bfc0905c:	00021080 	sll	v0,v0,0x2
bfc09060:	00621021 	addu	v0,v1,v0
bfc09064:	e4400004 	swc1	$f0,4(v0)
D:\loongson\works\ls1d-mylib\lib\func/tdc.c:377
bfc09068:	8fc20010 	lw	v0,16(s8)
bfc0906c:	24420001 	addiu	v0,v0,1
bfc09070:	afc20010 	sw	v0,16(s8)
bfc09074:	8fc20010 	lw	v0,16(s8)
bfc09078:	28420004 	slti	v0,v0,4
bfc0907c:	1440ffef 	bnez	v0,bfc0903c <func_twice_thsens+0x20c>
bfc09080:	00000000 	nop
D:\loongson\works\ls1d-mylib\lib\func/tdc.c:381
bfc09084:	8fc20048 	lw	v0,72(s8)
bfc09088:	24440074 	addiu	a0,v0,116
bfc0908c:	8fc20048 	lw	v0,72(s8)
bfc09090:	8c4200bc 	lw	v0,188(v0)
bfc09094:	27c30018 	addiu	v1,s8,24
bfc09098:	00402821 	move	a1,v0
bfc0909c:	00603021 	move	a2,v1
bfc090a0:	8fc70048 	lw	a3,72(s8)
bfc090a4:	0ff02128 	jal	bfc084a0 <ptime_Caculate>
bfc090a8:	00000000 	nop
D:\loongson\works\ls1d-mylib\lib\func/tdc.c:382
bfc090ac:	3c02bfc1 	lui	v0,0xbfc1
bfc090b0:	8c42d9f8 	lw	v0,-9736(v0)
bfc090b4:	8c420000 	lw	v0,0(v0)
bfc090b8:	30420004 	andi	v0,v0,0x4
bfc090bc:	1040001f 	beqz	v0,bfc0913c <func_twice_thsens+0x30c>
bfc090c0:	00000000 	nop
D:\loongson\works\ls1d-mylib\lib\func/tdc.c:383
bfc090c4:	24020003 	li	v0,3
bfc090c8:	afc20010 	sw	v0,16(s8)
bfc090cc:	0bf0244a 	j	bfc09128 <func_twice_thsens+0x2f8>
bfc090d0:	00000000 	nop
D:\loongson\works\ls1d-mylib\lib\func/tdc.c:384
bfc090d4:	8fc40010 	lw	a0,16(s8)
bfc090d8:	8fc20010 	lw	v0,16(s8)
bfc090dc:	8fc30048 	lw	v1,72(s8)
bfc090e0:	24420004 	addiu	v0,v0,4
bfc090e4:	00021080 	sll	v0,v0,0x2
bfc090e8:	00621021 	addu	v0,v1,v0
bfc090ec:	c4410004 	lwc1	$f1,4(v0)
bfc090f0:	8fc20010 	lw	v0,16(s8)
bfc090f4:	00021080 	sll	v0,v0,0x2
bfc090f8:	27c30010 	addiu	v1,s8,16
bfc090fc:	00621021 	addu	v0,v1,v0
bfc09100:	c4400008 	lwc1	$f0,8(v0)
bfc09104:	46000800 	add.s	$f0,$f1,$f0
bfc09108:	8fc30048 	lw	v1,72(s8)
bfc0910c:	24820004 	addiu	v0,a0,4
bfc09110:	00021080 	sll	v0,v0,0x2
bfc09114:	00621021 	addu	v0,v1,v0
bfc09118:	e4400004 	swc1	$f0,4(v0)
D:\loongson\works\ls1d-mylib\lib\func/tdc.c:383
bfc0911c:	8fc20010 	lw	v0,16(s8)
bfc09120:	2442ffff 	addiu	v0,v0,-1
bfc09124:	afc20010 	sw	v0,16(s8)
bfc09128:	8fc20010 	lw	v0,16(s8)
bfc0912c:	0441ffe9 	bgez	v0,bfc090d4 <func_twice_thsens+0x2a4>
bfc09130:	00000000 	nop
bfc09134:	0bf0246d 	j	bfc091b4 <func_twice_thsens+0x384>
bfc09138:	00000000 	nop
D:\loongson\works\ls1d-mylib\lib\func/tdc.c:386
bfc0913c:	afc00010 	sw	zero,16(s8)
bfc09140:	0bf02469 	j	bfc091a4 <func_twice_thsens+0x374>
bfc09144:	00000000 	nop
D:\loongson\works\ls1d-mylib\lib\func/tdc.c:387
bfc09148:	8fc40010 	lw	a0,16(s8)
bfc0914c:	8fc20010 	lw	v0,16(s8)
bfc09150:	8fc30048 	lw	v1,72(s8)
bfc09154:	24420004 	addiu	v0,v0,4
bfc09158:	00021080 	sll	v0,v0,0x2
bfc0915c:	00621021 	addu	v0,v1,v0
bfc09160:	c4410004 	lwc1	$f1,4(v0)
bfc09164:	24030003 	li	v1,3
bfc09168:	8fc20010 	lw	v0,16(s8)
bfc0916c:	00621023 	subu	v0,v1,v0
bfc09170:	00021080 	sll	v0,v0,0x2
bfc09174:	27c30010 	addiu	v1,s8,16
bfc09178:	00621021 	addu	v0,v1,v0
bfc0917c:	c4400008 	lwc1	$f0,8(v0)
bfc09180:	46000800 	add.s	$f0,$f1,$f0
bfc09184:	8fc30048 	lw	v1,72(s8)
bfc09188:	24820004 	addiu	v0,a0,4
bfc0918c:	00021080 	sll	v0,v0,0x2
bfc09190:	00621021 	addu	v0,v1,v0
bfc09194:	e4400004 	swc1	$f0,4(v0)
D:\loongson\works\ls1d-mylib\lib\func/tdc.c:386
bfc09198:	8fc20010 	lw	v0,16(s8)
bfc0919c:	24420001 	addiu	v0,v0,1
bfc091a0:	afc20010 	sw	v0,16(s8)
bfc091a4:	8fc20010 	lw	v0,16(s8)
bfc091a8:	28420004 	slti	v0,v0,4
bfc091ac:	1440ffe6 	bnez	v0,bfc09148 <func_twice_thsens+0x318>
bfc091b0:	00000000 	nop
D:\loongson\works\ls1d-mylib\lib\func/tdc.c:390
bfc091b4:	afc00010 	sw	zero,16(s8)
bfc091b8:	0bf02482 	j	bfc09208 <func_twice_thsens+0x3d8>
bfc091bc:	00000000 	nop
D:\loongson\works\ls1d-mylib\lib\func/tdc.c:391
bfc091c0:	8fc40010 	lw	a0,16(s8)
bfc091c4:	8fc20010 	lw	v0,16(s8)
bfc091c8:	8fc30048 	lw	v1,72(s8)
bfc091cc:	24420004 	addiu	v0,v0,4
bfc091d0:	00021080 	sll	v0,v0,0x2
bfc091d4:	00621021 	addu	v0,v1,v0
bfc091d8:	c4410004 	lwc1	$f1,4(v0)
bfc091dc:	3c02bfc1 	lui	v0,0xbfc1
bfc091e0:	c440d638 	lwc1	$f0,-10696(v0)
bfc091e4:	46000803 	div.s	$f0,$f1,$f0
bfc091e8:	8fc30048 	lw	v1,72(s8)
bfc091ec:	24820004 	addiu	v0,a0,4
bfc091f0:	00021080 	sll	v0,v0,0x2
bfc091f4:	00621021 	addu	v0,v1,v0
bfc091f8:	e4400004 	swc1	$f0,4(v0)
D:\loongson\works\ls1d-mylib\lib\func/tdc.c:390
bfc091fc:	8fc20010 	lw	v0,16(s8)
bfc09200:	24420001 	addiu	v0,v0,1
bfc09204:	afc20010 	sw	v0,16(s8)
bfc09208:	8fc20010 	lw	v0,16(s8)
bfc0920c:	28420004 	slti	v0,v0,4
bfc09210:	1440ffeb 	bnez	v0,bfc091c0 <func_twice_thsens+0x390>
bfc09214:	00000000 	nop
D:\loongson\works\ls1d-mylib\lib\func/tdc.c:402
bfc09218:	afc00028 	sw	zero,40(s8)
bfc0921c:	8fc20028 	lw	v0,40(s8)
D:\loongson\works\ls1d-mylib\lib\func/tdc.c:403
bfc09220:	03c0e821 	move	sp,s8
bfc09224:	8fbf0044 	lw	ra,68(sp)
bfc09228:	8fbe0040 	lw	s8,64(sp)
bfc0922c:	8fb0003c 	lw	s0,60(sp)
bfc09230:	27bd0048 	addiu	sp,sp,72
bfc09234:	03e00008 	jr	ra
bfc09238:	00000000 	nop

bfc0923c <func_tdc_cal>:
func_tdc_cal():
D:\loongson\works\ls1d-mylib\lib\func/tdc.c:406
bfc0923c:	27bdffd8 	addiu	sp,sp,-40
bfc09240:	afbf0024 	sw	ra,36(sp)
bfc09244:	afbe0020 	sw	s8,32(sp)
bfc09248:	03a0f021 	move	s8,sp
bfc0924c:	afc40028 	sw	a0,40(s8)
D:\loongson\works\ls1d-mylib\lib\func/tdc.c:407
bfc09250:	8fc20028 	lw	v0,40(s8)
bfc09254:	8c430000 	lw	v1,0(v0)
bfc09258:	24020002 	li	v0,2
bfc0925c:	14620018 	bne	v1,v0,bfc092c0 <func_tdc_cal+0x84>
bfc09260:	00000000 	nop
D:\loongson\works\ls1d-mylib\lib\func/tdc.c:411
bfc09264:	8fc40028 	lw	a0,40(s8)
bfc09268:	0ff01eba 	jal	bfc07ae8 <check_res>
bfc0926c:	00000000 	nop
bfc09270:	afc20010 	sw	v0,16(s8)
D:\loongson\works\ls1d-mylib\lib\func/tdc.c:412
bfc09274:	8fc20010 	lw	v0,16(s8)
bfc09278:	10400005 	beqz	v0,bfc09290 <func_tdc_cal+0x54>
bfc0927c:	00000000 	nop
D:\loongson\works\ls1d-mylib\lib\func/tdc.c:413
bfc09280:	24020001 	li	v0,1
bfc09284:	afc20018 	sw	v0,24(s8)
bfc09288:	0bf024b1 	j	bfc092c4 <func_tdc_cal+0x88>
bfc0928c:	00000000 	nop
D:\loongson\works\ls1d-mylib\lib\func/tdc.c:415
bfc09290:	8fc20028 	lw	v0,40(s8)
bfc09294:	8c430034 	lw	v1,52(v0)
bfc09298:	8fc20028 	lw	v0,40(s8)
bfc0929c:	8c420038 	lw	v0,56(v0)
bfc092a0:	00602021 	move	a0,v1
bfc092a4:	00402821 	move	a1,v0
bfc092a8:	8fc60028 	lw	a2,40(s8)
bfc092ac:	0ff01f5f 	jal	bfc07d7c <calibrate>
bfc092b0:	00000000 	nop
bfc092b4:	00401821 	move	v1,v0
bfc092b8:	8fc20028 	lw	v0,40(s8)
bfc092bc:	ac430030 	sw	v1,48(v0)
D:\loongson\works\ls1d-mylib\lib\func/tdc.c:427
bfc092c0:	afc00018 	sw	zero,24(s8)
bfc092c4:	8fc20018 	lw	v0,24(s8)
D:\loongson\works\ls1d-mylib\lib\func/tdc.c:428
bfc092c8:	03c0e821 	move	sp,s8
bfc092cc:	8fbf0024 	lw	ra,36(sp)
bfc092d0:	8fbe0020 	lw	s8,32(sp)
bfc092d4:	27bd0028 	addiu	sp,sp,40
bfc092d8:	03e00008 	jr	ra
bfc092dc:	00000000 	nop

bfc092e0 <func_clkhs_cal>:
func_clkhs_cal():
D:\loongson\works\ls1d-mylib\lib\func/tdc.c:430
bfc092e0:	27bdffd0 	addiu	sp,sp,-48
bfc092e4:	afbf002c 	sw	ra,44(sp)
bfc092e8:	afbe0028 	sw	s8,40(sp)
bfc092ec:	03a0f021 	move	s8,sp
bfc092f0:	afc40030 	sw	a0,48(s8)
D:\loongson\works\ls1d-mylib\lib\func/tdc.c:431
bfc092f4:	8fc20030 	lw	v0,48(s8)
bfc092f8:	8c430000 	lw	v1,0(v0)
bfc092fc:	24020002 	li	v0,2
bfc09300:	1462001f 	bne	v1,v0,bfc09380 <func_clkhs_cal+0xa0>
bfc09304:	00000000 	nop
D:\loongson\works\ls1d-mylib\lib\func/tdc.c:435
bfc09308:	8fc40030 	lw	a0,48(s8)
bfc0930c:	0ff01eba 	jal	bfc07ae8 <check_res>
bfc09310:	00000000 	nop
bfc09314:	afc20018 	sw	v0,24(s8)
D:\loongson\works\ls1d-mylib\lib\func/tdc.c:436
bfc09318:	8fc20018 	lw	v0,24(s8)
bfc0931c:	10400005 	beqz	v0,bfc09334 <func_clkhs_cal+0x54>
bfc09320:	00000000 	nop
bfc09324:	24020001 	li	v0,1
bfc09328:	afc20020 	sw	v0,32(s8)
bfc0932c:	0bf024e1 	j	bfc09384 <func_clkhs_cal+0xa4>
bfc09330:	00000000 	nop
D:\loongson\works\ls1d-mylib\lib\func/tdc.c:438
bfc09334:	afc00014 	sw	zero,20(s8)
D:\loongson\works\ls1d-mylib\lib\func/tdc.c:439
bfc09338:	24020001 	li	v0,1
bfc0933c:	afc20010 	sw	v0,16(s8)
D:\loongson\works\ls1d-mylib\lib\func/tdc.c:440
bfc09340:	3c02bfeb 	lui	v0,0xbfeb
bfc09344:	8c420000 	lw	v0,0(v0)
bfc09348:	00021182 	srl	v0,v0,0x6
bfc0934c:	30420003 	andi	v0,v0,0x3
bfc09350:	afc20014 	sw	v0,20(s8)
bfc09354:	0bf024dd 	j	bfc09374 <func_clkhs_cal+0x94>
bfc09358:	00000000 	nop
D:\loongson\works\ls1d-mylib\lib\func/tdc.c:442
bfc0935c:	8fc20010 	lw	v0,16(s8)
bfc09360:	00021040 	sll	v0,v0,0x1
bfc09364:	afc20010 	sw	v0,16(s8)
D:\loongson\works\ls1d-mylib\lib\func/tdc.c:441
bfc09368:	8fc20014 	lw	v0,20(s8)
bfc0936c:	2442ffff 	addiu	v0,v0,-1
bfc09370:	afc20014 	sw	v0,20(s8)
bfc09374:	8fc20014 	lw	v0,20(s8)
bfc09378:	0441fff8 	bgez	v0,bfc0935c <func_clkhs_cal+0x7c>
bfc0937c:	00000000 	nop
D:\loongson\works\ls1d-mylib\lib\func/tdc.c:454
bfc09380:	afc00020 	sw	zero,32(s8)
bfc09384:	8fc20020 	lw	v0,32(s8)
D:\loongson\works\ls1d-mylib\lib\func/tdc.c:455
bfc09388:	03c0e821 	move	sp,s8
bfc0938c:	8fbf002c 	lw	ra,44(sp)
bfc09390:	8fbe0028 	lw	s8,40(sp)
bfc09394:	27bd0030 	addiu	sp,sp,48
bfc09398:	03e00008 	jr	ra
bfc0939c:	00000000 	nop

bfc093a0 <func_cap_detection>:
func_cap_detection():
D:\loongson\works\ls1d-mylib\lib\func/tdc.c:457
bfc093a0:	27bdffd8 	addiu	sp,sp,-40
bfc093a4:	afbf0024 	sw	ra,36(sp)
bfc093a8:	afbe0020 	sw	s8,32(sp)
bfc093ac:	03a0f021 	move	s8,sp
bfc093b0:	afc40028 	sw	a0,40(s8)
D:\loongson\works\ls1d-mylib\lib\func/tdc.c:458
bfc093b4:	8fc20028 	lw	v0,40(s8)
bfc093b8:	8c430000 	lw	v1,0(v0)
bfc093bc:	24020002 	li	v0,2
bfc093c0:	1462000c 	bne	v1,v0,bfc093f4 <func_cap_detection+0x54>
bfc093c4:	00000000 	nop
D:\loongson\works\ls1d-mylib\lib\func/tdc.c:462
bfc093c8:	8fc40028 	lw	a0,40(s8)
bfc093cc:	0ff01eba 	jal	bfc07ae8 <check_res>
bfc093d0:	00000000 	nop
bfc093d4:	afc20010 	sw	v0,16(s8)
D:\loongson\works\ls1d-mylib\lib\func/tdc.c:463
bfc093d8:	8fc20010 	lw	v0,16(s8)
bfc093dc:	10400005 	beqz	v0,bfc093f4 <func_cap_detection+0x54>
bfc093e0:	00000000 	nop
bfc093e4:	24020001 	li	v0,1
bfc093e8:	afc20018 	sw	v0,24(s8)
bfc093ec:	0bf024fe 	j	bfc093f8 <func_cap_detection+0x58>
bfc093f0:	00000000 	nop
D:\loongson\works\ls1d-mylib\lib\func/tdc.c:475
bfc093f4:	afc00018 	sw	zero,24(s8)
bfc093f8:	8fc20018 	lw	v0,24(s8)
D:\loongson\works\ls1d-mylib\lib\func/tdc.c:476
bfc093fc:	03c0e821 	move	sp,s8
bfc09400:	8fbf0024 	lw	ra,36(sp)
bfc09404:	8fbe0020 	lw	s8,32(sp)
bfc09408:	27bd0028 	addiu	sp,sp,40
bfc0940c:	03e00008 	jr	ra
bfc09410:	00000000 	nop

bfc09414 <res_ready>:
res_ready():
D:\loongson\works\ls1d-mylib\lib\func/tdc.c:479
bfc09414:	27bdffc8 	addiu	sp,sp,-56
bfc09418:	afbf0034 	sw	ra,52(sp)
bfc0941c:	afbe0030 	sw	s8,48(sp)
bfc09420:	03a0f021 	move	s8,sp
D:\loongson\works\ls1d-mylib\lib\func/tdc.c:480
bfc09424:	3c02a000 	lui	v0,0xa000
bfc09428:	24421150 	addiu	v0,v0,4432
bfc0942c:	afc20024 	sw	v0,36(s8)
D:\loongson\works\ls1d-mylib\lib\func/tdc.c:482
bfc09430:	3c02bfc1 	lui	v0,0xbfc1
bfc09434:	8c42d9f4 	lw	v0,-9740(v0)
bfc09438:	24420004 	addiu	v0,v0,4
bfc0943c:	8c420000 	lw	v0,0(v0)
bfc09440:	000214c2 	srl	v0,v0,0x13
bfc09444:	30420001 	andi	v0,v0,0x1
bfc09448:	afc20020 	sw	v0,32(s8)
D:\loongson\works\ls1d-mylib\lib\func/tdc.c:483
bfc0944c:	3c02bfc1 	lui	v0,0xbfc1
bfc09450:	8c42d9f4 	lw	v0,-9740(v0)
bfc09454:	24420004 	addiu	v0,v0,4
bfc09458:	8c420000 	lw	v0,0(v0)
bfc0945c:	000216c2 	srl	v0,v0,0x1b
bfc09460:	30420001 	andi	v0,v0,0x1
bfc09464:	afc2001c 	sw	v0,28(s8)
D:\loongson\works\ls1d-mylib\lib\func/tdc.c:484
bfc09468:	3c02bfc1 	lui	v0,0xbfc1
bfc0946c:	8c42d9f0 	lw	v0,-9744(v0)
bfc09470:	24420004 	addiu	v0,v0,4
bfc09474:	8c420000 	lw	v0,0(v0)
bfc09478:	00021242 	srl	v0,v0,0x9
bfc0947c:	30420007 	andi	v0,v0,0x7
bfc09480:	afc20018 	sw	v0,24(s8)
D:\loongson\works\ls1d-mylib\lib\func/tdc.c:486
bfc09484:	8fc2001c 	lw	v0,28(s8)
bfc09488:	00021840 	sll	v1,v0,0x1
bfc0948c:	8fc20020 	lw	v0,32(s8)
bfc09490:	00621821 	addu	v1,v1,v0
bfc09494:	8fc20024 	lw	v0,36(s8)
bfc09498:	ac430000 	sw	v1,0(v0)
D:\loongson\works\ls1d-mylib\lib\func/tdc.c:487
bfc0949c:	3c02bfc1 	lui	v0,0xbfc1
bfc094a0:	8c42d9f4 	lw	v0,-9740(v0)
bfc094a4:	24420004 	addiu	v0,v0,4
bfc094a8:	8c420000 	lw	v0,0(v0)
bfc094ac:	00021482 	srl	v0,v0,0x12
bfc094b0:	30430001 	andi	v1,v0,0x1
bfc094b4:	8fc20024 	lw	v0,36(s8)
bfc094b8:	ac430004 	sw	v1,4(v0)
D:\loongson\works\ls1d-mylib\lib\func/tdc.c:488
bfc094bc:	3c02bfc1 	lui	v0,0xbfc1
bfc094c0:	8c42d9f4 	lw	v0,-9740(v0)
bfc094c4:	24420004 	addiu	v0,v0,4
bfc094c8:	8c420000 	lw	v0,0(v0)
bfc094cc:	00021502 	srl	v0,v0,0x14
bfc094d0:	30430001 	andi	v1,v0,0x1
bfc094d4:	8fc20024 	lw	v0,36(s8)
bfc094d8:	ac430008 	sw	v1,8(v0)
D:\loongson\works\ls1d-mylib\lib\func/tdc.c:489
bfc094dc:	3c02bfc1 	lui	v0,0xbfc1
bfc094e0:	8c42d9f4 	lw	v0,-9740(v0)
bfc094e4:	24420004 	addiu	v0,v0,4
bfc094e8:	8c420000 	lw	v0,0(v0)
bfc094ec:	00021542 	srl	v0,v0,0x15
bfc094f0:	30430007 	andi	v1,v0,0x7
bfc094f4:	8fc20024 	lw	v0,36(s8)
bfc094f8:	ac43000c 	sw	v1,12(v0)
D:\loongson\works\ls1d-mylib\lib\func/tdc.c:490
bfc094fc:	3c02bfc1 	lui	v0,0xbfc1
bfc09500:	8c42d9f4 	lw	v0,-9740(v0)
bfc09504:	24420008 	addiu	v0,v0,8
bfc09508:	8c420000 	lw	v0,0(v0)
bfc0950c:	00021582 	srl	v0,v0,0x16
bfc09510:	304300ff 	andi	v1,v0,0xff
bfc09514:	8fc20024 	lw	v0,36(s8)
bfc09518:	ac430010 	sw	v1,16(v0)
D:\loongson\works\ls1d-mylib\lib\func/tdc.c:491
bfc0951c:	8fc30024 	lw	v1,36(s8)
bfc09520:	8fc20018 	lw	v0,24(s8)
bfc09524:	ac6200d4 	sw	v0,212(v1)
D:\loongson\works\ls1d-mylib\lib\func/tdc.c:492
bfc09528:	3c02bfeb 	lui	v0,0xbfeb
bfc0952c:	34424000 	ori	v0,v0,0x4000
bfc09530:	8c430000 	lw	v1,0(v0)
bfc09534:	8fc20024 	lw	v0,36(s8)
bfc09538:	ac4300cc 	sw	v1,204(v0)
D:\loongson\works\ls1d-mylib\lib\func/tdc.c:493
bfc0953c:	3c02bfeb 	lui	v0,0xbfeb
bfc09540:	34424020 	ori	v0,v0,0x4020
bfc09544:	8c430000 	lw	v1,0(v0)
bfc09548:	8fc20024 	lw	v0,36(s8)
bfc0954c:	ac4300d0 	sw	v1,208(v0)
D:\loongson\works\ls1d-mylib\lib\func/tdc.c:495
bfc09550:	8fc20024 	lw	v0,36(s8)
bfc09554:	8c420004 	lw	v0,4(v0)
bfc09558:	14400026 	bnez	v0,bfc095f4 <res_ready+0x1e0>
bfc0955c:	00000000 	nop
D:\loongson\works\ls1d-mylib\lib\func/tdc.c:497
bfc09560:	8fc20024 	lw	v0,36(s8)
bfc09564:	24420034 	addiu	v0,v0,52
bfc09568:	afc20014 	sw	v0,20(s8)
D:\loongson\works\ls1d-mylib\lib\func/tdc.c:499
bfc0956c:	afc00010 	sw	zero,16(s8)
bfc09570:	0bf0256d 	j	bfc095b4 <res_ready+0x1a0>
bfc09574:	00000000 	nop
D:\loongson\works\ls1d-mylib\lib\func/tdc.c:501
bfc09578:	8fc20010 	lw	v0,16(s8)
bfc0957c:	00021880 	sll	v1,v0,0x2
bfc09580:	8fc20014 	lw	v0,20(s8)
bfc09584:	00432021 	addu	a0,v0,v1
bfc09588:	3c02bfc1 	lui	v0,0xbfc1
bfc0958c:	8c43d9f4 	lw	v1,-9740(v0)
bfc09590:	8fc20010 	lw	v0,16(s8)
bfc09594:	24420010 	addiu	v0,v0,16
bfc09598:	00021080 	sll	v0,v0,0x2
bfc0959c:	00621021 	addu	v0,v1,v0
bfc095a0:	8c420000 	lw	v0,0(v0)
bfc095a4:	ac820000 	sw	v0,0(a0)
D:\loongson\works\ls1d-mylib\lib\func/tdc.c:499
bfc095a8:	8fc20010 	lw	v0,16(s8)
bfc095ac:	24420001 	addiu	v0,v0,1
bfc095b0:	afc20010 	sw	v0,16(s8)
bfc095b4:	8fc20010 	lw	v0,16(s8)
bfc095b8:	2c420010 	sltiu	v0,v0,16
bfc095bc:	1440ffee 	bnez	v0,bfc09578 <res_ready+0x164>
bfc095c0:	00000000 	nop
D:\loongson\works\ls1d-mylib\lib\func/tdc.c:503
bfc095c4:	3c02bfeb 	lui	v0,0xbfeb
bfc095c8:	3443007c 	ori	v1,v0,0x7c
bfc095cc:	3c02cf21 	lui	v0,0xcf21
bfc095d0:	34426e95 	ori	v0,v0,0x6e95
bfc095d4:	ac620000 	sw	v0,0(v1)
D:\loongson\works\ls1d-mylib\lib\func/tdc.c:504
bfc095d8:	3c02bfeb 	lui	v0,0xbfeb
bfc095dc:	3443003c 	ori	v1,v0,0x3c
bfc095e0:	3c028000 	lui	v0,0x8000
bfc095e4:	ac620000 	sw	v0,0(v1)
D:\loongson\works\ls1d-mylib\lib\func/tdc.c:505
bfc095e8:	afc00028 	sw	zero,40(s8)
bfc095ec:	0bf025cc 	j	bfc09730 <res_ready+0x31c>
bfc095f0:	00000000 	nop
D:\loongson\works\ls1d-mylib\lib\func/tdc.c:509
bfc095f4:	8fc20018 	lw	v0,24(s8)
bfc095f8:	2c420007 	sltiu	v0,v0,7
bfc095fc:	1040004b 	beqz	v0,bfc0972c <res_ready+0x318>
bfc09600:	00000000 	nop
bfc09604:	8fc20018 	lw	v0,24(s8)
bfc09608:	00021880 	sll	v1,v0,0x2
bfc0960c:	3c02bfc1 	lui	v0,0xbfc1
bfc09610:	2442d614 	addiu	v0,v0,-10732
bfc09614:	00621021 	addu	v0,v1,v0
bfc09618:	8c420000 	lw	v0,0(v0)
bfc0961c:	00400008 	jr	v0
bfc09620:	00000000 	nop
D:\loongson\works\ls1d-mylib\lib\func/tdc.c:512
bfc09624:	8fc40024 	lw	a0,36(s8)
bfc09628:	0ff021a6 	jal	bfc08698 <func_once_time>
bfc0962c:	00000000 	nop
bfc09630:	00401821 	move	v1,v0
bfc09634:	8fc20024 	lw	v0,36(s8)
bfc09638:	ac4300d8 	sw	v1,216(v0)
bfc0963c:	0bf025cb 	j	bfc0972c <res_ready+0x318>
bfc09640:	00000000 	nop
D:\loongson\works\ls1d-mylib\lib\func/tdc.c:515
bfc09644:	8fc40024 	lw	a0,36(s8)
bfc09648:	0ff02222 	jal	bfc08888 <func_once_thsens>
bfc0964c:	00000000 	nop
bfc09650:	00401821 	move	v1,v0
bfc09654:	8fc20024 	lw	v0,36(s8)
bfc09658:	ac4300d8 	sw	v1,216(v0)
bfc0965c:	0bf025cb 	j	bfc0972c <res_ready+0x318>
bfc09660:	00000000 	nop
D:\loongson\works\ls1d-mylib\lib\func/tdc.c:518
bfc09664:	8fc30024 	lw	v1,36(s8)
bfc09668:	24020001 	li	v0,1
bfc0966c:	ac6200c8 	sw	v0,200(v1)
D:\loongson\works\ls1d-mylib\lib\func/tdc.c:519
bfc09670:	8fc40024 	lw	a0,36(s8)
bfc09674:	0ff022c0 	jal	bfc08b00 <func_twice_time>
bfc09678:	00000000 	nop
bfc0967c:	00401821 	move	v1,v0
bfc09680:	8fc20024 	lw	v0,36(s8)
bfc09684:	ac4300d8 	sw	v1,216(v0)
bfc09688:	0bf025cb 	j	bfc0972c <res_ready+0x318>
bfc0968c:	00000000 	nop
D:\loongson\works\ls1d-mylib\lib\func/tdc.c:522
bfc09690:	8fc40024 	lw	a0,36(s8)
bfc09694:	0ff0238c 	jal	bfc08e30 <func_twice_thsens>
bfc09698:	00000000 	nop
bfc0969c:	00401821 	move	v1,v0
bfc096a0:	8fc20024 	lw	v0,36(s8)
bfc096a4:	ac4300d8 	sw	v1,216(v0)
bfc096a8:	0bf025cb 	j	bfc0972c <res_ready+0x318>
bfc096ac:	00000000 	nop
D:\loongson\works\ls1d-mylib\lib\func/tdc.c:525
bfc096b0:	8fc30024 	lw	v1,36(s8)
bfc096b4:	24020002 	li	v0,2
bfc096b8:	ac6200c4 	sw	v0,196(v1)
D:\loongson\works\ls1d-mylib\lib\func/tdc.c:526
bfc096bc:	8fc40024 	lw	a0,36(s8)
bfc096c0:	0ff0248f 	jal	bfc0923c <func_tdc_cal>
bfc096c4:	00000000 	nop
bfc096c8:	00401821 	move	v1,v0
bfc096cc:	8fc20024 	lw	v0,36(s8)
bfc096d0:	ac4300d8 	sw	v1,216(v0)
bfc096d4:	0bf025cb 	j	bfc0972c <res_ready+0x318>
bfc096d8:	00000000 	nop
D:\loongson\works\ls1d-mylib\lib\func/tdc.c:529
bfc096dc:	8fc30024 	lw	v1,36(s8)
bfc096e0:	24020004 	li	v0,4
bfc096e4:	ac6200c4 	sw	v0,196(v1)
D:\loongson\works\ls1d-mylib\lib\func/tdc.c:530
bfc096e8:	8fc40024 	lw	a0,36(s8)
bfc096ec:	0ff024b8 	jal	bfc092e0 <func_clkhs_cal>
bfc096f0:	00000000 	nop
bfc096f4:	00401821 	move	v1,v0
bfc096f8:	8fc20024 	lw	v0,36(s8)
bfc096fc:	ac4300d8 	sw	v1,216(v0)
bfc09700:	0bf025cb 	j	bfc0972c <res_ready+0x318>
bfc09704:	00000000 	nop
D:\loongson\works\ls1d-mylib\lib\func/tdc.c:533
bfc09708:	8fc30024 	lw	v1,36(s8)
bfc0970c:	24020004 	li	v0,4
bfc09710:	ac6200c4 	sw	v0,196(v1)
D:\loongson\works\ls1d-mylib\lib\func/tdc.c:534
bfc09714:	8fc40024 	lw	a0,36(s8)
bfc09718:	0ff024e8 	jal	bfc093a0 <func_cap_detection>
bfc0971c:	00000000 	nop
bfc09720:	00401821 	move	v1,v0
bfc09724:	8fc20024 	lw	v0,36(s8)
bfc09728:	ac4300d8 	sw	v1,216(v0)
D:\loongson\works\ls1d-mylib\lib\func/tdc.c:540
bfc0972c:	afc00028 	sw	zero,40(s8)
bfc09730:	8fc20028 	lw	v0,40(s8)
D:\loongson\works\ls1d-mylib\lib\func/tdc.c:541
bfc09734:	03c0e821 	move	sp,s8
bfc09738:	8fbf0034 	lw	ra,52(sp)
bfc0973c:	8fbe0030 	lw	s8,48(sp)
bfc09740:	27bd0038 	addiu	sp,sp,56
bfc09744:	03e00008 	jr	ra
bfc09748:	00000000 	nop
bfc0974c:	00000000 	nop

bfc09750 <ls1d_key_open>:
ls1d_key_open():
D:\loongson\works\ls1d-mylib\lib\func/key.c:11
bfc09750:	27bdfff8 	addiu	sp,sp,-8
bfc09754:	afbe0004 	sw	s8,4(sp)
bfc09758:	03a0f021 	move	s8,sp
D:\loongson\works\ls1d-mylib\lib\func/key.c:12
bfc0975c:	40086000 	mfc0	t0,c0_status
bfc09760:	3c09ffff 	lui	t1,0xffff
bfc09764:	352900fe 	ori	t1,t1,0xfe
bfc09768:	01095024 	and	t2,t0,t1
bfc0976c:	408a6000 	mtc0	t2,c0_status
D:\loongson\works\ls1d-mylib\lib\func/key.c:13
bfc09770:	3c02bfeb 	lui	v0,0xbfeb
bfc09774:	3443007c 	ori	v1,v0,0x7c
bfc09778:	3c0215da 	lui	v0,0x15da
bfc0977c:	3442ed27 	ori	v0,v0,0xed27
bfc09780:	ac620000 	sw	v0,0(v1)
D:\loongson\works\ls1d-mylib\lib\func/key.c:14
bfc09784:	3c02bfeb 	lui	v0,0xbfeb
bfc09788:	3444000c 	ori	a0,v0,0xc
bfc0978c:	3c02bfeb 	lui	v0,0xbfeb
bfc09790:	3442000c 	ori	v0,v0,0xc
bfc09794:	8c430000 	lw	v1,0(v0)
bfc09798:	2402fb7f 	li	v0,-1153
bfc0979c:	00621024 	and	v0,v1,v0
bfc097a0:	ac820000 	sw	v0,0(a0)
D:\loongson\works\ls1d-mylib\lib\func/key.c:15
bfc097a4:	3c02bfeb 	lui	v0,0xbfeb
bfc097a8:	3443007c 	ori	v1,v0,0x7c
bfc097ac:	3c02cf21 	lui	v0,0xcf21
bfc097b0:	34426e95 	ori	v0,v0,0x6e95
bfc097b4:	ac620000 	sw	v0,0(v1)
D:\loongson\works\ls1d-mylib\lib\func/key.c:16
bfc097b8:	3c02bfeb 	lui	v0,0xbfeb
bfc097bc:	34430004 	ori	v1,v0,0x4
bfc097c0:	3c02bfeb 	lui	v0,0xbfeb
bfc097c4:	34420004 	ori	v0,v0,0x4
bfc097c8:	8c420000 	lw	v0,0(v0)
bfc097cc:	34422000 	ori	v0,v0,0x2000
bfc097d0:	ac620000 	sw	v0,0(v1)
D:\loongson\works\ls1d-mylib\lib\func/key.c:17
bfc097d4:	40086000 	mfc0	t0,c0_status
bfc097d8:	3c09ffff 	lui	t1,0xffff
bfc097dc:	352900fe 	ori	t1,t1,0xfe
bfc097e0:	01095024 	and	t2,t0,t1
bfc097e4:	3409ff01 	li	t1,0xff01
bfc097e8:	01494025 	or	t0,t2,t1
bfc097ec:	40886000 	mtc0	t0,c0_status
D:\loongson\works\ls1d-mylib\lib\func/key.c:18
bfc097f0:	03c0e821 	move	sp,s8
bfc097f4:	8fbe0004 	lw	s8,4(sp)
bfc097f8:	03e00008 	jr	ra
bfc097fc:	27bd0008 	addiu	sp,sp,8

bfc09800 <ls1d_key_debug>:
ls1d_key_debug():
D:\loongson\works\ls1d-mylib\lib\func/key.c:20
bfc09800:	27bdfff0 	addiu	sp,sp,-16
bfc09804:	afbe000c 	sw	s8,12(sp)
bfc09808:	03a0f021 	move	s8,sp
D:\loongson\works\ls1d-mylib\lib\func/key.c:21
bfc0980c:	40086000 	mfc0	t0,c0_status
bfc09810:	3c09ffff 	lui	t1,0xffff
bfc09814:	352900fe 	ori	t1,t1,0xfe
bfc09818:	01095024 	and	t2,t0,t1
bfc0981c:	408a6000 	mtc0	t2,c0_status
D:\loongson\works\ls1d-mylib\lib\func/key.c:22
bfc09820:	3c02bfeb 	lui	v0,0xbfeb
bfc09824:	3442000c 	ori	v0,v0,0xc
bfc09828:	8c430000 	lw	v1,0(v0)
bfc0982c:	2402ff7f 	li	v0,-129
bfc09830:	00621024 	and	v0,v1,v0
bfc09834:	afc20000 	sw	v0,0(s8)
D:\loongson\works\ls1d-mylib\lib\func/key.c:23
bfc09838:	3c02bfeb 	lui	v0,0xbfeb
bfc0983c:	3443007c 	ori	v1,v0,0x7c
bfc09840:	3c0215da 	lui	v0,0x15da
bfc09844:	3442ed27 	ori	v0,v0,0xed27
bfc09848:	ac620000 	sw	v0,0(v1)
D:\loongson\works\ls1d-mylib\lib\func/key.c:24
bfc0984c:	3c02bfeb 	lui	v0,0xbfeb
bfc09850:	3443000c 	ori	v1,v0,0xc
bfc09854:	8fc20000 	lw	v0,0(s8)
bfc09858:	34420400 	ori	v0,v0,0x400
bfc0985c:	ac620000 	sw	v0,0(v1)
D:\loongson\works\ls1d-mylib\lib\func/key.c:25
bfc09860:	40086000 	mfc0	t0,c0_status
bfc09864:	3c09ffff 	lui	t1,0xffff
bfc09868:	352900fe 	ori	t1,t1,0xfe
bfc0986c:	01095024 	and	t2,t0,t1
bfc09870:	3409ff01 	li	t1,0xff01
bfc09874:	01494025 	or	t0,t2,t1
bfc09878:	40886000 	mtc0	t0,c0_status
D:\loongson\works\ls1d-mylib\lib\func/key.c:26
bfc0987c:	03c0e821 	move	sp,s8
bfc09880:	8fbe000c 	lw	s8,12(sp)
bfc09884:	03e00008 	jr	ra
bfc09888:	27bd0010 	addiu	sp,sp,16

bfc0988c <ls1d_key_close>:
ls1d_key_close():
D:\loongson\works\ls1d-mylib\lib\func/key.c:28
bfc0988c:	27bdfff8 	addiu	sp,sp,-8
bfc09890:	afbe0004 	sw	s8,4(sp)
bfc09894:	03a0f021 	move	s8,sp
D:\loongson\works\ls1d-mylib\lib\func/key.c:29
bfc09898:	40086000 	mfc0	t0,c0_status
bfc0989c:	3c09ffff 	lui	t1,0xffff
bfc098a0:	352900fe 	ori	t1,t1,0xfe
bfc098a4:	01095024 	and	t2,t0,t1
bfc098a8:	408a6000 	mtc0	t2,c0_status
D:\loongson\works\ls1d-mylib\lib\func/key.c:30
bfc098ac:	3c02bfeb 	lui	v0,0xbfeb
bfc098b0:	3443007c 	ori	v1,v0,0x7c
bfc098b4:	3c02cf21 	lui	v0,0xcf21
bfc098b8:	34426e95 	ori	v0,v0,0x6e95
bfc098bc:	ac620000 	sw	v0,0(v1)
D:\loongson\works\ls1d-mylib\lib\func/key.c:31
bfc098c0:	3c02bfeb 	lui	v0,0xbfeb
bfc098c4:	34440004 	ori	a0,v0,0x4
bfc098c8:	3c02bfeb 	lui	v0,0xbfeb
bfc098cc:	34420004 	ori	v0,v0,0x4
bfc098d0:	8c430000 	lw	v1,0(v0)
bfc098d4:	2402dfff 	li	v0,-8193
bfc098d8:	00621024 	and	v0,v1,v0
bfc098dc:	ac820000 	sw	v0,0(a0)
D:\loongson\works\ls1d-mylib\lib\func/key.c:32
bfc098e0:	40086000 	mfc0	t0,c0_status
bfc098e4:	3c09ffff 	lui	t1,0xffff
bfc098e8:	352900fe 	ori	t1,t1,0xfe
bfc098ec:	01095024 	and	t2,t0,t1
bfc098f0:	3409ff01 	li	t1,0xff01
bfc098f4:	01494025 	or	t0,t2,t1
bfc098f8:	40886000 	mtc0	t0,c0_status
D:\loongson\works\ls1d-mylib\lib\func/key.c:33
bfc098fc:	03c0e821 	move	sp,s8
bfc09900:	8fbe0004 	lw	s8,4(sp)
bfc09904:	03e00008 	jr	ra
bfc09908:	27bd0008 	addiu	sp,sp,8
bfc0990c:	00000000 	nop

bfc09910 <Flash_Erase_page>:
Flash_Erase_page():
D:\loongson\works\ls1d-mylib\lib\func/flash.c:13
bfc09910:	27bdffe8 	addiu	sp,sp,-24
bfc09914:	afbe0014 	sw	s8,20(sp)
bfc09918:	03a0f021 	move	s8,sp
bfc0991c:	afc40018 	sw	a0,24(s8)
D:\loongson\works\ls1d-mylib\lib\func/flash.c:14
bfc09920:	8fc30018 	lw	v1,24(s8)
bfc09924:	2402ff80 	li	v0,-128
bfc09928:	00621024 	and	v0,v1,v0
bfc0992c:	afc20004 	sw	v0,4(s8)
D:\loongson\works\ls1d-mylib\lib\func/flash.c:15
bfc09930:	3c02bfe6 	lui	v0,0xbfe6
bfc09934:	34430024 	ori	v1,v0,0x24
bfc09938:	24020002 	li	v0,2
bfc0993c:	ac620000 	sw	v0,0(v1)
D:\loongson\works\ls1d-mylib\lib\func/flash.c:16
bfc09940:	3c04bfe6 	lui	a0,0xbfe6
bfc09944:	8fc20004 	lw	v0,4(s8)
bfc09948:	3043ffff 	andi	v1,v0,0xffff
bfc0994c:	3c02a000 	lui	v0,0xa000
bfc09950:	00621025 	or	v0,v1,v0
bfc09954:	ac820000 	sw	v0,0(a0)
D:\loongson\works\ls1d-mylib\lib\func/flash.c:21
bfc09958:	afc00000 	sw	zero,0(s8)
bfc0995c:	0bf02666 	j	bfc09998 <Flash_Erase_page+0x88>
bfc09960:	00000000 	nop
D:\loongson\works\ls1d-mylib\lib\func/flash.c:23
bfc09964:	8fc30004 	lw	v1,4(s8)
bfc09968:	8fc20000 	lw	v0,0(s8)
bfc0996c:	00621021 	addu	v0,v1,v0
bfc09970:	8c420000 	lw	v0,0(v0)
bfc09974:	10400005 	beqz	v0,bfc0998c <Flash_Erase_page+0x7c>
bfc09978:	00000000 	nop
D:\loongson\works\ls1d-mylib\lib\func/flash.c:24
bfc0997c:	24020001 	li	v0,1
bfc09980:	afc20008 	sw	v0,8(s8)
bfc09984:	0bf0266b 	j	bfc099ac <Flash_Erase_page+0x9c>
bfc09988:	00000000 	nop
D:\loongson\works\ls1d-mylib\lib\func/flash.c:21
bfc0998c:	8fc20000 	lw	v0,0(s8)
bfc09990:	24420004 	addiu	v0,v0,4
bfc09994:	afc20000 	sw	v0,0(s8)
bfc09998:	8fc20000 	lw	v0,0(s8)
bfc0999c:	2c420020 	sltiu	v0,v0,32
bfc099a0:	1440fff0 	bnez	v0,bfc09964 <Flash_Erase_page+0x54>
bfc099a4:	00000000 	nop
D:\loongson\works\ls1d-mylib\lib\func/flash.c:27
bfc099a8:	afc00008 	sw	zero,8(s8)
bfc099ac:	8fc20008 	lw	v0,8(s8)
D:\loongson\works\ls1d-mylib\lib\func/flash.c:28
bfc099b0:	03c0e821 	move	sp,s8
bfc099b4:	8fbe0014 	lw	s8,20(sp)
bfc099b8:	27bd0018 	addiu	sp,sp,24
bfc099bc:	03e00008 	jr	ra
bfc099c0:	00000000 	nop

bfc099c4 <Flash_Erase>:
Flash_Erase():
D:\loongson\works\ls1d-mylib\lib\func/flash.c:31
bfc099c4:	27bdffd8 	addiu	sp,sp,-40
bfc099c8:	afbf0024 	sw	ra,36(sp)
bfc099cc:	afbe0020 	sw	s8,32(sp)
bfc099d0:	03a0f021 	move	s8,sp
bfc099d4:	afc40028 	sw	a0,40(s8)
bfc099d8:	afc5002c 	sw	a1,44(s8)
D:\loongson\works\ls1d-mylib\lib\func/flash.c:32
bfc099dc:	afc00010 	sw	zero,16(s8)
D:\loongson\works\ls1d-mylib\lib\func/flash.c:33
bfc099e0:	afc00014 	sw	zero,20(s8)
bfc099e4:	0bf0268e 	j	bfc09a38 <Flash_Erase+0x74>
bfc099e8:	00000000 	nop
D:\loongson\works\ls1d-mylib\lib\func/flash.c:35
bfc099ec:	8fc20014 	lw	v0,20(s8)
bfc099f0:	000219c0 	sll	v1,v0,0x7
bfc099f4:	8fc20028 	lw	v0,40(s8)
bfc099f8:	00621021 	addu	v0,v1,v0
bfc099fc:	00402021 	move	a0,v0
bfc09a00:	0ff02644 	jal	bfc09910 <Flash_Erase_page>
bfc09a04:	00000000 	nop
bfc09a08:	afc20010 	sw	v0,16(s8)
D:\loongson\works\ls1d-mylib\lib\func/flash.c:36
bfc09a0c:	8fc20010 	lw	v0,16(s8)
bfc09a10:	10400006 	beqz	v0,bfc09a2c <Flash_Erase+0x68>
bfc09a14:	00000000 	nop
D:\loongson\works\ls1d-mylib\lib\func/flash.c:37
bfc09a18:	8fc20014 	lw	v0,20(s8)
bfc09a1c:	24420001 	addiu	v0,v0,1
bfc09a20:	afc20018 	sw	v0,24(s8)
bfc09a24:	0bf02695 	j	bfc09a54 <Flash_Erase+0x90>
bfc09a28:	00000000 	nop
D:\loongson\works\ls1d-mylib\lib\func/flash.c:33
bfc09a2c:	8fc20014 	lw	v0,20(s8)
bfc09a30:	24420001 	addiu	v0,v0,1
bfc09a34:	afc20014 	sw	v0,20(s8)
bfc09a38:	8fc20014 	lw	v0,20(s8)
bfc09a3c:	8fc3002c 	lw	v1,44(s8)
bfc09a40:	0043102b 	sltu	v0,v0,v1
bfc09a44:	1440ffe9 	bnez	v0,bfc099ec <Flash_Erase+0x28>
bfc09a48:	00000000 	nop
D:\loongson\works\ls1d-mylib\lib\func/flash.c:39
bfc09a4c:	8fc20010 	lw	v0,16(s8)
bfc09a50:	afc20018 	sw	v0,24(s8)
bfc09a54:	8fc20018 	lw	v0,24(s8)
D:\loongson\works\ls1d-mylib\lib\func/flash.c:40
bfc09a58:	03c0e821 	move	sp,s8
bfc09a5c:	8fbf0024 	lw	ra,36(sp)
bfc09a60:	8fbe0020 	lw	s8,32(sp)
bfc09a64:	27bd0028 	addiu	sp,sp,40
bfc09a68:	03e00008 	jr	ra
bfc09a6c:	00000000 	nop

bfc09a70 <Flash_Write>:
Flash_Write():
D:\loongson\works\ls1d-mylib\lib\func/flash.c:46
bfc09a70:	27bdff40 	addiu	sp,sp,-192
bfc09a74:	afbf00bc 	sw	ra,188(sp)
bfc09a78:	afbe00b8 	sw	s8,184(sp)
bfc09a7c:	03a0f021 	move	s8,sp
bfc09a80:	afc400c0 	sw	a0,192(s8)
bfc09a84:	afc500c4 	sw	a1,196(s8)
bfc09a88:	afc600c8 	sw	a2,200(s8)
D:\loongson\works\ls1d-mylib\lib\func/flash.c:48
bfc09a8c:	afc00024 	sw	zero,36(s8)
D:\loongson\works\ls1d-mylib\lib\func/flash.c:49
bfc09a90:	8fc200c0 	lw	v0,192(s8)
bfc09a94:	afc2001c 	sw	v0,28(s8)
D:\loongson\works\ls1d-mylib\lib\func/flash.c:50
bfc09a98:	2402007f 	li	v0,127
bfc09a9c:	afc20018 	sw	v0,24(s8)
bfc09aa0:	0bf02716 	j	bfc09c58 <Flash_Write+0x1e8>
bfc09aa4:	00000000 	nop
D:\loongson\works\ls1d-mylib\lib\func/flash.c:55
bfc09aa8:	afc00028 	sw	zero,40(s8)
bfc09aac:	0bf026bd 	j	bfc09af4 <Flash_Write+0x84>
bfc09ab0:	00000000 	nop
D:\loongson\works\ls1d-mylib\lib\func/flash.c:56
bfc09ab4:	8fc50028 	lw	a1,40(s8)
bfc09ab8:	8fc20018 	lw	v0,24(s8)
bfc09abc:	00021827 	nor	v1,zero,v0
bfc09ac0:	8fc2001c 	lw	v0,28(s8)
bfc09ac4:	00621824 	and	v1,v1,v0
bfc09ac8:	8fc20028 	lw	v0,40(s8)
bfc09acc:	00021080 	sll	v0,v0,0x2
bfc09ad0:	00621021 	addu	v0,v1,v0
bfc09ad4:	8c440000 	lw	a0,0(v0)
bfc09ad8:	00051080 	sll	v0,a1,0x2
bfc09adc:	27c30010 	addiu	v1,s8,16
bfc09ae0:	00621021 	addu	v0,v1,v0
bfc09ae4:	ac44001c 	sw	a0,28(v0)
D:\loongson\works\ls1d-mylib\lib\func/flash.c:55
bfc09ae8:	8fc20028 	lw	v0,40(s8)
bfc09aec:	24420001 	addiu	v0,v0,1
bfc09af0:	afc20028 	sw	v0,40(s8)
bfc09af4:	8fc20028 	lw	v0,40(s8)
bfc09af8:	2c420020 	sltiu	v0,v0,32
bfc09afc:	1440ffed 	bnez	v0,bfc09ab4 <Flash_Write+0x44>
bfc09b00:	00000000 	nop
D:\loongson\works\ls1d-mylib\lib\func/flash.c:58
bfc09b04:	3c03bfe6 	lui	v1,0xbfe6
bfc09b08:	3c024000 	lui	v0,0x4000
bfc09b0c:	ac620000 	sw	v0,0(v1)
D:\loongson\works\ls1d-mylib\lib\func/flash.c:62
bfc09b10:	8fc20018 	lw	v0,24(s8)
bfc09b14:	00021827 	nor	v1,zero,v0
bfc09b18:	8fc2001c 	lw	v0,28(s8)
bfc09b1c:	00621024 	and	v0,v1,v0
bfc09b20:	afc20014 	sw	v0,20(s8)
D:\loongson\works\ls1d-mylib\lib\func/flash.c:64
bfc09b24:	8fc3001c 	lw	v1,28(s8)
bfc09b28:	8fc20018 	lw	v0,24(s8)
bfc09b2c:	00621024 	and	v0,v1,v0
bfc09b30:	00021082 	srl	v0,v0,0x2
bfc09b34:	afc20020 	sw	v0,32(s8)
D:\loongson\works\ls1d-mylib\lib\func/flash.c:65
bfc09b38:	afc00028 	sw	zero,40(s8)
bfc09b3c:	0bf026f7 	j	bfc09bdc <Flash_Write+0x16c>
bfc09b40:	00000000 	nop
D:\loongson\works\ls1d-mylib\lib\func/flash.c:67
bfc09b44:	8fc20020 	lw	v0,32(s8)
bfc09b48:	8fc30028 	lw	v1,40(s8)
bfc09b4c:	0062102b 	sltu	v0,v1,v0
bfc09b50:	14400015 	bnez	v0,bfc09ba8 <Flash_Write+0x138>
bfc09b54:	00000000 	nop
bfc09b58:	8fc20024 	lw	v0,36(s8)
bfc09b5c:	8fc300c8 	lw	v1,200(s8)
bfc09b60:	0043102b 	sltu	v0,v0,v1
bfc09b64:	10400010 	beqz	v0,bfc09ba8 <Flash_Write+0x138>
bfc09b68:	00000000 	nop
D:\loongson\works\ls1d-mylib\lib\func/flash.c:68
bfc09b6c:	8fc20028 	lw	v0,40(s8)
bfc09b70:	00021880 	sll	v1,v0,0x2
bfc09b74:	8fc20014 	lw	v0,20(s8)
bfc09b78:	00432021 	addu	a0,v0,v1
bfc09b7c:	8fc20024 	lw	v0,36(s8)
bfc09b80:	00021880 	sll	v1,v0,0x2
bfc09b84:	8fc200c4 	lw	v0,196(s8)
bfc09b88:	00431021 	addu	v0,v0,v1
bfc09b8c:	8c420000 	lw	v0,0(v0)
bfc09b90:	ac820000 	sw	v0,0(a0)
bfc09b94:	8fc20024 	lw	v0,36(s8)
bfc09b98:	24420001 	addiu	v0,v0,1
bfc09b9c:	afc20024 	sw	v0,36(s8)
bfc09ba0:	0bf026f4 	j	bfc09bd0 <Flash_Write+0x160>
bfc09ba4:	00000000 	nop
D:\loongson\works\ls1d-mylib\lib\func/flash.c:70
bfc09ba8:	8fc20028 	lw	v0,40(s8)
bfc09bac:	00021880 	sll	v1,v0,0x2
bfc09bb0:	8fc20014 	lw	v0,20(s8)
bfc09bb4:	00432021 	addu	a0,v0,v1
bfc09bb8:	8fc20028 	lw	v0,40(s8)
bfc09bbc:	00021080 	sll	v0,v0,0x2
bfc09bc0:	27c30010 	addiu	v1,s8,16
bfc09bc4:	00621021 	addu	v0,v1,v0
bfc09bc8:	8c42001c 	lw	v0,28(v0)
bfc09bcc:	ac820000 	sw	v0,0(a0)
D:\loongson\works\ls1d-mylib\lib\func/flash.c:65
bfc09bd0:	8fc20028 	lw	v0,40(s8)
bfc09bd4:	24420001 	addiu	v0,v0,1
bfc09bd8:	afc20028 	sw	v0,40(s8)
bfc09bdc:	8fc20028 	lw	v0,40(s8)
bfc09be0:	2c420020 	sltiu	v0,v0,32
bfc09be4:	1440ffd7 	bnez	v0,bfc09b44 <Flash_Write+0xd4>
bfc09be8:	00000000 	nop
D:\loongson\works\ls1d-mylib\lib\func/flash.c:74
bfc09bec:	8fc4001c 	lw	a0,28(s8)
bfc09bf0:	0ff02644 	jal	bfc09910 <Flash_Erase_page>
bfc09bf4:	00000000 	nop
bfc09bf8:	afc20010 	sw	v0,16(s8)
D:\loongson\works\ls1d-mylib\lib\func/flash.c:77
bfc09bfc:	8fc20010 	lw	v0,16(s8)
bfc09c00:	10400005 	beqz	v0,bfc09c18 <Flash_Write+0x1a8>
bfc09c04:	00000000 	nop
D:\loongson\works\ls1d-mylib\lib\func/flash.c:78
bfc09c08:	24020001 	li	v0,1
bfc09c0c:	afc200b0 	sw	v0,176(s8)
bfc09c10:	0bf0271c 	j	bfc09c70 <Flash_Write+0x200>
bfc09c14:	00000000 	nop
D:\loongson\works\ls1d-mylib\lib\func/flash.c:80
bfc09c18:	3c02bfe6 	lui	v0,0xbfe6
bfc09c1c:	34430024 	ori	v1,v0,0x24
bfc09c20:	24020002 	li	v0,2
bfc09c24:	ac620000 	sw	v0,0(v1)
D:\loongson\works\ls1d-mylib\lib\func/flash.c:81
bfc09c28:	3c04bfe6 	lui	a0,0xbfe6
bfc09c2c:	8fc2001c 	lw	v0,28(s8)
bfc09c30:	3043ffff 	andi	v1,v0,0xffff
bfc09c34:	3c02e000 	lui	v0,0xe000
bfc09c38:	00621025 	or	v0,v1,v0
bfc09c3c:	ac820000 	sw	v0,0(a0)
D:\loongson\works\ls1d-mylib\lib\func/flash.c:87
bfc09c40:	8fc20018 	lw	v0,24(s8)
bfc09c44:	00021827 	nor	v1,zero,v0
bfc09c48:	8fc2001c 	lw	v0,28(s8)
bfc09c4c:	00621024 	and	v0,v1,v0
bfc09c50:	24420080 	addiu	v0,v0,128
bfc09c54:	afc2001c 	sw	v0,28(s8)
D:\loongson\works\ls1d-mylib\lib\func/flash.c:53
bfc09c58:	8fc20024 	lw	v0,36(s8)
bfc09c5c:	8fc300c8 	lw	v1,200(s8)
bfc09c60:	0043102b 	sltu	v0,v0,v1
bfc09c64:	1440ff90 	bnez	v0,bfc09aa8 <Flash_Write+0x38>
bfc09c68:	00000000 	nop
D:\loongson\works\ls1d-mylib\lib\func/flash.c:90
bfc09c6c:	afc000b0 	sw	zero,176(s8)
bfc09c70:	8fc200b0 	lw	v0,176(s8)
D:\loongson\works\ls1d-mylib\lib\func/flash.c:91
bfc09c74:	03c0e821 	move	sp,s8
bfc09c78:	8fbf00bc 	lw	ra,188(sp)
bfc09c7c:	8fbe00b8 	lw	s8,184(sp)
bfc09c80:	27bd00c0 	addiu	sp,sp,192
bfc09c84:	03e00008 	jr	ra
bfc09c88:	00000000 	nop
bfc09c8c:	00000000 	nop

bfc09c90 <ls1d_softint_clear>:
ls1d_softint_clear():
D:\loongson\works\ls1d-mylib\lib\func/Interrupt.c:12
bfc09c90:	27bdfff8 	addiu	sp,sp,-8
bfc09c94:	afbe0004 	sw	s8,4(sp)
bfc09c98:	03a0f021 	move	s8,sp
D:\loongson\works\ls1d-mylib\lib\func/Interrupt.c:13
bfc09c9c:	40086800 	mfc0	t0,c0_cause
bfc09ca0:	2409feff 	li	t1,-257
bfc09ca4:	01095024 	and	t2,t0,t1
bfc09ca8:	408a6800 	mtc0	t2,c0_cause
D:\loongson\works\ls1d-mylib\lib\func/Interrupt.c:21
bfc09cac:	03c0e821 	move	sp,s8
bfc09cb0:	8fbe0004 	lw	s8,4(sp)
bfc09cb4:	03e00008 	jr	ra
bfc09cb8:	27bd0008 	addiu	sp,sp,8

bfc09cbc <SOFT_INT>:
SOFT_INT():
D:\loongson\works\ls1d-mylib\lib\func/Interrupt.c:24
bfc09cbc:	27bdffe8 	addiu	sp,sp,-24
bfc09cc0:	afbf0014 	sw	ra,20(sp)
bfc09cc4:	afbe0010 	sw	s8,16(sp)
bfc09cc8:	03a0f021 	move	s8,sp
D:\loongson\works\ls1d-mylib\lib\func/Interrupt.c:25
bfc09ccc:	0ff02724 	jal	bfc09c90 <ls1d_softint_clear>
bfc09cd0:	00000000 	nop
D:\loongson\works\ls1d-mylib\lib\func/Interrupt.c:26
bfc09cd4:	3c02a000 	lui	v0,0xa000
bfc09cd8:	24431150 	addiu	v1,v0,4432
bfc09cdc:	8c6200dc 	lw	v0,220(v1)
bfc09ce0:	34420001 	ori	v0,v0,0x1
bfc09ce4:	ac6200dc 	sw	v0,220(v1)
D:\loongson\works\ls1d-mylib\lib\func/Interrupt.c:27
bfc09ce8:	03c0e821 	move	sp,s8
bfc09cec:	8fbf0014 	lw	ra,20(sp)
bfc09cf0:	8fbe0010 	lw	s8,16(sp)
bfc09cf4:	27bd0018 	addiu	sp,sp,24
bfc09cf8:	03e00008 	jr	ra
bfc09cfc:	00000000 	nop

bfc09d00 <TIMER1_INT>:
TIMER1_INT():
D:\loongson\works\ls1d-mylib\lib\func/Interrupt.c:29
bfc09d00:	27bdfff0 	addiu	sp,sp,-16
bfc09d04:	afbe000c 	sw	s8,12(sp)
bfc09d08:	03a0f021 	move	s8,sp
D:\loongson\works\ls1d-mylib\lib\func/Interrupt.c:30
bfc09d0c:	3c02bfeb 	lui	v0,0xbfeb
bfc09d10:	3442000c 	ori	v0,v0,0xc
bfc09d14:	8c430000 	lw	v1,0(v0)
bfc09d18:	3c02f800 	lui	v0,0xf800
bfc09d1c:	00621024 	and	v0,v1,v0
bfc09d20:	10400010 	beqz	v0,bfc09d64 <TIMER1_INT+0x64>
bfc09d24:	00000000 	nop
D:\loongson\works\ls1d-mylib\lib\func/Interrupt.c:31
bfc09d28:	3c02a000 	lui	v0,0xa000
bfc09d2c:	24421150 	addiu	v0,v0,4432
bfc09d30:	8c4200e4 	lw	v0,228(v0)
bfc09d34:	afc20000 	sw	v0,0(s8)
D:\loongson\works\ls1d-mylib\lib\func/Interrupt.c:32
bfc09d38:	8fc20000 	lw	v0,0(s8)
bfc09d3c:	40085800 	mfc0	t0,c0_compare
bfc09d40:	00404821 	move	t1,v0
bfc09d44:	01094820 	add	t1,t0,t1
bfc09d48:	40895800 	mtc0	t1,c0_compare
D:\loongson\works\ls1d-mylib\lib\func/Interrupt.c:41
bfc09d4c:	3c02a000 	lui	v0,0xa000
bfc09d50:	24431150 	addiu	v1,v0,4432
bfc09d54:	8c6200dc 	lw	v0,220(v1)
bfc09d58:	34420002 	ori	v0,v0,0x2
bfc09d5c:	0bf0275b 	j	bfc09d6c <TIMER1_INT+0x6c>
bfc09d60:	ac6200dc 	sw	v0,220(v1)
D:\loongson\works\ls1d-mylib\lib\func/Interrupt.c:43
bfc09d64:	24090001 	li	t1,1
bfc09d68:	40895800 	mtc0	t1,c0_compare
D:\loongson\works\ls1d-mylib\lib\func/Interrupt.c:50
bfc09d6c:	03c0e821 	move	sp,s8
bfc09d70:	8fbe000c 	lw	s8,12(sp)
bfc09d74:	03e00008 	jr	ra
bfc09d78:	27bd0010 	addiu	sp,sp,16

bfc09d7c <WAKER_INT>:
WAKER_INT():
D:\loongson\works\ls1d-mylib\lib\func/Interrupt.c:52
bfc09d7c:	27bdfff0 	addiu	sp,sp,-16
bfc09d80:	afbe000c 	sw	s8,12(sp)
bfc09d84:	03a0f021 	move	s8,sp
D:\loongson\works\ls1d-mylib\lib\func/Interrupt.c:55
bfc09d88:	3c02bfeb 	lui	v0,0xbfeb
bfc09d8c:	34420008 	ori	v0,v0,0x8
bfc09d90:	8c430000 	lw	v1,0(v0)
bfc09d94:	3c02a000 	lui	v0,0xa000
bfc09d98:	24421150 	addiu	v0,v0,4432
bfc09d9c:	8c4200e0 	lw	v0,224(v0)
bfc09da0:	00621021 	addu	v0,v1,v0
bfc09da4:	afc20000 	sw	v0,0(s8)
D:\loongson\works\ls1d-mylib\lib\func/Interrupt.c:56
bfc09da8:	8fc30000 	lw	v1,0(s8)
bfc09dac:	3c02000f 	lui	v0,0xf
bfc09db0:	3442ffff 	ori	v0,v0,0xffff
bfc09db4:	00621024 	and	v0,v1,v0
bfc09db8:	afc20000 	sw	v0,0(s8)
D:\loongson\works\ls1d-mylib\lib\func/Interrupt.c:57
bfc09dbc:	3c02bfeb 	lui	v0,0xbfeb
bfc09dc0:	34430008 	ori	v1,v0,0x8
bfc09dc4:	8fc20000 	lw	v0,0(s8)
bfc09dc8:	ac620000 	sw	v0,0(v1)
D:\loongson\works\ls1d-mylib\lib\func/Interrupt.c:60
bfc09dcc:	3c02bfeb 	lui	v0,0xbfeb
bfc09dd0:	3443007c 	ori	v1,v0,0x7c
bfc09dd4:	3c02cf21 	lui	v0,0xcf21
bfc09dd8:	34426e95 	ori	v0,v0,0x6e95
bfc09ddc:	ac620000 	sw	v0,0(v1)
D:\loongson\works\ls1d-mylib\lib\func/Interrupt.c:61
bfc09de0:	3c02bfeb 	lui	v0,0xbfeb
bfc09de4:	3443003c 	ori	v1,v0,0x3c
bfc09de8:	3c020001 	lui	v0,0x1
bfc09dec:	ac620000 	sw	v0,0(v1)
D:\loongson\works\ls1d-mylib\lib\func/Interrupt.c:63
bfc09df0:	3c02a000 	lui	v0,0xa000
bfc09df4:	24431150 	addiu	v1,v0,4432
bfc09df8:	8c6200dc 	lw	v0,220(v1)
bfc09dfc:	34420004 	ori	v0,v0,0x4
bfc09e00:	ac6200dc 	sw	v0,220(v1)
D:\loongson\works\ls1d-mylib\lib\func/Interrupt.c:64
bfc09e04:	03c0e821 	move	sp,s8
bfc09e08:	8fbe000c 	lw	s8,12(sp)
bfc09e0c:	27bd0010 	addiu	sp,sp,16
bfc09e10:	03e00008 	jr	ra
bfc09e14:	00000000 	nop

bfc09e18 <KEY_INT>:
KEY_INT():
D:\loongson\works\ls1d-mylib\lib\func/Interrupt.c:66
bfc09e18:	27bdfff8 	addiu	sp,sp,-8
bfc09e1c:	afbe0004 	sw	s8,4(sp)
bfc09e20:	03a0f021 	move	s8,sp
D:\loongson\works\ls1d-mylib\lib\func/Interrupt.c:68
bfc09e24:	3c02bfeb 	lui	v0,0xbfeb
bfc09e28:	3443007c 	ori	v1,v0,0x7c
bfc09e2c:	3c02cf21 	lui	v0,0xcf21
bfc09e30:	34426e95 	ori	v0,v0,0x6e95
bfc09e34:	ac620000 	sw	v0,0(v1)
D:\loongson\works\ls1d-mylib\lib\func/Interrupt.c:69
bfc09e38:	3c02bfeb 	lui	v0,0xbfeb
bfc09e3c:	3443003c 	ori	v1,v0,0x3c
bfc09e40:	3c020002 	lui	v0,0x2
bfc09e44:	ac620000 	sw	v0,0(v1)
D:\loongson\works\ls1d-mylib\lib\func/Interrupt.c:71
bfc09e48:	3c02a000 	lui	v0,0xa000
bfc09e4c:	24431150 	addiu	v1,v0,4432
bfc09e50:	8c6200dc 	lw	v0,220(v1)
bfc09e54:	34420008 	ori	v0,v0,0x8
bfc09e58:	ac6200dc 	sw	v0,220(v1)
D:\loongson\works\ls1d-mylib\lib\func/Interrupt.c:72
bfc09e5c:	03c0e821 	move	sp,s8
bfc09e60:	8fbe0004 	lw	s8,4(sp)
bfc09e64:	27bd0008 	addiu	sp,sp,8
bfc09e68:	03e00008 	jr	ra
bfc09e6c:	00000000 	nop

bfc09e70 <BAT_FAIL>:
BAT_FAIL():
D:\loongson\works\ls1d-mylib\lib\func/Interrupt.c:74
bfc09e70:	27bdffe8 	addiu	sp,sp,-24
bfc09e74:	afbf0014 	sw	ra,20(sp)
bfc09e78:	afbe0010 	sw	s8,16(sp)
bfc09e7c:	03a0f021 	move	s8,sp
D:\loongson\works\ls1d-mylib\lib\func/Interrupt.c:76
bfc09e80:	3c02bfeb 	lui	v0,0xbfeb
bfc09e84:	3443007c 	ori	v1,v0,0x7c
bfc09e88:	3c02cf21 	lui	v0,0xcf21
bfc09e8c:	34426e95 	ori	v0,v0,0x6e95
bfc09e90:	ac620000 	sw	v0,0(v1)
D:\loongson\works\ls1d-mylib\lib\func/Interrupt.c:77
bfc09e94:	3c02bfeb 	lui	v0,0xbfeb
bfc09e98:	3443003c 	ori	v1,v0,0x3c
bfc09e9c:	3c020004 	lui	v0,0x4
bfc09ea0:	ac620000 	sw	v0,0(v1)
D:\loongson\works\ls1d-mylib\lib\func/Interrupt.c:79
bfc09ea4:	3c02a000 	lui	v0,0xa000
bfc09ea8:	24421150 	addiu	v0,v0,4432
bfc09eac:	8c5900ec 	lw	t9,236(v0)
bfc09eb0:	0320f809 	jalr	t9
bfc09eb4:	00000000 	nop
D:\loongson\works\ls1d-mylib\lib\func/Interrupt.c:80
bfc09eb8:	03c0e821 	move	sp,s8
bfc09ebc:	8fbf0014 	lw	ra,20(sp)
bfc09ec0:	8fbe0010 	lw	s8,16(sp)
bfc09ec4:	27bd0018 	addiu	sp,sp,24
bfc09ec8:	03e00008 	jr	ra
bfc09ecc:	00000000 	nop

bfc09ed0 <RES_VALID>:
RES_VALID():
D:\loongson\works\ls1d-mylib\lib\func/Interrupt.c:82
bfc09ed0:	27bdffe8 	addiu	sp,sp,-24
bfc09ed4:	afbf0014 	sw	ra,20(sp)
bfc09ed8:	afbe0010 	sw	s8,16(sp)
bfc09edc:	03a0f021 	move	s8,sp
D:\loongson\works\ls1d-mylib\lib\func/Interrupt.c:84
bfc09ee0:	3c02bfeb 	lui	v0,0xbfeb
bfc09ee4:	3443007c 	ori	v1,v0,0x7c
bfc09ee8:	3c02cf21 	lui	v0,0xcf21
bfc09eec:	34426e95 	ori	v0,v0,0x6e95
bfc09ef0:	ac620000 	sw	v0,0(v1)
D:\loongson\works\ls1d-mylib\lib\func/Interrupt.c:86
bfc09ef4:	3c02bfeb 	lui	v0,0xbfeb
bfc09ef8:	3443003c 	ori	v1,v0,0x3c
bfc09efc:	3c020008 	lui	v0,0x8
bfc09f00:	ac620000 	sw	v0,0(v1)
D:\loongson\works\ls1d-mylib\lib\func/Interrupt.c:87
bfc09f04:	3c02bfc1 	lui	v0,0xbfc1
bfc09f08:	24599414 	addiu	t9,v0,-27628
bfc09f0c:	0320f809 	jalr	t9
bfc09f10:	00000000 	nop
D:\loongson\works\ls1d-mylib\lib\func/Interrupt.c:89
bfc09f14:	3c02a000 	lui	v0,0xa000
bfc09f18:	24431150 	addiu	v1,v0,4432
bfc09f1c:	8c6200dc 	lw	v0,220(v1)
bfc09f20:	34420010 	ori	v0,v0,0x10
bfc09f24:	ac6200dc 	sw	v0,220(v1)
D:\loongson\works\ls1d-mylib\lib\func/Interrupt.c:90
bfc09f28:	03c0e821 	move	sp,s8
bfc09f2c:	8fbf0014 	lw	ra,20(sp)
bfc09f30:	8fbe0010 	lw	s8,16(sp)
bfc09f34:	27bd0018 	addiu	sp,sp,24
bfc09f38:	03e00008 	jr	ra
bfc09f3c:	00000000 	nop

bfc09f40 <INTC>:
INTC():
D:\loongson\works\ls1d-mylib\lib\func/Interrupt.c:92
bfc09f40:	27bdffe0 	addiu	sp,sp,-32
bfc09f44:	afbf001c 	sw	ra,28(sp)
bfc09f48:	afbe0018 	sw	s8,24(sp)
bfc09f4c:	03a0f021 	move	s8,sp
D:\loongson\works\ls1d-mylib\lib\func/Interrupt.c:93
bfc09f50:	3c02bfea 	lui	v0,0xbfea
bfc09f54:	34420005 	ori	v0,v0,0x5
bfc09f58:	90420000 	lbu	v0,0(v0)
bfc09f5c:	a3c20012 	sb	v0,18(s8)
D:\loongson\works\ls1d-mylib\lib\func/Interrupt.c:94
bfc09f60:	93c30012 	lbu	v1,18(s8)
bfc09f64:	3c02bfc1 	lui	v0,0xbfc1
bfc09f68:	2444d640 	addiu	a0,v0,-10688
bfc09f6c:	00602821 	move	a1,v1
bfc09f70:	3c02bfc1 	lui	v0,0xbfc1
bfc09f74:	2459be10 	addiu	t9,v0,-16880
bfc09f78:	0320f809 	jalr	t9
bfc09f7c:	00000000 	nop
D:\loongson\works\ls1d-mylib\lib\func/Interrupt.c:95
bfc09f80:	93c20012 	lbu	v0,18(s8)
bfc09f84:	30420001 	andi	v0,v0,0x1
bfc09f88:	304200ff 	andi	v0,v0,0xff
bfc09f8c:	1040000a 	beqz	v0,bfc09fb8 <INTC+0x78>
bfc09f90:	00000000 	nop
D:\loongson\works\ls1d-mylib\lib\func/Interrupt.c:99
bfc09f94:	3c02bfea 	lui	v0,0xbfea
bfc09f98:	34430003 	ori	v1,v0,0x3
bfc09f9c:	3c02bfea 	lui	v0,0xbfea
bfc09fa0:	34420003 	ori	v0,v0,0x3
bfc09fa4:	90420000 	lbu	v0,0(v0)
bfc09fa8:	304200ff 	andi	v0,v0,0xff
bfc09fac:	34420001 	ori	v0,v0,0x1
bfc09fb0:	304200ff 	andi	v0,v0,0xff
bfc09fb4:	a0620000 	sb	v0,0(v1)
D:\loongson\works\ls1d-mylib\lib\func/Interrupt.c:101
bfc09fb8:	93c20012 	lbu	v0,18(s8)
bfc09fbc:	30420002 	andi	v0,v0,0x2
bfc09fc0:	1040000f 	beqz	v0,bfc0a000 <INTC+0xc0>
bfc09fc4:	00000000 	nop
D:\loongson\works\ls1d-mylib\lib\func/Interrupt.c:104
bfc09fc8:	3c02a000 	lui	v0,0xa000
bfc09fcc:	24421150 	addiu	v0,v0,4432
bfc09fd0:	8c5900f0 	lw	t9,240(v0)
bfc09fd4:	0320f809 	jalr	t9
bfc09fd8:	00000000 	nop
D:\loongson\works\ls1d-mylib\lib\func/Interrupt.c:105
bfc09fdc:	3c02bfea 	lui	v0,0xbfea
bfc09fe0:	34430003 	ori	v1,v0,0x3
bfc09fe4:	3c02bfea 	lui	v0,0xbfea
bfc09fe8:	34420003 	ori	v0,v0,0x3
bfc09fec:	90420000 	lbu	v0,0(v0)
bfc09ff0:	304200ff 	andi	v0,v0,0xff
bfc09ff4:	34420002 	ori	v0,v0,0x2
bfc09ff8:	304200ff 	andi	v0,v0,0xff
bfc09ffc:	a0620000 	sb	v0,0(v1)
D:\loongson\works\ls1d-mylib\lib\func/Interrupt.c:107
bfc0a000:	93c20012 	lbu	v0,18(s8)
bfc0a004:	30420004 	andi	v0,v0,0x4
bfc0a008:	10400020 	beqz	v0,bfc0a08c <INTC+0x14c>
bfc0a00c:	00000000 	nop
D:\loongson\works\ls1d-mylib\lib\func/Interrupt.c:111
bfc0a010:	3c02bfe8 	lui	v0,0xbfe8
bfc0a014:	34428002 	ori	v0,v0,0x8002
bfc0a018:	90420000 	lbu	v0,0(v0)
bfc0a01c:	a3c20011 	sb	v0,17(s8)
D:\loongson\works\ls1d-mylib\lib\func/Interrupt.c:113
bfc0a020:	93c20011 	lbu	v0,17(s8)
bfc0a024:	30420002 	andi	v0,v0,0x2
bfc0a028:	1440000f 	bnez	v0,bfc0a068 <INTC+0x128>
bfc0a02c:	00000000 	nop
D:\loongson\works\ls1d-mylib\lib\func/Interrupt.c:115
bfc0a030:	93c20011 	lbu	v0,17(s8)
bfc0a034:	30420004 	andi	v0,v0,0x4
bfc0a038:	1040000b 	beqz	v0,bfc0a068 <INTC+0x128>
bfc0a03c:	00000000 	nop
D:\loongson\works\ls1d-mylib\lib\func/Interrupt.c:116
bfc0a040:	3c02a000 	lui	v0,0xa000
bfc0a044:	24421150 	addiu	v0,v0,4432
bfc0a048:	8c5900f4 	lw	t9,244(v0)
bfc0a04c:	3c02a000 	lui	v0,0xa000
bfc0a050:	24421150 	addiu	v0,v0,4432
bfc0a054:	8c420104 	lw	v0,260(v0)
bfc0a058:	00402021 	move	a0,v0
bfc0a05c:	24050001 	li	a1,1
bfc0a060:	0320f809 	jalr	t9
bfc0a064:	00000000 	nop
D:\loongson\works\ls1d-mylib\lib\func/Interrupt.c:118
bfc0a068:	3c02bfea 	lui	v0,0xbfea
bfc0a06c:	34430003 	ori	v1,v0,0x3
bfc0a070:	3c02bfea 	lui	v0,0xbfea
bfc0a074:	34420003 	ori	v0,v0,0x3
bfc0a078:	90420000 	lbu	v0,0(v0)
bfc0a07c:	304200ff 	andi	v0,v0,0xff
bfc0a080:	34420004 	ori	v0,v0,0x4
bfc0a084:	304200ff 	andi	v0,v0,0xff
bfc0a088:	a0620000 	sb	v0,0(v1)
D:\loongson\works\ls1d-mylib\lib\func/Interrupt.c:120
bfc0a08c:	93c20012 	lbu	v0,18(s8)
bfc0a090:	30420008 	andi	v0,v0,0x8
bfc0a094:	10400020 	beqz	v0,bfc0a118 <INTC+0x1d8>
bfc0a098:	00000000 	nop
D:\loongson\works\ls1d-mylib\lib\func/Interrupt.c:124
bfc0a09c:	3c02bfe8 	lui	v0,0xbfe8
bfc0a0a0:	34420002 	ori	v0,v0,0x2
bfc0a0a4:	90420000 	lbu	v0,0(v0)
bfc0a0a8:	a3c20010 	sb	v0,16(s8)
D:\loongson\works\ls1d-mylib\lib\func/Interrupt.c:126
bfc0a0ac:	93c20010 	lbu	v0,16(s8)
bfc0a0b0:	30420002 	andi	v0,v0,0x2
bfc0a0b4:	1440000f 	bnez	v0,bfc0a0f4 <INTC+0x1b4>
bfc0a0b8:	00000000 	nop
D:\loongson\works\ls1d-mylib\lib\func/Interrupt.c:128
bfc0a0bc:	93c20010 	lbu	v0,16(s8)
bfc0a0c0:	30420004 	andi	v0,v0,0x4
bfc0a0c4:	1040000b 	beqz	v0,bfc0a0f4 <INTC+0x1b4>
bfc0a0c8:	00000000 	nop
D:\loongson\works\ls1d-mylib\lib\func/Interrupt.c:129
bfc0a0cc:	3c02a000 	lui	v0,0xa000
bfc0a0d0:	24421150 	addiu	v0,v0,4432
bfc0a0d4:	8c5900f4 	lw	t9,244(v0)
bfc0a0d8:	3c02a000 	lui	v0,0xa000
bfc0a0dc:	24421150 	addiu	v0,v0,4432
bfc0a0e0:	8c420104 	lw	v0,260(v0)
bfc0a0e4:	00402021 	move	a0,v0
bfc0a0e8:	00002821 	move	a1,zero
bfc0a0ec:	0320f809 	jalr	t9
bfc0a0f0:	00000000 	nop
D:\loongson\works\ls1d-mylib\lib\func/Interrupt.c:132
bfc0a0f4:	3c02bfea 	lui	v0,0xbfea
bfc0a0f8:	34430003 	ori	v1,v0,0x3
bfc0a0fc:	3c02bfea 	lui	v0,0xbfea
bfc0a100:	34420003 	ori	v0,v0,0x3
bfc0a104:	90420000 	lbu	v0,0(v0)
bfc0a108:	304200ff 	andi	v0,v0,0xff
bfc0a10c:	34420008 	ori	v0,v0,0x8
bfc0a110:	304200ff 	andi	v0,v0,0xff
bfc0a114:	a0620000 	sb	v0,0(v1)
D:\loongson\works\ls1d-mylib\lib\func/Interrupt.c:134
bfc0a118:	93c20012 	lbu	v0,18(s8)
bfc0a11c:	30420010 	andi	v0,v0,0x10
bfc0a120:	1040000a 	beqz	v0,bfc0a14c <INTC+0x20c>
bfc0a124:	00000000 	nop
D:\loongson\works\ls1d-mylib\lib\func/Interrupt.c:138
bfc0a128:	3c02bfea 	lui	v0,0xbfea
bfc0a12c:	34430003 	ori	v1,v0,0x3
bfc0a130:	3c02bfea 	lui	v0,0xbfea
bfc0a134:	34420003 	ori	v0,v0,0x3
bfc0a138:	90420000 	lbu	v0,0(v0)
bfc0a13c:	304200ff 	andi	v0,v0,0xff
bfc0a140:	34420010 	ori	v0,v0,0x10
bfc0a144:	304200ff 	andi	v0,v0,0xff
bfc0a148:	a0620000 	sb	v0,0(v1)
D:\loongson\works\ls1d-mylib\lib\func/Interrupt.c:140
bfc0a14c:	93c20012 	lbu	v0,18(s8)
bfc0a150:	30420020 	andi	v0,v0,0x20
bfc0a154:	1040000a 	beqz	v0,bfc0a180 <INTC+0x240>
bfc0a158:	00000000 	nop
D:\loongson\works\ls1d-mylib\lib\func/Interrupt.c:144
bfc0a15c:	3c02bfea 	lui	v0,0xbfea
bfc0a160:	34430003 	ori	v1,v0,0x3
bfc0a164:	3c02bfea 	lui	v0,0xbfea
bfc0a168:	34420003 	ori	v0,v0,0x3
bfc0a16c:	90420000 	lbu	v0,0(v0)
bfc0a170:	304200ff 	andi	v0,v0,0xff
bfc0a174:	34420020 	ori	v0,v0,0x20
bfc0a178:	304200ff 	andi	v0,v0,0xff
bfc0a17c:	a0620000 	sb	v0,0(v1)
D:\loongson\works\ls1d-mylib\lib\func/Interrupt.c:147
bfc0a180:	03c0e821 	move	sp,s8
bfc0a184:	8fbf001c 	lw	ra,28(sp)
bfc0a188:	8fbe0018 	lw	s8,24(sp)
bfc0a18c:	27bd0020 	addiu	sp,sp,32
bfc0a190:	03e00008 	jr	ra
bfc0a194:	00000000 	nop

bfc0a198 <EXINT>:
EXINT():
D:\loongson\works\ls1d-mylib\lib\func/Interrupt.c:149
bfc0a198:	27bdffe8 	addiu	sp,sp,-24
bfc0a19c:	afbf0014 	sw	ra,20(sp)
bfc0a1a0:	afbe0010 	sw	s8,16(sp)
bfc0a1a4:	03a0f021 	move	s8,sp
D:\loongson\works\ls1d-mylib\lib\func/Interrupt.c:150
bfc0a1a8:	3c02a000 	lui	v0,0xa000
bfc0a1ac:	24421150 	addiu	v0,v0,4432
bfc0a1b0:	8c5900f8 	lw	t9,248(v0)
bfc0a1b4:	0320f809 	jalr	t9
bfc0a1b8:	00000000 	nop
D:\loongson\works\ls1d-mylib\lib\func/Interrupt.c:151
bfc0a1bc:	03c0e821 	move	sp,s8
bfc0a1c0:	8fbf0014 	lw	ra,20(sp)
bfc0a1c4:	8fbe0010 	lw	s8,16(sp)
bfc0a1c8:	27bd0018 	addiu	sp,sp,24
bfc0a1cc:	03e00008 	jr	ra
bfc0a1d0:	00000000 	nop

bfc0a1d4 <Schedule>:
Schedule():
D:\loongson\works\ls1d-mylib\lib\func/Interrupt.c:154
bfc0a1d4:	27bdffe8 	addiu	sp,sp,-24
bfc0a1d8:	afbf0014 	sw	ra,20(sp)
bfc0a1dc:	afbe0010 	sw	s8,16(sp)
bfc0a1e0:	03a0f021 	move	s8,sp
D:\loongson\works\ls1d-mylib\lib\func/Interrupt.c:155
bfc0a1e4:	3c02bfeb 	lui	v0,0xbfeb
bfc0a1e8:	3442000c 	ori	v0,v0,0xc
bfc0a1ec:	8c430000 	lw	v1,0(v0)
bfc0a1f0:	3c02f800 	lui	v0,0xf800
bfc0a1f4:	00621024 	and	v0,v1,v0
bfc0a1f8:	1040000b 	beqz	v0,bfc0a228 <Schedule+0x54>
bfc0a1fc:	00000000 	nop
D:\loongson\works\ls1d-mylib\lib\func/Interrupt.c:156
bfc0a200:	3c02a000 	lui	v0,0xa000
bfc0a204:	24421150 	addiu	v0,v0,4432
bfc0a208:	8c4200e8 	lw	v0,232(v0)
bfc0a20c:	10400006 	beqz	v0,bfc0a228 <Schedule+0x54>
bfc0a210:	00000000 	nop
D:\loongson\works\ls1d-mylib\lib\func/Interrupt.c:157
bfc0a214:	3c02a000 	lui	v0,0xa000
bfc0a218:	24421150 	addiu	v0,v0,4432
bfc0a21c:	8c5900e8 	lw	t9,232(v0)
bfc0a220:	0320f809 	jalr	t9
bfc0a224:	00000000 	nop
D:\loongson\works\ls1d-mylib\lib\func/Interrupt.c:158
bfc0a228:	03c0e821 	move	sp,s8
bfc0a22c:	8fbf0014 	lw	ra,20(sp)
bfc0a230:	8fbe0010 	lw	s8,16(sp)
bfc0a234:	27bd0018 	addiu	sp,sp,24
bfc0a238:	03e00008 	jr	ra
bfc0a23c:	00000000 	nop

bfc0a240 <IRQ_Exception>:
IRQ_Exception():
D:\loongson\works\ls1d-mylib\lib\func/Interrupt.c:165
bfc0a240:	27bdffd8 	addiu	sp,sp,-40
bfc0a244:	afbf0024 	sw	ra,36(sp)
bfc0a248:	afbe0020 	sw	s8,32(sp)
bfc0a24c:	03a0f021 	move	s8,sp
D:\loongson\works\ls1d-mylib\lib\func/Interrupt.c:166
bfc0a250:	afc00018 	sw	zero,24(s8)
D:\loongson\works\ls1d-mylib\lib\func/Interrupt.c:167
bfc0a254:	40026800 	mfc0	v0,c0_cause
bfc0a258:	afc20018 	sw	v0,24(s8)
D:\loongson\works\ls1d-mylib\lib\func/Interrupt.c:171
bfc0a25c:	24020008 	li	v0,8
bfc0a260:	0bf028af 	j	bfc0a2bc <IRQ_Exception+0x7c>
bfc0a264:	afc20014 	sw	v0,20(s8)
D:\loongson\works\ls1d-mylib\lib\func/Interrupt.c:173
bfc0a268:	8fc30014 	lw	v1,20(s8)
bfc0a26c:	8fc20018 	lw	v0,24(s8)
bfc0a270:	00621006 	srlv	v0,v0,v1
bfc0a274:	30420001 	andi	v0,v0,0x1
bfc0a278:	304200ff 	andi	v0,v0,0xff
bfc0a27c:	1040000c 	beqz	v0,bfc0a2b0 <IRQ_Exception+0x70>
bfc0a280:	00000000 	nop
D:\loongson\works\ls1d-mylib\lib\func/Interrupt.c:175
bfc0a284:	8fc20014 	lw	v0,20(s8)
bfc0a288:	2442fff8 	addiu	v0,v0,-8
bfc0a28c:	3c03bfc1 	lui	v1,0xbfc1
bfc0a290:	00022080 	sll	a0,v0,0x2
bfc0a294:	2462da00 	addiu	v0,v1,-9728
bfc0a298:	00821021 	addu	v0,a0,v0
bfc0a29c:	8c420000 	lw	v0,0(v0)
bfc0a2a0:	afc20010 	sw	v0,16(s8)
D:\loongson\works\ls1d-mylib\lib\func/Interrupt.c:176
bfc0a2a4:	8fd90010 	lw	t9,16(s8)
bfc0a2a8:	0320f809 	jalr	t9
bfc0a2ac:	00000000 	nop
D:\loongson\works\ls1d-mylib\lib\func/Interrupt.c:171
bfc0a2b0:	8fc20014 	lw	v0,20(s8)
bfc0a2b4:	24420001 	addiu	v0,v0,1
bfc0a2b8:	afc20014 	sw	v0,20(s8)
bfc0a2bc:	8fc20014 	lw	v0,20(s8)
bfc0a2c0:	2c420010 	sltiu	v0,v0,16
bfc0a2c4:	1440ffe8 	bnez	v0,bfc0a268 <IRQ_Exception+0x28>
bfc0a2c8:	00000000 	nop
D:\loongson\works\ls1d-mylib\lib\func/Interrupt.c:180
bfc0a2cc:	0ff02875 	jal	bfc0a1d4 <Schedule>
bfc0a2d0:	00000000 	nop
D:\loongson\works\ls1d-mylib\lib\func/Interrupt.c:181
bfc0a2d4:	03c0e821 	move	sp,s8
bfc0a2d8:	8fbf0024 	lw	ra,36(sp)
bfc0a2dc:	8fbe0020 	lw	s8,32(sp)
bfc0a2e0:	03e00008 	jr	ra
bfc0a2e4:	27bd0028 	addiu	sp,sp,40

bfc0a2e8 <ls1d_waker_init>:
ls1d_waker_init():
D:\loongson\works\ls1d-mylib\lib\func/Interrupt.c:185
bfc0a2e8:	27bdfff0 	addiu	sp,sp,-16
bfc0a2ec:	afbe000c 	sw	s8,12(sp)
bfc0a2f0:	03a0f021 	move	s8,sp
bfc0a2f4:	afc40010 	sw	a0,16(s8)
D:\loongson\works\ls1d-mylib\lib\func/Interrupt.c:187
bfc0a2f8:	40086000 	mfc0	t0,c0_status
bfc0a2fc:	3c09ffff 	lui	t1,0xffff
bfc0a300:	352900fe 	ori	t1,t1,0xfe
bfc0a304:	01095024 	and	t2,t0,t1
bfc0a308:	408a6000 	mtc0	t2,c0_status
D:\loongson\works\ls1d-mylib\lib\func/Interrupt.c:188
bfc0a30c:	3c02bfeb 	lui	v0,0xbfeb
bfc0a310:	3443007c 	ori	v1,v0,0x7c
bfc0a314:	3c02cf21 	lui	v0,0xcf21
bfc0a318:	34426e95 	ori	v0,v0,0x6e95
bfc0a31c:	ac620000 	sw	v0,0(v1)
D:\loongson\works\ls1d-mylib\lib\func/Interrupt.c:189
bfc0a320:	3c02bfeb 	lui	v0,0xbfeb
bfc0a324:	34430004 	ori	v1,v0,0x4
bfc0a328:	3c02bfeb 	lui	v0,0xbfeb
bfc0a32c:	34420004 	ori	v0,v0,0x4
bfc0a330:	8c420000 	lw	v0,0(v0)
bfc0a334:	34421100 	ori	v0,v0,0x1100
bfc0a338:	ac620000 	sw	v0,0(v1)
D:\loongson\works\ls1d-mylib\lib\func/Interrupt.c:190
bfc0a33c:	40086000 	mfc0	t0,c0_status
bfc0a340:	3c09ffff 	lui	t1,0xffff
bfc0a344:	352900fe 	ori	t1,t1,0xfe
bfc0a348:	01095024 	and	t2,t0,t1
bfc0a34c:	3409ff01 	li	t1,0xff01
bfc0a350:	01494025 	or	t0,t2,t1
bfc0a354:	40886000 	mtc0	t0,c0_status
D:\loongson\works\ls1d-mylib\lib\func/Interrupt.c:192
bfc0a358:	3c02bfeb 	lui	v0,0xbfeb
bfc0a35c:	3442001c 	ori	v0,v0,0x1c
bfc0a360:	8c420000 	lw	v0,0(v0)
bfc0a364:	afc20000 	sw	v0,0(s8)
D:\loongson\works\ls1d-mylib\lib\func/Interrupt.c:193
bfc0a368:	8fc30000 	lw	v1,0(s8)
bfc0a36c:	3c02000f 	lui	v0,0xf
bfc0a370:	3442ffff 	ori	v0,v0,0xffff
bfc0a374:	00621024 	and	v0,v1,v0
bfc0a378:	afc20000 	sw	v0,0(s8)
D:\loongson\works\ls1d-mylib\lib\func/Interrupt.c:194
bfc0a37c:	3c02bfeb 	lui	v0,0xbfeb
bfc0a380:	34440008 	ori	a0,v0,0x8
bfc0a384:	8fc30000 	lw	v1,0(s8)
bfc0a388:	8fc20010 	lw	v0,16(s8)
bfc0a38c:	00621021 	addu	v0,v1,v0
bfc0a390:	ac820000 	sw	v0,0(a0)
D:\loongson\works\ls1d-mylib\lib\func/Interrupt.c:196
bfc0a394:	3c02a000 	lui	v0,0xa000
bfc0a398:	24431150 	addiu	v1,v0,4432
bfc0a39c:	8fc20010 	lw	v0,16(s8)
bfc0a3a0:	ac6200e0 	sw	v0,224(v1)
D:\loongson\works\ls1d-mylib\lib\func/Interrupt.c:197
bfc0a3a4:	03c0e821 	move	sp,s8
bfc0a3a8:	8fbe000c 	lw	s8,12(sp)
bfc0a3ac:	03e00008 	jr	ra
bfc0a3b0:	27bd0010 	addiu	sp,sp,16

bfc0a3b4 <ls1d_timer_init>:
ls1d_timer_init():
D:\loongson\works\ls1d-mylib\lib\func/Interrupt.c:200
bfc0a3b4:	27bdfff8 	addiu	sp,sp,-8
bfc0a3b8:	afbe0004 	sw	s8,4(sp)
bfc0a3bc:	03a0f021 	move	s8,sp
bfc0a3c0:	afc40008 	sw	a0,8(s8)
D:\loongson\works\ls1d-mylib\lib\func/Interrupt.c:201
bfc0a3c4:	8fc20008 	lw	v0,8(s8)
bfc0a3c8:	40084800 	mfc0	t0,c0_count
bfc0a3cc:	00404821 	move	t1,v0
bfc0a3d0:	01094820 	add	t1,t0,t1
bfc0a3d4:	40895800 	mtc0	t1,c0_compare
bfc0a3d8:	40086800 	mfc0	t0,c0_cause
bfc0a3dc:	3c09f7ff 	lui	t1,0xf7ff
bfc0a3e0:	3529ffff 	ori	t1,t1,0xffff
bfc0a3e4:	01094024 	and	t0,t0,t1
bfc0a3e8:	40886800 	mtc0	t0,c0_cause
D:\loongson\works\ls1d-mylib\lib\func/Interrupt.c:215
bfc0a3ec:	3c02a000 	lui	v0,0xa000
bfc0a3f0:	24431150 	addiu	v1,v0,4432
bfc0a3f4:	8fc20008 	lw	v0,8(s8)
bfc0a3f8:	ac6200e4 	sw	v0,228(v1)
D:\loongson\works\ls1d-mylib\lib\func/Interrupt.c:216
bfc0a3fc:	03c0e821 	move	sp,s8
bfc0a400:	8fbe0004 	lw	s8,4(sp)
bfc0a404:	03e00008 	jr	ra
bfc0a408:	27bd0008 	addiu	sp,sp,8

bfc0a40c <ls1d_disable_timer>:
ls1d_disable_timer():
D:\loongson\works\ls1d-mylib\lib\func/Interrupt.c:220
bfc0a40c:	27bdfff8 	addiu	sp,sp,-8
bfc0a410:	afbe0004 	sw	s8,4(sp)
bfc0a414:	03a0f021 	move	s8,sp
D:\loongson\works\ls1d-mylib\lib\func/Interrupt.c:222
bfc0a418:	40086000 	mfc0	t0,c0_status
bfc0a41c:	3c09ffff 	lui	t1,0xffff
bfc0a420:	352900fe 	ori	t1,t1,0xfe
bfc0a424:	01095024 	and	t2,t0,t1
bfc0a428:	408a6000 	mtc0	t2,c0_status
D:\loongson\works\ls1d-mylib\lib\func/Interrupt.c:223
bfc0a42c:	3c02bfeb 	lui	v0,0xbfeb
bfc0a430:	3443007c 	ori	v1,v0,0x7c
bfc0a434:	3c02cf21 	lui	v0,0xcf21
bfc0a438:	34426e95 	ori	v0,v0,0x6e95
bfc0a43c:	ac620000 	sw	v0,0(v1)
D:\loongson\works\ls1d-mylib\lib\func/Interrupt.c:224
bfc0a440:	3c02bfeb 	lui	v0,0xbfeb
bfc0a444:	34440004 	ori	a0,v0,0x4
bfc0a448:	3c02bfeb 	lui	v0,0xbfeb
bfc0a44c:	34420004 	ori	v0,v0,0x4
bfc0a450:	8c430000 	lw	v1,0(v0)
bfc0a454:	2402eeff 	li	v0,-4353
bfc0a458:	00621024 	and	v0,v1,v0
bfc0a45c:	ac820000 	sw	v0,0(a0)
D:\loongson\works\ls1d-mylib\lib\func/Interrupt.c:225
bfc0a460:	40086000 	mfc0	t0,c0_status
bfc0a464:	3c09ffff 	lui	t1,0xffff
bfc0a468:	352900fe 	ori	t1,t1,0xfe
bfc0a46c:	01095024 	and	t2,t0,t1
bfc0a470:	3409ff01 	li	t1,0xff01
bfc0a474:	01494025 	or	t0,t2,t1
bfc0a478:	40886000 	mtc0	t0,c0_status
D:\loongson\works\ls1d-mylib\lib\func/Interrupt.c:228
bfc0a47c:	40086800 	mfc0	t0,c0_cause
bfc0a480:	3c090800 	lui	t1,0x800
bfc0a484:	01094025 	or	t0,t0,t1
bfc0a488:	40886800 	mtc0	t0,c0_cause
D:\loongson\works\ls1d-mylib\lib\func/Interrupt.c:237
bfc0a48c:	03c0e821 	move	sp,s8
bfc0a490:	8fbe0004 	lw	s8,4(sp)
bfc0a494:	03e00008 	jr	ra
bfc0a498:	27bd0008 	addiu	sp,sp,8

bfc0a49c <ls1d_set_soft_int>:
ls1d_set_soft_int():
D:\loongson\works\ls1d-mylib\lib\func/Interrupt.c:240
bfc0a49c:	27bdfff8 	addiu	sp,sp,-8
bfc0a4a0:	afbe0004 	sw	s8,4(sp)
bfc0a4a4:	03a0f021 	move	s8,sp
D:\loongson\works\ls1d-mylib\lib\func/Interrupt.c:241
bfc0a4a8:	40086800 	mfc0	t0,c0_cause
bfc0a4ac:	24090100 	li	t1,256
bfc0a4b0:	01094825 	or	t1,t0,t1
bfc0a4b4:	40896800 	mtc0	t1,c0_cause
D:\loongson\works\ls1d-mylib\lib\func/Interrupt.c:249
bfc0a4b8:	03c0e821 	move	sp,s8
bfc0a4bc:	8fbe0004 	lw	s8,4(sp)
bfc0a4c0:	03e00008 	jr	ra
bfc0a4c4:	27bd0008 	addiu	sp,sp,8
bfc0a4c8:	00000000 	nop
bfc0a4cc:	00000000 	nop

bfc0a4d0 <ls1d_sleep>:
ls1d_sleep():
D:\loongson\works\ls1d-mylib\lib\func/sleep.c:11
bfc0a4d0:	27bdfff8 	addiu	sp,sp,-8
bfc0a4d4:	afbe0004 	sw	s8,4(sp)
bfc0a4d8:	03a0f021 	move	s8,sp
bfc0a4dc:	afc40008 	sw	a0,8(s8)
bfc0a4e0:	afc5000c 	sw	a1,12(s8)
bfc0a4e4:	afc60010 	sw	a2,16(s8)
D:\loongson\works\ls1d-mylib\lib\func/sleep.c:13
bfc0a4e8:	40086000 	mfc0	t0,c0_status
bfc0a4ec:	3c09ffff 	lui	t1,0xffff
bfc0a4f0:	352900fe 	ori	t1,t1,0xfe
bfc0a4f4:	01095024 	and	t2,t0,t1
bfc0a4f8:	408a6000 	mtc0	t2,c0_status
D:\loongson\works\ls1d-mylib\lib\func/sleep.c:14
bfc0a4fc:	3c02bfeb 	lui	v0,0xbfeb
bfc0a500:	3443007c 	ori	v1,v0,0x7c
bfc0a504:	3c0215da 	lui	v0,0x15da
bfc0a508:	3442ed27 	ori	v0,v0,0xed27
bfc0a50c:	ac620000 	sw	v0,0(v1)
D:\loongson\works\ls1d-mylib\lib\func/sleep.c:15
bfc0a510:	3c02bfeb 	lui	v0,0xbfeb
bfc0a514:	3443000c 	ori	v1,v0,0xc
bfc0a518:	8fc20008 	lw	v0,8(s8)
bfc0a51c:	ac620000 	sw	v0,0(v1)
D:\loongson\works\ls1d-mylib\lib\func/sleep.c:16
bfc0a520:	40086000 	mfc0	t0,c0_status
bfc0a524:	3c09ffff 	lui	t1,0xffff
bfc0a528:	352900fe 	ori	t1,t1,0xfe
bfc0a52c:	01095024 	and	t2,t0,t1
bfc0a530:	3409ff01 	li	t1,0xff01
bfc0a534:	01494025 	or	t0,t2,t1
bfc0a538:	40886000 	mtc0	t0,c0_status
D:\loongson\works\ls1d-mylib\lib\func/sleep.c:18
bfc0a53c:	3c02bfeb 	lui	v0,0xbfeb
bfc0a540:	34420048 	ori	v0,v0,0x48
bfc0a544:	ac400000 	sw	zero,0(v0)
D:\loongson\works\ls1d-mylib\lib\func/sleep.c:19
bfc0a548:	3c02bfeb 	lui	v0,0xbfeb
bfc0a54c:	3442004c 	ori	v0,v0,0x4c
bfc0a550:	ac400000 	sw	zero,0(v0)
D:\loongson\works\ls1d-mylib\lib\func/sleep.c:21
bfc0a554:	3c02bfeb 	lui	v0,0xbfeb
bfc0a558:	34430010 	ori	v1,v0,0x10
bfc0a55c:	8fc2000c 	lw	v0,12(s8)
bfc0a560:	ac620000 	sw	v0,0(v1)
D:\loongson\works\ls1d-mylib\lib\func/sleep.c:22
bfc0a564:	3c02bfeb 	lui	v0,0xbfeb
bfc0a568:	34430014 	ori	v1,v0,0x14
bfc0a56c:	8fc20010 	lw	v0,16(s8)
bfc0a570:	ac620000 	sw	v0,0(v1)
D:\loongson\works\ls1d-mylib\lib\func/sleep.c:24
bfc0a574:	3c02bfeb 	lui	v0,0xbfeb
bfc0a578:	3443007c 	ori	v1,v0,0x7c
bfc0a57c:	3c02cf21 	lui	v0,0xcf21
bfc0a580:	34426e95 	ori	v0,v0,0x6e95
bfc0a584:	ac620000 	sw	v0,0(v1)
D:\loongson\works\ls1d-mylib\lib\func/sleep.c:25
bfc0a588:	3c02bfeb 	lui	v0,0xbfeb
bfc0a58c:	3443003c 	ori	v1,v0,0x3c
bfc0a590:	24020001 	li	v0,1
bfc0a594:	ac620000 	sw	v0,0(v1)
D:\loongson\works\ls1d-mylib\lib\func/sleep.c:26
bfc0a598:	03c0e821 	move	sp,s8
bfc0a59c:	8fbe0004 	lw	s8,4(sp)
bfc0a5a0:	03e00008 	jr	ra
bfc0a5a4:	27bd0008 	addiu	sp,sp,8

bfc0a5a8 <Check_Data>:
Check_Data():
D:\loongson\works\ls1d-mylib\lib\func/sleep.c:29
bfc0a5a8:	27bdfff8 	addiu	sp,sp,-8
bfc0a5ac:	afbe0004 	sw	s8,4(sp)
bfc0a5b0:	03a0f021 	move	s8,sp
D:\loongson\works\ls1d-mylib\lib\func/sleep.c:31
bfc0a5b4:	03c0e821 	move	sp,s8
bfc0a5b8:	8fbe0004 	lw	s8,4(sp)
bfc0a5bc:	27bd0008 	addiu	sp,sp,8
bfc0a5c0:	03e00008 	jr	ra
bfc0a5c4:	00000000 	nop
bfc0a5c8:	00000000 	nop
bfc0a5cc:	00000000 	nop

bfc0a5d0 <ls1d_flash_boundary>:
ls1d_flash_boundary():
D:\loongson\works\ls1d-mylib\lib\func/flash-sf.c:12
bfc0a5d0:	27bdffe8 	addiu	sp,sp,-24
bfc0a5d4:	afbe0014 	sw	s8,20(sp)
bfc0a5d8:	03a0f021 	move	s8,sp
bfc0a5dc:	afc40018 	sw	a0,24(s8)
D:\loongson\works\ls1d-mylib\lib\func/flash-sf.c:13
bfc0a5e0:	8fc20018 	lw	v0,24(s8)
bfc0a5e4:	3042ffff 	andi	v0,v0,0xffff
bfc0a5e8:	afc20000 	sw	v0,0(s8)
D:\loongson\works\ls1d-mylib\lib\func/flash-sf.c:14
bfc0a5ec:	8fc20000 	lw	v0,0(s8)
bfc0a5f0:	2c421000 	sltiu	v0,v0,4096
bfc0a5f4:	10400005 	beqz	v0,bfc0a60c <ls1d_flash_boundary+0x3c>
bfc0a5f8:	00000000 	nop
D:\loongson\works\ls1d-mylib\lib\func/flash-sf.c:15
bfc0a5fc:	24020001 	li	v0,1
bfc0a600:	afc20008 	sw	v0,8(s8)
bfc0a604:	0bf02989 	j	bfc0a624 <ls1d_flash_boundary+0x54>
bfc0a608:	00000000 	nop
D:\loongson\works\ls1d-mylib\lib\func/flash-sf.c:18
bfc0a60c:	3c04bfe6 	lui	a0,0xbfe6
bfc0a610:	8fc30000 	lw	v1,0(s8)
bfc0a614:	3c029000 	lui	v0,0x9000
bfc0a618:	00621025 	or	v0,v1,v0
bfc0a61c:	ac820000 	sw	v0,0(a0)
D:\loongson\works\ls1d-mylib\lib\func/flash-sf.c:21
bfc0a620:	afc00008 	sw	zero,8(s8)
bfc0a624:	8fc20008 	lw	v0,8(s8)
D:\loongson\works\ls1d-mylib\lib\func/flash-sf.c:22
bfc0a628:	03c0e821 	move	sp,s8
bfc0a62c:	8fbe0014 	lw	s8,20(sp)
bfc0a630:	27bd0018 	addiu	sp,sp,24
bfc0a634:	03e00008 	jr	ra
bfc0a638:	00000000 	nop

bfc0a63c <ls1d_flash_encrypt>:
ls1d_flash_encrypt():
D:\loongson\works\ls1d-mylib\lib\func/flash-sf.c:25
bfc0a63c:	27bdfff0 	addiu	sp,sp,-16
bfc0a640:	afbe000c 	sw	s8,12(sp)
bfc0a644:	03a0f021 	move	s8,sp
bfc0a648:	afc40010 	sw	a0,16(s8)
bfc0a64c:	afc50014 	sw	a1,20(s8)
D:\loongson\works\ls1d-mylib\lib\func/flash-sf.c:27
bfc0a650:	8fc20010 	lw	v0,16(s8)
bfc0a654:	8fc30014 	lw	v1,20(s8)
bfc0a658:	0062102b 	sltu	v0,v1,v0
bfc0a65c:	10400005 	beqz	v0,bfc0a674 <ls1d_flash_encrypt+0x38>
bfc0a660:	00000000 	nop
D:\loongson\works\ls1d-mylib\lib\func/flash-sf.c:28
bfc0a664:	24020001 	li	v0,1
bfc0a668:	afc20000 	sw	v0,0(s8)
bfc0a66c:	0bf029a9 	j	bfc0a6a4 <ls1d_flash_encrypt+0x68>
bfc0a670:	00000000 	nop
D:\loongson\works\ls1d-mylib\lib\func/flash-sf.c:30
bfc0a674:	3c02bfe6 	lui	v0,0xbfe6
bfc0a678:	34430008 	ori	v1,v0,0x8
bfc0a67c:	8fc20010 	lw	v0,16(s8)
bfc0a680:	ac620000 	sw	v0,0(v1)
D:\loongson\works\ls1d-mylib\lib\func/flash-sf.c:31
bfc0a684:	3c02bfe6 	lui	v0,0xbfe6
bfc0a688:	34430004 	ori	v1,v0,0x4
bfc0a68c:	8fc20014 	lw	v0,20(s8)
bfc0a690:	ac620000 	sw	v0,0(v1)
D:\loongson\works\ls1d-mylib\lib\func/flash-sf.c:32
bfc0a694:	3c03bfe6 	lui	v1,0xbfe6
bfc0a698:	3c02f000 	lui	v0,0xf000
bfc0a69c:	ac620000 	sw	v0,0(v1)
D:\loongson\works\ls1d-mylib\lib\func/flash-sf.c:34
bfc0a6a0:	afc00000 	sw	zero,0(s8)
bfc0a6a4:	8fc20000 	lw	v0,0(s8)
D:\loongson\works\ls1d-mylib\lib\func/flash-sf.c:35
bfc0a6a8:	03c0e821 	move	sp,s8
bfc0a6ac:	8fbe000c 	lw	s8,12(sp)
bfc0a6b0:	27bd0010 	addiu	sp,sp,16
bfc0a6b4:	03e00008 	jr	ra
bfc0a6b8:	00000000 	nop

bfc0a6bc <ls1d_flash_verify>:
ls1d_flash_verify():
D:\loongson\works\ls1d-mylib\lib\func/flash-sf.c:38
bfc0a6bc:	27bdfff0 	addiu	sp,sp,-16
bfc0a6c0:	afbe000c 	sw	s8,12(sp)
bfc0a6c4:	03a0f021 	move	s8,sp
bfc0a6c8:	afc40010 	sw	a0,16(s8)
bfc0a6cc:	afc50014 	sw	a1,20(s8)
D:\loongson\works\ls1d-mylib\lib\func/flash-sf.c:40
bfc0a6d0:	3c02bfe6 	lui	v0,0xbfe6
bfc0a6d4:	34430010 	ori	v1,v0,0x10
bfc0a6d8:	8fc20014 	lw	v0,20(s8)
bfc0a6dc:	ac620000 	sw	v0,0(v1)
D:\loongson\works\ls1d-mylib\lib\func/flash-sf.c:41
bfc0a6e0:	3c04bfe6 	lui	a0,0xbfe6
bfc0a6e4:	8fc20010 	lw	v0,16(s8)
bfc0a6e8:	3043ffff 	andi	v1,v0,0xffff
bfc0a6ec:	3c021000 	lui	v0,0x1000
bfc0a6f0:	00621025 	or	v0,v1,v0
bfc0a6f4:	ac820000 	sw	v0,0(a0)
D:\loongson\works\ls1d-mylib\lib\func/flash-sf.c:42
bfc0a6f8:	3c02bfe6 	lui	v0,0xbfe6
bfc0a6fc:	34420014 	ori	v0,v0,0x14
bfc0a700:	8c420000 	lw	v0,0(v0)
bfc0a704:	30420001 	andi	v0,v0,0x1
bfc0a708:	304200ff 	andi	v0,v0,0xff
bfc0a70c:	10400004 	beqz	v0,bfc0a720 <ls1d_flash_verify+0x64>
bfc0a710:	00000000 	nop
D:\loongson\works\ls1d-mylib\lib\func/flash-sf.c:43
bfc0a714:	afc00000 	sw	zero,0(s8)
bfc0a718:	0bf029ca 	j	bfc0a728 <ls1d_flash_verify+0x6c>
bfc0a71c:	00000000 	nop
D:\loongson\works\ls1d-mylib\lib\func/flash-sf.c:45
bfc0a720:	24020001 	li	v0,1
bfc0a724:	afc20000 	sw	v0,0(s8)
bfc0a728:	8fc20000 	lw	v0,0(s8)
D:\loongson\works\ls1d-mylib\lib\func/flash-sf.c:46
bfc0a72c:	03c0e821 	move	sp,s8
bfc0a730:	8fbe000c 	lw	s8,12(sp)
bfc0a734:	27bd0010 	addiu	sp,sp,16
bfc0a738:	03e00008 	jr	ra
bfc0a73c:	00000000 	nop

bfc0a740 <Uart1_2400B>:
Uart1_2400B():
D:\loongson\works\ls1d-mylib\lib\func/uart.c:12
bfc0a740:	27bdfff0 	addiu	sp,sp,-16
bfc0a744:	afbe000c 	sw	s8,12(sp)
bfc0a748:	03a0f021 	move	s8,sp
D:\loongson\works\ls1d-mylib\lib\func/uart.c:13
bfc0a74c:	40086000 	mfc0	t0,c0_status
bfc0a750:	3c09ffff 	lui	t1,0xffff
bfc0a754:	352900fe 	ori	t1,t1,0xfe
bfc0a758:	01095024 	and	t2,t0,t1
bfc0a75c:	408a6000 	mtc0	t2,c0_status
D:\loongson\works\ls1d-mylib\lib\func/uart.c:14
bfc0a760:	3c02bfeb 	lui	v0,0xbfeb
bfc0a764:	3443007c 	ori	v1,v0,0x7c
bfc0a768:	3c0215da 	lui	v0,0x15da
bfc0a76c:	3442ed27 	ori	v0,v0,0xed27
bfc0a770:	ac620000 	sw	v0,0(v1)
D:\loongson\works\ls1d-mylib\lib\func/uart.c:15
bfc0a774:	3c02bfeb 	lui	v0,0xbfeb
bfc0a778:	3444000c 	ori	a0,v0,0xc
bfc0a77c:	3c02bfeb 	lui	v0,0xbfeb
bfc0a780:	3442000c 	ori	v0,v0,0xc
bfc0a784:	8c430000 	lw	v1,0(v0)
bfc0a788:	2402fff7 	li	v0,-9
bfc0a78c:	00621024 	and	v0,v1,v0
bfc0a790:	ac820000 	sw	v0,0(a0)
D:\loongson\works\ls1d-mylib\lib\func/uart.c:16
bfc0a794:	40086000 	mfc0	t0,c0_status
bfc0a798:	3c09ffff 	lui	t1,0xffff
bfc0a79c:	352900fe 	ori	t1,t1,0xfe
bfc0a7a0:	01095024 	and	t2,t0,t1
bfc0a7a4:	3409ff01 	li	t1,0xff01
bfc0a7a8:	01494025 	or	t0,t2,t1
bfc0a7ac:	40886000 	mtc0	t0,c0_status
D:\loongson\works\ls1d-mylib\lib\func/uart.c:21
bfc0a7b0:	3c02bfe8 	lui	v0,0xbfe8
bfc0a7b4:	34438002 	ori	v1,v0,0x8002
bfc0a7b8:	24020007 	li	v0,7
bfc0a7bc:	a0620000 	sb	v0,0(v1)
D:\loongson\works\ls1d-mylib\lib\func/uart.c:22
bfc0a7c0:	3c02bfe8 	lui	v0,0xbfe8
bfc0a7c4:	34438003 	ori	v1,v0,0x8003
bfc0a7c8:	2402ff80 	li	v0,-128
bfc0a7cc:	a0620000 	sb	v0,0(v1)
D:\loongson\works\ls1d-mylib\lib\func/uart.c:23
bfc0a7d0:	3c02bfe8 	lui	v0,0xbfe8
bfc0a7d4:	34438000 	ori	v1,v0,0x8000
bfc0a7d8:	2402ffd0 	li	v0,-48
bfc0a7dc:	a0620000 	sb	v0,0(v1)
D:\loongson\works\ls1d-mylib\lib\func/uart.c:24
bfc0a7e0:	3c02bfe8 	lui	v0,0xbfe8
bfc0a7e4:	34438003 	ori	v1,v0,0x8003
bfc0a7e8:	2402000b 	li	v0,11
bfc0a7ec:	a0620000 	sb	v0,0(v1)
D:\loongson\works\ls1d-mylib\lib\func/uart.c:25
bfc0a7f0:	3c02bfe8 	lui	v0,0xbfe8
bfc0a7f4:	34438004 	ori	v1,v0,0x8004
bfc0a7f8:	24020003 	li	v0,3
bfc0a7fc:	a0620000 	sb	v0,0(v1)
D:\loongson\works\ls1d-mylib\lib\func/uart.c:26
bfc0a800:	3c02bfe8 	lui	v0,0xbfe8
bfc0a804:	34428001 	ori	v0,v0,0x8001
bfc0a808:	a0400000 	sb	zero,0(v0)
D:\loongson\works\ls1d-mylib\lib\func/uart.c:28
bfc0a80c:	3c02bfea 	lui	v0,0xbfea
bfc0a810:	34430002 	ori	v1,v0,0x2
bfc0a814:	3c02bfea 	lui	v0,0xbfea
bfc0a818:	34420002 	ori	v0,v0,0x2
bfc0a81c:	90420000 	lbu	v0,0(v0)
bfc0a820:	304200ff 	andi	v0,v0,0xff
bfc0a824:	34420004 	ori	v0,v0,0x4
bfc0a828:	304200ff 	andi	v0,v0,0xff
bfc0a82c:	a0620000 	sb	v0,0(v1)
D:\loongson\works\ls1d-mylib\lib\func/uart.c:29
bfc0a830:	3c03bfea 	lui	v1,0xbfea
bfc0a834:	3c02bfea 	lui	v0,0xbfea
bfc0a838:	90420000 	lbu	v0,0(v0)
bfc0a83c:	304200ff 	andi	v0,v0,0xff
bfc0a840:	34420004 	ori	v0,v0,0x4
bfc0a844:	304200ff 	andi	v0,v0,0xff
bfc0a848:	a0620000 	sb	v0,0(v1)
D:\loongson\works\ls1d-mylib\lib\func/uart.c:34
bfc0a84c:	3c02bfe8 	lui	v0,0xbfe8
bfc0a850:	34428000 	ori	v0,v0,0x8000
bfc0a854:	90420000 	lbu	v0,0(v0)
bfc0a858:	a3c20000 	sb	v0,0(s8)
D:\loongson\works\ls1d-mylib\lib\func/uart.c:35
bfc0a85c:	3c02bfe8 	lui	v0,0xbfe8
bfc0a860:	34438001 	ori	v1,v0,0x8001
bfc0a864:	3c02bfe8 	lui	v0,0xbfe8
bfc0a868:	34428001 	ori	v0,v0,0x8001
bfc0a86c:	90420000 	lbu	v0,0(v0)
bfc0a870:	304200ff 	andi	v0,v0,0xff
bfc0a874:	34420001 	ori	v0,v0,0x1
bfc0a878:	304200ff 	andi	v0,v0,0xff
bfc0a87c:	a0620000 	sb	v0,0(v1)
D:\loongson\works\ls1d-mylib\lib\func/uart.c:36
bfc0a880:	03c0e821 	move	sp,s8
bfc0a884:	8fbe000c 	lw	s8,12(sp)
bfc0a888:	03e00008 	jr	ra
bfc0a88c:	27bd0010 	addiu	sp,sp,16

bfc0a890 <Uart1_38400B>:
Uart1_38400B():
D:\loongson\works\ls1d-mylib\lib\func/uart.c:39
bfc0a890:	27bdfff8 	addiu	sp,sp,-8
bfc0a894:	afbe0004 	sw	s8,4(sp)
bfc0a898:	03a0f021 	move	s8,sp
D:\loongson\works\ls1d-mylib\lib\func/uart.c:40
bfc0a89c:	40086000 	mfc0	t0,c0_status
bfc0a8a0:	3c09ffff 	lui	t1,0xffff
bfc0a8a4:	352900fe 	ori	t1,t1,0xfe
bfc0a8a8:	01095024 	and	t2,t0,t1
bfc0a8ac:	408a6000 	mtc0	t2,c0_status
D:\loongson\works\ls1d-mylib\lib\func/uart.c:41
bfc0a8b0:	3c02bfeb 	lui	v0,0xbfeb
bfc0a8b4:	3443007c 	ori	v1,v0,0x7c
bfc0a8b8:	3c0215da 	lui	v0,0x15da
bfc0a8bc:	3442ed27 	ori	v0,v0,0xed27
bfc0a8c0:	ac620000 	sw	v0,0(v1)
D:\loongson\works\ls1d-mylib\lib\func/uart.c:42
bfc0a8c4:	3c02bfeb 	lui	v0,0xbfeb
bfc0a8c8:	3444000c 	ori	a0,v0,0xc
bfc0a8cc:	3c02bfeb 	lui	v0,0xbfeb
bfc0a8d0:	3442000c 	ori	v0,v0,0xc
bfc0a8d4:	8c430000 	lw	v1,0(v0)
bfc0a8d8:	2402fff7 	li	v0,-9
bfc0a8dc:	00621024 	and	v0,v1,v0
bfc0a8e0:	ac820000 	sw	v0,0(a0)
D:\loongson\works\ls1d-mylib\lib\func/uart.c:47
bfc0a8e4:	3c02bfe8 	lui	v0,0xbfe8
bfc0a8e8:	34438002 	ori	v1,v0,0x8002
bfc0a8ec:	24020007 	li	v0,7
bfc0a8f0:	a0620000 	sb	v0,0(v1)
D:\loongson\works\ls1d-mylib\lib\func/uart.c:48
bfc0a8f4:	3c02bfe8 	lui	v0,0xbfe8
bfc0a8f8:	34438003 	ori	v1,v0,0x8003
bfc0a8fc:	2402ff80 	li	v0,-128
bfc0a900:	a0620000 	sb	v0,0(v1)
D:\loongson\works\ls1d-mylib\lib\func/uart.c:49
bfc0a904:	3c02bfe8 	lui	v0,0xbfe8
bfc0a908:	34438000 	ori	v1,v0,0x8000
bfc0a90c:	2402000d 	li	v0,13
bfc0a910:	a0620000 	sb	v0,0(v1)
D:\loongson\works\ls1d-mylib\lib\func/uart.c:50
bfc0a914:	3c02bfe8 	lui	v0,0xbfe8
bfc0a918:	34438003 	ori	v1,v0,0x8003
bfc0a91c:	2402000b 	li	v0,11
bfc0a920:	a0620000 	sb	v0,0(v1)
D:\loongson\works\ls1d-mylib\lib\func/uart.c:51
bfc0a924:	3c02bfe8 	lui	v0,0xbfe8
bfc0a928:	34438004 	ori	v1,v0,0x8004
bfc0a92c:	24020003 	li	v0,3
bfc0a930:	a0620000 	sb	v0,0(v1)
D:\loongson\works\ls1d-mylib\lib\func/uart.c:52
bfc0a934:	3c02bfe8 	lui	v0,0xbfe8
bfc0a938:	34428001 	ori	v0,v0,0x8001
bfc0a93c:	a0400000 	sb	zero,0(v0)
D:\loongson\works\ls1d-mylib\lib\func/uart.c:53
bfc0a940:	40086000 	mfc0	t0,c0_status
bfc0a944:	3c09ffff 	lui	t1,0xffff
bfc0a948:	352900fe 	ori	t1,t1,0xfe
bfc0a94c:	01095024 	and	t2,t0,t1
bfc0a950:	3409ff01 	li	t1,0xff01
bfc0a954:	01494025 	or	t0,t2,t1
bfc0a958:	40886000 	mtc0	t0,c0_status
D:\loongson\works\ls1d-mylib\lib\func/uart.c:54
bfc0a95c:	03c0e821 	move	sp,s8
bfc0a960:	8fbe0004 	lw	s8,4(sp)
bfc0a964:	03e00008 	jr	ra
bfc0a968:	27bd0008 	addiu	sp,sp,8

bfc0a96c <IrSend>:
IrSend():
D:\loongson\works\ls1d-mylib\lib\func/uart.c:57
bfc0a96c:	27bdfff8 	addiu	sp,sp,-8
bfc0a970:	afbe0004 	sw	s8,4(sp)
bfc0a974:	03a0f021 	move	s8,sp
bfc0a978:	afc40008 	sw	a0,8(s8)
bfc0a97c:	afc5000c 	sw	a1,12(s8)
D:\loongson\works\ls1d-mylib\lib\func/uart.c:59
bfc0a980:	8fc3000c 	lw	v1,12(s8)
bfc0a984:	24020001 	li	v0,1
bfc0a988:	14620026 	bne	v1,v0,bfc0aa24 <IrSend+0xb8>
bfc0a98c:	00000000 	nop
bfc0a990:	0bf02a75 	j	bfc0a9d4 <IrSend+0x68>
bfc0a994:	00000000 	nop
D:\loongson\works\ls1d-mylib\lib\func/uart.c:63
bfc0a998:	3c02bfe8 	lui	v0,0xbfe8
bfc0a99c:	34428005 	ori	v0,v0,0x8005
bfc0a9a0:	90420000 	lbu	v0,0(v0)
bfc0a9a4:	304200ff 	andi	v0,v0,0xff
bfc0a9a8:	30420020 	andi	v0,v0,0x20
bfc0a9ac:	1040fffa 	beqz	v0,bfc0a998 <IrSend+0x2c>
bfc0a9b0:	00000000 	nop
D:\loongson\works\ls1d-mylib\lib\func/uart.c:64
bfc0a9b4:	3c02bfe8 	lui	v0,0xbfe8
bfc0a9b8:	34438000 	ori	v1,v0,0x8000
bfc0a9bc:	8fc20008 	lw	v0,8(s8)
bfc0a9c0:	90420000 	lbu	v0,0(v0)
bfc0a9c4:	a0620000 	sb	v0,0(v1)
D:\loongson\works\ls1d-mylib\lib\func/uart.c:61
bfc0a9c8:	8fc20008 	lw	v0,8(s8)
bfc0a9cc:	24420001 	addiu	v0,v0,1
bfc0a9d0:	afc20008 	sw	v0,8(s8)
bfc0a9d4:	8fc20008 	lw	v0,8(s8)
bfc0a9d8:	90420000 	lbu	v0,0(v0)
bfc0a9dc:	1440ffee 	bnez	v0,bfc0a998 <IrSend+0x2c>
bfc0a9e0:	00000000 	nop
bfc0a9e4:	0bf02a8d 	j	bfc0aa34 <IrSend+0xc8>
bfc0a9e8:	00000000 	nop
D:\loongson\works\ls1d-mylib\lib\func/uart.c:71
bfc0a9ec:	3c02bfe8 	lui	v0,0xbfe8
bfc0a9f0:	34420005 	ori	v0,v0,0x5
bfc0a9f4:	90420000 	lbu	v0,0(v0)
bfc0a9f8:	304200ff 	andi	v0,v0,0xff
bfc0a9fc:	30420020 	andi	v0,v0,0x20
bfc0aa00:	1040fffa 	beqz	v0,bfc0a9ec <IrSend+0x80>
bfc0aa04:	00000000 	nop
D:\loongson\works\ls1d-mylib\lib\func/uart.c:72
bfc0aa08:	3c03bfe8 	lui	v1,0xbfe8
bfc0aa0c:	8fc20008 	lw	v0,8(s8)
bfc0aa10:	90420000 	lbu	v0,0(v0)
bfc0aa14:	a0620000 	sb	v0,0(v1)
D:\loongson\works\ls1d-mylib\lib\func/uart.c:69
bfc0aa18:	8fc20008 	lw	v0,8(s8)
bfc0aa1c:	24420001 	addiu	v0,v0,1
bfc0aa20:	afc20008 	sw	v0,8(s8)
bfc0aa24:	8fc20008 	lw	v0,8(s8)
bfc0aa28:	90420000 	lbu	v0,0(v0)
bfc0aa2c:	1440ffef 	bnez	v0,bfc0a9ec <IrSend+0x80>
bfc0aa30:	00000000 	nop
D:\loongson\works\ls1d-mylib\lib\func/uart.c:75
bfc0aa34:	03c0e821 	move	sp,s8
bfc0aa38:	8fbe0004 	lw	s8,4(sp)
bfc0aa3c:	27bd0008 	addiu	sp,sp,8
bfc0aa40:	03e00008 	jr	ra
bfc0aa44:	00000000 	nop

bfc0aa48 <Uart0_2400B>:
Uart0_2400B():
D:\loongson\works\ls1d-mylib\lib\func/uart.c:78
bfc0aa48:	27bdfff0 	addiu	sp,sp,-16
bfc0aa4c:	afbe000c 	sw	s8,12(sp)
bfc0aa50:	03a0f021 	move	s8,sp
D:\loongson\works\ls1d-mylib\lib\func/uart.c:79
bfc0aa54:	40086000 	mfc0	t0,c0_status
bfc0aa58:	3c09ffff 	lui	t1,0xffff
bfc0aa5c:	352900fe 	ori	t1,t1,0xfe
bfc0aa60:	01095024 	and	t2,t0,t1
bfc0aa64:	408a6000 	mtc0	t2,c0_status
D:\loongson\works\ls1d-mylib\lib\func/uart.c:80
bfc0aa68:	3c02bfeb 	lui	v0,0xbfeb
bfc0aa6c:	3443007c 	ori	v1,v0,0x7c
bfc0aa70:	3c0215da 	lui	v0,0x15da
bfc0aa74:	3442ed27 	ori	v0,v0,0xed27
bfc0aa78:	ac620000 	sw	v0,0(v1)
D:\loongson\works\ls1d-mylib\lib\func/uart.c:81
bfc0aa7c:	3c02bfeb 	lui	v0,0xbfeb
bfc0aa80:	3444000c 	ori	a0,v0,0xc
bfc0aa84:	3c02bfeb 	lui	v0,0xbfeb
bfc0aa88:	3442000c 	ori	v0,v0,0xc
bfc0aa8c:	8c430000 	lw	v1,0(v0)
bfc0aa90:	2402fffb 	li	v0,-5
bfc0aa94:	00621024 	and	v0,v1,v0
bfc0aa98:	ac820000 	sw	v0,0(a0)
D:\loongson\works\ls1d-mylib\lib\func/uart.c:82
bfc0aa9c:	40086000 	mfc0	t0,c0_status
bfc0aaa0:	3c09ffff 	lui	t1,0xffff
bfc0aaa4:	352900fe 	ori	t1,t1,0xfe
bfc0aaa8:	01095024 	and	t2,t0,t1
bfc0aaac:	3409ff01 	li	t1,0xff01
bfc0aab0:	01494025 	or	t0,t2,t1
bfc0aab4:	40886000 	mtc0	t0,c0_status
D:\loongson\works\ls1d-mylib\lib\func/uart.c:87
bfc0aab8:	3c02bfe8 	lui	v0,0xbfe8
bfc0aabc:	34430002 	ori	v1,v0,0x2
bfc0aac0:	24020007 	li	v0,7
bfc0aac4:	a0620000 	sb	v0,0(v1)
D:\loongson\works\ls1d-mylib\lib\func/uart.c:88
bfc0aac8:	3c02bfe8 	lui	v0,0xbfe8
bfc0aacc:	34430003 	ori	v1,v0,0x3
bfc0aad0:	2402ff80 	li	v0,-128
bfc0aad4:	a0620000 	sb	v0,0(v1)
D:\loongson\works\ls1d-mylib\lib\func/uart.c:89
bfc0aad8:	3c03bfe8 	lui	v1,0xbfe8
bfc0aadc:	2402ffd0 	li	v0,-48
bfc0aae0:	a0620000 	sb	v0,0(v1)
D:\loongson\works\ls1d-mylib\lib\func/uart.c:90
bfc0aae4:	3c02bfe8 	lui	v0,0xbfe8
bfc0aae8:	34430003 	ori	v1,v0,0x3
bfc0aaec:	2402000b 	li	v0,11
bfc0aaf0:	a0620000 	sb	v0,0(v1)
D:\loongson\works\ls1d-mylib\lib\func/uart.c:91
bfc0aaf4:	3c02bfe8 	lui	v0,0xbfe8
bfc0aaf8:	34430004 	ori	v1,v0,0x4
bfc0aafc:	24020003 	li	v0,3
bfc0ab00:	a0620000 	sb	v0,0(v1)
D:\loongson\works\ls1d-mylib\lib\func/uart.c:92
bfc0ab04:	3c02bfe8 	lui	v0,0xbfe8
bfc0ab08:	34420001 	ori	v0,v0,0x1
bfc0ab0c:	a0400000 	sb	zero,0(v0)
D:\loongson\works\ls1d-mylib\lib\func/uart.c:94
bfc0ab10:	3c02bfea 	lui	v0,0xbfea
bfc0ab14:	34430002 	ori	v1,v0,0x2
bfc0ab18:	3c02bfea 	lui	v0,0xbfea
bfc0ab1c:	34420002 	ori	v0,v0,0x2
bfc0ab20:	90420000 	lbu	v0,0(v0)
bfc0ab24:	304200ff 	andi	v0,v0,0xff
bfc0ab28:	34420008 	ori	v0,v0,0x8
bfc0ab2c:	304200ff 	andi	v0,v0,0xff
bfc0ab30:	a0620000 	sb	v0,0(v1)
D:\loongson\works\ls1d-mylib\lib\func/uart.c:95
bfc0ab34:	3c03bfea 	lui	v1,0xbfea
bfc0ab38:	3c02bfea 	lui	v0,0xbfea
bfc0ab3c:	90420000 	lbu	v0,0(v0)
bfc0ab40:	304200ff 	andi	v0,v0,0xff
bfc0ab44:	34420008 	ori	v0,v0,0x8
bfc0ab48:	304200ff 	andi	v0,v0,0xff
bfc0ab4c:	a0620000 	sb	v0,0(v1)
D:\loongson\works\ls1d-mylib\lib\func/uart.c:100
bfc0ab50:	3c02bfe8 	lui	v0,0xbfe8
bfc0ab54:	90420000 	lbu	v0,0(v0)
bfc0ab58:	a3c20000 	sb	v0,0(s8)
D:\loongson\works\ls1d-mylib\lib\func/uart.c:101
bfc0ab5c:	3c02bfe8 	lui	v0,0xbfe8
bfc0ab60:	34430001 	ori	v1,v0,0x1
bfc0ab64:	3c02bfe8 	lui	v0,0xbfe8
bfc0ab68:	34420001 	ori	v0,v0,0x1
bfc0ab6c:	90420000 	lbu	v0,0(v0)
bfc0ab70:	304200ff 	andi	v0,v0,0xff
bfc0ab74:	34420001 	ori	v0,v0,0x1
bfc0ab78:	304200ff 	andi	v0,v0,0xff
bfc0ab7c:	a0620000 	sb	v0,0(v1)
D:\loongson\works\ls1d-mylib\lib\func/uart.c:102
bfc0ab80:	03c0e821 	move	sp,s8
bfc0ab84:	8fbe000c 	lw	s8,12(sp)
bfc0ab88:	03e00008 	jr	ra
bfc0ab8c:	27bd0010 	addiu	sp,sp,16

bfc0ab90 <Uart0_38400B>:
Uart0_38400B():
D:\loongson\works\ls1d-mylib\lib\func/uart.c:105
bfc0ab90:	27bdfff8 	addiu	sp,sp,-8
bfc0ab94:	afbe0004 	sw	s8,4(sp)
bfc0ab98:	03a0f021 	move	s8,sp
D:\loongson\works\ls1d-mylib\lib\func/uart.c:106
bfc0ab9c:	40086000 	mfc0	t0,c0_status
bfc0aba0:	3c09ffff 	lui	t1,0xffff
bfc0aba4:	352900fe 	ori	t1,t1,0xfe
bfc0aba8:	01095024 	and	t2,t0,t1
bfc0abac:	408a6000 	mtc0	t2,c0_status
D:\loongson\works\ls1d-mylib\lib\func/uart.c:107
bfc0abb0:	3c02bfeb 	lui	v0,0xbfeb
bfc0abb4:	3443007c 	ori	v1,v0,0x7c
bfc0abb8:	3c0215da 	lui	v0,0x15da
bfc0abbc:	3442ed27 	ori	v0,v0,0xed27
bfc0abc0:	ac620000 	sw	v0,0(v1)
D:\loongson\works\ls1d-mylib\lib\func/uart.c:108
bfc0abc4:	3c02bfeb 	lui	v0,0xbfeb
bfc0abc8:	3444000c 	ori	a0,v0,0xc
bfc0abcc:	3c02bfeb 	lui	v0,0xbfeb
bfc0abd0:	3442000c 	ori	v0,v0,0xc
bfc0abd4:	8c430000 	lw	v1,0(v0)
bfc0abd8:	2402fffb 	li	v0,-5
bfc0abdc:	00621024 	and	v0,v1,v0
bfc0abe0:	ac820000 	sw	v0,0(a0)
D:\loongson\works\ls1d-mylib\lib\func/uart.c:109
bfc0abe4:	40086000 	mfc0	t0,c0_status
bfc0abe8:	3c09ffff 	lui	t1,0xffff
bfc0abec:	352900fe 	ori	t1,t1,0xfe
bfc0abf0:	01095024 	and	t2,t0,t1
bfc0abf4:	3409ff01 	li	t1,0xff01
bfc0abf8:	01494025 	or	t0,t2,t1
bfc0abfc:	40886000 	mtc0	t0,c0_status
D:\loongson\works\ls1d-mylib\lib\func/uart.c:114
bfc0ac00:	3c02bfe8 	lui	v0,0xbfe8
bfc0ac04:	34430002 	ori	v1,v0,0x2
bfc0ac08:	24020007 	li	v0,7
bfc0ac0c:	a0620000 	sb	v0,0(v1)
D:\loongson\works\ls1d-mylib\lib\func/uart.c:115
bfc0ac10:	3c02bfe8 	lui	v0,0xbfe8
bfc0ac14:	34430003 	ori	v1,v0,0x3
bfc0ac18:	2402ff80 	li	v0,-128
bfc0ac1c:	a0620000 	sb	v0,0(v1)
D:\loongson\works\ls1d-mylib\lib\func/uart.c:116
bfc0ac20:	3c03bfe8 	lui	v1,0xbfe8
bfc0ac24:	2402000d 	li	v0,13
bfc0ac28:	a0620000 	sb	v0,0(v1)
D:\loongson\works\ls1d-mylib\lib\func/uart.c:117
bfc0ac2c:	3c02bfe8 	lui	v0,0xbfe8
bfc0ac30:	34430003 	ori	v1,v0,0x3
bfc0ac34:	2402000b 	li	v0,11
bfc0ac38:	a0620000 	sb	v0,0(v1)
D:\loongson\works\ls1d-mylib\lib\func/uart.c:118
bfc0ac3c:	3c02bfe8 	lui	v0,0xbfe8
bfc0ac40:	34430004 	ori	v1,v0,0x4
bfc0ac44:	24020003 	li	v0,3
bfc0ac48:	a0620000 	sb	v0,0(v1)
D:\loongson\works\ls1d-mylib\lib\func/uart.c:119
bfc0ac4c:	3c02bfe8 	lui	v0,0xbfe8
bfc0ac50:	34420001 	ori	v0,v0,0x1
bfc0ac54:	a0400000 	sb	zero,0(v0)
D:\loongson\works\ls1d-mylib\lib\func/uart.c:120
bfc0ac58:	03c0e821 	move	sp,s8
bfc0ac5c:	8fbe0004 	lw	s8,4(sp)
bfc0ac60:	03e00008 	jr	ra
bfc0ac64:	27bd0008 	addiu	sp,sp,8
bfc0ac68:	00000000 	nop
bfc0ac6c:	00000000 	nop

bfc0ac70 <ls1d_lcd_poweron>:
ls1d_lcd_poweron():
D:\loongson\works\ls1d-mylib\lib\func/lcd.c:11
bfc0ac70:	27bdfff8 	addiu	sp,sp,-8
bfc0ac74:	afbe0004 	sw	s8,4(sp)
bfc0ac78:	03a0f021 	move	s8,sp
D:\loongson\works\ls1d-mylib\lib\func/lcd.c:12
bfc0ac7c:	40086000 	mfc0	t0,c0_status
bfc0ac80:	3c09ffff 	lui	t1,0xffff
bfc0ac84:	352900fe 	ori	t1,t1,0xfe
bfc0ac88:	01095024 	and	t2,t0,t1
bfc0ac8c:	408a6000 	mtc0	t2,c0_status
D:\loongson\works\ls1d-mylib\lib\func/lcd.c:13
bfc0ac90:	3c02bfeb 	lui	v0,0xbfeb
bfc0ac94:	3443007c 	ori	v1,v0,0x7c
bfc0ac98:	3c0215da 	lui	v0,0x15da
bfc0ac9c:	3442ed27 	ori	v0,v0,0xed27
bfc0aca0:	ac620000 	sw	v0,0(v1)
D:\loongson\works\ls1d-mylib\lib\func/lcd.c:14
bfc0aca4:	3c02bfeb 	lui	v0,0xbfeb
bfc0aca8:	3444000c 	ori	a0,v0,0xc
bfc0acac:	3c02bfeb 	lui	v0,0xbfeb
bfc0acb0:	3442000c 	ori	v0,v0,0xc
bfc0acb4:	8c430000 	lw	v1,0(v0)
bfc0acb8:	2402fdff 	li	v0,-513
bfc0acbc:	00621024 	and	v0,v1,v0
bfc0acc0:	ac820000 	sw	v0,0(a0)
D:\loongson\works\ls1d-mylib\lib\func/lcd.c:15
bfc0acc4:	40086000 	mfc0	t0,c0_status
bfc0acc8:	3c09ffff 	lui	t1,0xffff
bfc0accc:	352900fe 	ori	t1,t1,0xfe
bfc0acd0:	01095024 	and	t2,t0,t1
bfc0acd4:	3409ff01 	li	t1,0xff01
bfc0acd8:	01494025 	or	t0,t2,t1
bfc0acdc:	40886000 	mtc0	t0,c0_status
D:\loongson\works\ls1d-mylib\lib\func/lcd.c:16
bfc0ace0:	03c0e821 	move	sp,s8
bfc0ace4:	8fbe0004 	lw	s8,4(sp)
bfc0ace8:	03e00008 	jr	ra
bfc0acec:	27bd0008 	addiu	sp,sp,8

bfc0acf0 <ls1d_lcd_powerdown>:
ls1d_lcd_powerdown():
D:\loongson\works\ls1d-mylib\lib\func/lcd.c:18
bfc0acf0:	27bdfff8 	addiu	sp,sp,-8
bfc0acf4:	afbe0004 	sw	s8,4(sp)
bfc0acf8:	03a0f021 	move	s8,sp
D:\loongson\works\ls1d-mylib\lib\func/lcd.c:19
bfc0acfc:	40086000 	mfc0	t0,c0_status
bfc0ad00:	3c09ffff 	lui	t1,0xffff
bfc0ad04:	352900fe 	ori	t1,t1,0xfe
bfc0ad08:	01095024 	and	t2,t0,t1
bfc0ad0c:	408a6000 	mtc0	t2,c0_status
D:\loongson\works\ls1d-mylib\lib\func/lcd.c:20
bfc0ad10:	3c02bfeb 	lui	v0,0xbfeb
bfc0ad14:	3443007c 	ori	v1,v0,0x7c
bfc0ad18:	3c0215da 	lui	v0,0x15da
bfc0ad1c:	3442ed27 	ori	v0,v0,0xed27
bfc0ad20:	ac620000 	sw	v0,0(v1)
D:\loongson\works\ls1d-mylib\lib\func/lcd.c:21
bfc0ad24:	3c02bfeb 	lui	v0,0xbfeb
bfc0ad28:	3443000c 	ori	v1,v0,0xc
bfc0ad2c:	3c02bfeb 	lui	v0,0xbfeb
bfc0ad30:	3442000c 	ori	v0,v0,0xc
bfc0ad34:	8c420000 	lw	v0,0(v0)
bfc0ad38:	34420200 	ori	v0,v0,0x200
bfc0ad3c:	ac620000 	sw	v0,0(v1)
D:\loongson\works\ls1d-mylib\lib\func/lcd.c:22
bfc0ad40:	40086000 	mfc0	t0,c0_status
bfc0ad44:	3c09ffff 	lui	t1,0xffff
bfc0ad48:	352900fe 	ori	t1,t1,0xfe
bfc0ad4c:	01095024 	and	t2,t0,t1
bfc0ad50:	3409ff01 	li	t1,0xff01
bfc0ad54:	01494025 	or	t0,t2,t1
bfc0ad58:	40886000 	mtc0	t0,c0_status
D:\loongson\works\ls1d-mylib\lib\func/lcd.c:23
bfc0ad5c:	03c0e821 	move	sp,s8
bfc0ad60:	8fbe0004 	lw	s8,4(sp)
bfc0ad64:	03e00008 	jr	ra
bfc0ad68:	27bd0008 	addiu	sp,sp,8

bfc0ad6c <LcdClear>:
LcdClear():
D:\loongson\works\ls1d-mylib\lib\func/lcd.c:27
bfc0ad6c:	27bdfff0 	addiu	sp,sp,-16
bfc0ad70:	afbe000c 	sw	s8,12(sp)
bfc0ad74:	03a0f021 	move	s8,sp
bfc0ad78:	afc40010 	sw	a0,16(s8)
D:\loongson\works\ls1d-mylib\lib\func/lcd.c:29
bfc0ad7c:	afc00000 	sw	zero,0(s8)
bfc0ad80:	0bf02b69 	j	bfc0ada4 <LcdClear+0x38>
bfc0ad84:	00000000 	nop
D:\loongson\works\ls1d-mylib\lib\func/lcd.c:30
bfc0ad88:	8fc30010 	lw	v1,16(s8)
bfc0ad8c:	8fc20000 	lw	v0,0(s8)
bfc0ad90:	00621021 	addu	v0,v1,v0
bfc0ad94:	a0400000 	sb	zero,0(v0)
D:\loongson\works\ls1d-mylib\lib\func/lcd.c:29
bfc0ad98:	8fc20000 	lw	v0,0(s8)
bfc0ad9c:	24420001 	addiu	v0,v0,1
bfc0ada0:	afc20000 	sw	v0,0(s8)
bfc0ada4:	8fc20000 	lw	v0,0(s8)
bfc0ada8:	2c42000c 	sltiu	v0,v0,12
bfc0adac:	1440fff6 	bnez	v0,bfc0ad88 <LcdClear+0x1c>
bfc0adb0:	00000000 	nop
D:\loongson\works\ls1d-mylib\lib\func/lcd.c:31
bfc0adb4:	03c0e821 	move	sp,s8
bfc0adb8:	8fbe000c 	lw	s8,12(sp)
bfc0adbc:	27bd0010 	addiu	sp,sp,16
bfc0adc0:	03e00008 	jr	ra
bfc0adc4:	00000000 	nop

bfc0adc8 <LcdPrintAll>:
LcdPrintAll():
D:\loongson\works\ls1d-mylib\lib\func/lcd.c:34
bfc0adc8:	27bdfff0 	addiu	sp,sp,-16
bfc0adcc:	afbe000c 	sw	s8,12(sp)
bfc0add0:	03a0f021 	move	s8,sp
bfc0add4:	afc40010 	sw	a0,16(s8)
D:\loongson\works\ls1d-mylib\lib\func/lcd.c:36
bfc0add8:	afc00000 	sw	zero,0(s8)
bfc0addc:	0bf02b81 	j	bfc0ae04 <LcdPrintAll+0x3c>
bfc0ade0:	00000000 	nop
D:\loongson\works\ls1d-mylib\lib\func/lcd.c:37
bfc0ade4:	8fc30010 	lw	v1,16(s8)
bfc0ade8:	8fc20000 	lw	v0,0(s8)
bfc0adec:	00621821 	addu	v1,v1,v0
bfc0adf0:	2402ffff 	li	v0,-1
bfc0adf4:	a0620000 	sb	v0,0(v1)
D:\loongson\works\ls1d-mylib\lib\func/lcd.c:36
bfc0adf8:	8fc20000 	lw	v0,0(s8)
bfc0adfc:	24420001 	addiu	v0,v0,1
bfc0ae00:	afc20000 	sw	v0,0(s8)
bfc0ae04:	8fc20000 	lw	v0,0(s8)
bfc0ae08:	2c42000c 	sltiu	v0,v0,12
bfc0ae0c:	1440fff5 	bnez	v0,bfc0ade4 <LcdPrintAll+0x1c>
bfc0ae10:	00000000 	nop
D:\loongson\works\ls1d-mylib\lib\func/lcd.c:38
bfc0ae14:	03c0e821 	move	sp,s8
bfc0ae18:	8fbe000c 	lw	s8,12(sp)
bfc0ae1c:	27bd0010 	addiu	sp,sp,16
bfc0ae20:	03e00008 	jr	ra
bfc0ae24:	00000000 	nop

bfc0ae28 <WriteLcdRegs>:
WriteLcdRegs():
D:\loongson\works\ls1d-mylib\lib\func/lcd.c:41
bfc0ae28:	27bdfff0 	addiu	sp,sp,-16
bfc0ae2c:	afbe000c 	sw	s8,12(sp)
bfc0ae30:	03a0f021 	move	s8,sp
bfc0ae34:	afc40010 	sw	a0,16(s8)
D:\loongson\works\ls1d-mylib\lib\func/lcd.c:42
bfc0ae38:	8fc20010 	lw	v0,16(s8)
bfc0ae3c:	afc20000 	sw	v0,0(s8)
D:\loongson\works\ls1d-mylib\lib\func/lcd.c:44
bfc0ae40:	3c02bfeb 	lui	v0,0xbfeb
bfc0ae44:	3443c000 	ori	v1,v0,0xc000
bfc0ae48:	8fc20000 	lw	v0,0(s8)
bfc0ae4c:	8c420000 	lw	v0,0(v0)
bfc0ae50:	ac620000 	sw	v0,0(v1)
D:\loongson\works\ls1d-mylib\lib\func/lcd.c:45
bfc0ae54:	3c02bfeb 	lui	v0,0xbfeb
bfc0ae58:	3443c004 	ori	v1,v0,0xc004
bfc0ae5c:	8fc20000 	lw	v0,0(s8)
bfc0ae60:	24420004 	addiu	v0,v0,4
bfc0ae64:	8c420000 	lw	v0,0(v0)
bfc0ae68:	ac620000 	sw	v0,0(v1)
D:\loongson\works\ls1d-mylib\lib\func/lcd.c:46
bfc0ae6c:	3c02bfeb 	lui	v0,0xbfeb
bfc0ae70:	3443c008 	ori	v1,v0,0xc008
bfc0ae74:	8fc20000 	lw	v0,0(s8)
bfc0ae78:	24420008 	addiu	v0,v0,8
bfc0ae7c:	8c420000 	lw	v0,0(v0)
bfc0ae80:	ac620000 	sw	v0,0(v1)
D:\loongson\works\ls1d-mylib\lib\func/lcd.c:47
bfc0ae84:	03c0e821 	move	sp,s8
bfc0ae88:	8fbe000c 	lw	s8,12(sp)
bfc0ae8c:	27bd0010 	addiu	sp,sp,16
bfc0ae90:	03e00008 	jr	ra
bfc0ae94:	00000000 	nop

bfc0ae98 <Lcd_HW_Init>:
Lcd_HW_Init():
D:\loongson\works\ls1d-mylib\lib\func/lcd.c:50
bfc0ae98:	27bdfff8 	addiu	sp,sp,-8
bfc0ae9c:	afbe0004 	sw	s8,4(sp)
bfc0aea0:	03a0f021 	move	s8,sp
D:\loongson\works\ls1d-mylib\lib\func/lcd.c:51
bfc0aea4:	3c02bfeb 	lui	v0,0xbfeb
bfc0aea8:	3443c00c 	ori	v1,v0,0xc00c
bfc0aeac:	24020010 	li	v0,16
bfc0aeb0:	ac620000 	sw	v0,0(v1)
D:\loongson\works\ls1d-mylib\lib\func/lcd.c:54
bfc0aeb4:	40086000 	mfc0	t0,c0_status
bfc0aeb8:	3c09ffff 	lui	t1,0xffff
bfc0aebc:	352900fe 	ori	t1,t1,0xfe
bfc0aec0:	01095024 	and	t2,t0,t1
bfc0aec4:	408a6000 	mtc0	t2,c0_status
D:\loongson\works\ls1d-mylib\lib\func/lcd.c:55
bfc0aec8:	3c02bfeb 	lui	v0,0xbfeb
bfc0aecc:	3443007c 	ori	v1,v0,0x7c
bfc0aed0:	3c0215da 	lui	v0,0x15da
bfc0aed4:	3442ed27 	ori	v0,v0,0xed27
bfc0aed8:	ac620000 	sw	v0,0(v1)
D:\loongson\works\ls1d-mylib\lib\func/lcd.c:56
bfc0aedc:	3c02bfeb 	lui	v0,0xbfeb
bfc0aee0:	3444000c 	ori	a0,v0,0xc
bfc0aee4:	3c02bfeb 	lui	v0,0xbfeb
bfc0aee8:	3442000c 	ori	v0,v0,0xc
bfc0aeec:	8c430000 	lw	v1,0(v0)
bfc0aef0:	3c02fc3f 	lui	v0,0xfc3f
bfc0aef4:	3442fdff 	ori	v0,v0,0xfdff
bfc0aef8:	00621024 	and	v0,v1,v0
bfc0aefc:	ac820000 	sw	v0,0(a0)
D:\loongson\works\ls1d-mylib\lib\func/lcd.c:57
bfc0af00:	3c02bfeb 	lui	v0,0xbfeb
bfc0af04:	3443007c 	ori	v1,v0,0x7c
bfc0af08:	3c0215da 	lui	v0,0x15da
bfc0af0c:	3442ed27 	ori	v0,v0,0xed27
bfc0af10:	ac620000 	sw	v0,0(v1)
D:\loongson\works\ls1d-mylib\lib\func/lcd.c:58
bfc0af14:	3c02bfeb 	lui	v0,0xbfeb
bfc0af18:	3443000c 	ori	v1,v0,0xc
bfc0af1c:	3c02bfeb 	lui	v0,0xbfeb
bfc0af20:	3442000c 	ori	v0,v0,0xc
bfc0af24:	8c420000 	lw	v0,0(v0)
bfc0af28:	34420100 	ori	v0,v0,0x100
bfc0af2c:	ac620000 	sw	v0,0(v1)
D:\loongson\works\ls1d-mylib\lib\func/lcd.c:59
bfc0af30:	40086000 	mfc0	t0,c0_status
bfc0af34:	3c09ffff 	lui	t1,0xffff
bfc0af38:	352900fe 	ori	t1,t1,0xfe
bfc0af3c:	01095024 	and	t2,t0,t1
bfc0af40:	3409ff01 	li	t1,0xff01
bfc0af44:	01494025 	or	t0,t2,t1
bfc0af48:	40886000 	mtc0	t0,c0_status
D:\loongson\works\ls1d-mylib\lib\func/lcd.c:61
bfc0af4c:	03c0e821 	move	sp,s8
bfc0af50:	8fbe0004 	lw	s8,4(sp)
bfc0af54:	03e00008 	jr	ra
bfc0af58:	27bd0008 	addiu	sp,sp,8
bfc0af5c:	00000000 	nop

bfc0af60 <printf_float>:
printf_float():
D:\loongson\works\ls1d-mylib\lib\func/public.c:12
bfc0af60:	27bdffb8 	addiu	sp,sp,-72
bfc0af64:	afbf0044 	sw	ra,68(sp)
bfc0af68:	afbe0040 	sw	s8,64(sp)
bfc0af6c:	03a0f021 	move	s8,sp
bfc0af70:	e7cc0048 	swc1	$f12,72(s8)
D:\loongson\works\ls1d-mylib\lib\func/public.c:13
bfc0af74:	afc0001c 	sw	zero,28(s8)
D:\loongson\works\ls1d-mylib\lib\func/public.c:14
bfc0af78:	afc00018 	sw	zero,24(s8)
D:\loongson\works\ls1d-mylib\lib\func/public.c:15
bfc0af7c:	c7c00048 	lwc1	$f0,72(s8)
bfc0af80:	44800800 	mtc1	zero,$f1
bfc0af84:	4601003c 	c.lt.s	$f0,$f1
bfc0af88:	45000003 	bc1f	bfc0af98 <printf_float+0x38>
bfc0af8c:	00000000 	nop
bfc0af90:	24020001 	li	v0,1
bfc0af94:	afc20018 	sw	v0,24(s8)
D:\loongson\works\ls1d-mylib\lib\func/public.c:16
bfc0af98:	8fc20018 	lw	v0,24(s8)
bfc0af9c:	10400007 	beqz	v0,bfc0afbc <printf_float+0x5c>
bfc0afa0:	00000000 	nop
bfc0afa4:	44800800 	mtc1	zero,$f1
bfc0afa8:	c7c00048 	lwc1	$f0,72(s8)
bfc0afac:	46000801 	sub.s	$f0,$f1,$f0
bfc0afb0:	e7c00028 	swc1	$f0,40(s8)
bfc0afb4:	0bf02bf1 	j	bfc0afc4 <printf_float+0x64>
bfc0afb8:	00000000 	nop
bfc0afbc:	c7c00048 	lwc1	$f0,72(s8)
bfc0afc0:	e7c00028 	swc1	$f0,40(s8)
bfc0afc4:	c7c10028 	lwc1	$f1,40(s8)
bfc0afc8:	e7c1001c 	swc1	$f1,28(s8)
D:\loongson\works\ls1d-mylib\lib\func/public.c:18
bfc0afcc:	afc00014 	sw	zero,20(s8)
bfc0afd0:	afc00010 	sw	zero,16(s8)
D:\loongson\works\ls1d-mylib\lib\func/public.c:19
bfc0afd4:	c7c2001c 	lwc1	$f2,28(s8)
bfc0afd8:	e7c2002c 	swc1	$f2,44(s8)
bfc0afdc:	3c02bfc1 	lui	v0,0xbfc1
bfc0afe0:	c440d690 	lwc1	$f0,-10608(v0)
bfc0afe4:	e7c00034 	swc1	$f0,52(s8)
bfc0afe8:	c7c1002c 	lwc1	$f1,44(s8)
bfc0afec:	c7c20034 	lwc1	$f2,52(s8)
bfc0aff0:	4601103e 	c.le.s	$f2,$f1
bfc0aff4:	45010006 	bc1t	bfc0b010 <printf_float+0xb0>
bfc0aff8:	00000000 	nop
bfc0affc:	c7c0002c 	lwc1	$f0,44(s8)
bfc0b000:	4600000d 	trunc.w.s	$f0,$f0
bfc0b004:	e7c00030 	swc1	$f0,48(s8)
bfc0b008:	0bf02c0d 	j	bfc0b034 <printf_float+0xd4>
bfc0b00c:	00000000 	nop
bfc0b010:	c7c1002c 	lwc1	$f1,44(s8)
bfc0b014:	c7c20034 	lwc1	$f2,52(s8)
bfc0b018:	46020801 	sub.s	$f0,$f1,$f2
bfc0b01c:	3c028000 	lui	v0,0x8000
bfc0b020:	4600000d 	trunc.w.s	$f0,$f0
bfc0b024:	e7c00030 	swc1	$f0,48(s8)
bfc0b028:	8fc30030 	lw	v1,48(s8)
bfc0b02c:	00621825 	or	v1,v1,v0
bfc0b030:	afc30030 	sw	v1,48(s8)
bfc0b034:	8fc20030 	lw	v0,48(s8)
bfc0b038:	afc20014 	sw	v0,20(s8)
D:\loongson\works\ls1d-mylib\lib\func/public.c:20
bfc0b03c:	8fc20014 	lw	v0,20(s8)
bfc0b040:	04400006 	bltz	v0,bfc0b05c <printf_float+0xfc>
bfc0b044:	00000000 	nop
bfc0b048:	c7c00014 	lwc1	$f0,20(s8)
bfc0b04c:	46800020 	cvt.s.w	$f0,$f0
bfc0b050:	e7c00024 	swc1	$f0,36(s8)
bfc0b054:	0bf02c23 	j	bfc0b08c <printf_float+0x12c>
bfc0b058:	00000000 	nop
bfc0b05c:	8fc20014 	lw	v0,20(s8)
bfc0b060:	30420001 	andi	v0,v0,0x1
bfc0b064:	8fc30014 	lw	v1,20(s8)
bfc0b068:	00031842 	srl	v1,v1,0x1
bfc0b06c:	00431025 	or	v0,v0,v1
bfc0b070:	44820000 	mtc1	v0,$f0
bfc0b074:	46800020 	cvt.s.w	$f0,$f0
bfc0b078:	e7c00024 	swc1	$f0,36(s8)
bfc0b07c:	c7c10024 	lwc1	$f1,36(s8)
bfc0b080:	c7c20024 	lwc1	$f2,36(s8)
bfc0b084:	46020840 	add.s	$f1,$f1,$f2
bfc0b088:	e7c10024 	swc1	$f1,36(s8)
bfc0b08c:	c7c0001c 	lwc1	$f0,28(s8)
bfc0b090:	c7c20024 	lwc1	$f2,36(s8)
bfc0b094:	46020041 	sub.s	$f1,$f0,$f2
bfc0b098:	3c02bfc1 	lui	v0,0xbfc1
bfc0b09c:	c440d694 	lwc1	$f0,-10604(v0)
bfc0b0a0:	46000802 	mul.s	$f0,$f1,$f0
bfc0b0a4:	e7c00020 	swc1	$f0,32(s8)
bfc0b0a8:	3c02bfc1 	lui	v0,0xbfc1
bfc0b0ac:	c440d690 	lwc1	$f0,-10608(v0)
bfc0b0b0:	e7c0003c 	swc1	$f0,60(s8)
bfc0b0b4:	c7c10020 	lwc1	$f1,32(s8)
bfc0b0b8:	c7c2003c 	lwc1	$f2,60(s8)
bfc0b0bc:	4601103e 	c.le.s	$f2,$f1
bfc0b0c0:	45010006 	bc1t	bfc0b0dc <printf_float+0x17c>
bfc0b0c4:	00000000 	nop
bfc0b0c8:	c7c00020 	lwc1	$f0,32(s8)
bfc0b0cc:	4600000d 	trunc.w.s	$f0,$f0
bfc0b0d0:	e7c00038 	swc1	$f0,56(s8)
bfc0b0d4:	0bf02c40 	j	bfc0b100 <printf_float+0x1a0>
bfc0b0d8:	00000000 	nop
bfc0b0dc:	c7c10020 	lwc1	$f1,32(s8)
bfc0b0e0:	c7c2003c 	lwc1	$f2,60(s8)
bfc0b0e4:	46020801 	sub.s	$f0,$f1,$f2
bfc0b0e8:	3c028000 	lui	v0,0x8000
bfc0b0ec:	4600000d 	trunc.w.s	$f0,$f0
bfc0b0f0:	e7c00038 	swc1	$f0,56(s8)
bfc0b0f4:	8fc30038 	lw	v1,56(s8)
bfc0b0f8:	00621825 	or	v1,v1,v0
bfc0b0fc:	afc30038 	sw	v1,56(s8)
bfc0b100:	8fc20038 	lw	v0,56(s8)
bfc0b104:	afc20010 	sw	v0,16(s8)
D:\loongson\works\ls1d-mylib\lib\func/public.c:22
bfc0b108:	8fc20018 	lw	v0,24(s8)
bfc0b10c:	1040000b 	beqz	v0,bfc0b13c <printf_float+0x1dc>
bfc0b110:	00000000 	nop
D:\loongson\works\ls1d-mylib\lib\func/public.c:23
bfc0b114:	3c02bfc1 	lui	v0,0xbfc1
bfc0b118:	2444d650 	addiu	a0,v0,-10672
bfc0b11c:	8fc50014 	lw	a1,20(s8)
bfc0b120:	8fc60010 	lw	a2,16(s8)
bfc0b124:	3c02bfc1 	lui	v0,0xbfc1
bfc0b128:	2459be10 	addiu	t9,v0,-16880
bfc0b12c:	0320f809 	jalr	t9
bfc0b130:	00000000 	nop
bfc0b134:	0bf02c57 	j	bfc0b15c <printf_float+0x1fc>
bfc0b138:	00000000 	nop
D:\loongson\works\ls1d-mylib\lib\func/public.c:26
bfc0b13c:	3c02bfc1 	lui	v0,0xbfc1
bfc0b140:	2444d65c 	addiu	a0,v0,-10660
bfc0b144:	8fc50014 	lw	a1,20(s8)
bfc0b148:	8fc60010 	lw	a2,16(s8)
bfc0b14c:	3c02bfc1 	lui	v0,0xbfc1
bfc0b150:	2459be10 	addiu	t9,v0,-16880
bfc0b154:	0320f809 	jalr	t9
bfc0b158:	00000000 	nop
D:\loongson\works\ls1d-mylib\lib\func/public.c:29
bfc0b15c:	00001021 	move	v0,zero
D:\loongson\works\ls1d-mylib\lib\func/public.c:30
bfc0b160:	03c0e821 	move	sp,s8
bfc0b164:	8fbf0044 	lw	ra,68(sp)
bfc0b168:	8fbe0040 	lw	s8,64(sp)
bfc0b16c:	27bd0048 	addiu	sp,sp,72
bfc0b170:	03e00008 	jr	ra
bfc0b174:	00000000 	nop

bfc0b178 <str2num>:
str2num():
D:\loongson\works\ls1d-mylib\lib\func/public.c:33
bfc0b178:	27bdffd0 	addiu	sp,sp,-48
bfc0b17c:	afbf002c 	sw	ra,44(sp)
bfc0b180:	afbe0028 	sw	s8,40(sp)
bfc0b184:	03a0f021 	move	s8,sp
bfc0b188:	afc40030 	sw	a0,48(s8)
D:\loongson\works\ls1d-mylib\lib\func/public.c:34
bfc0b18c:	afc0001c 	sw	zero,28(s8)
D:\loongson\works\ls1d-mylib\lib\func/public.c:39
bfc0b190:	8fc20030 	lw	v0,48(s8)
bfc0b194:	90430000 	lbu	v1,0(v0)
bfc0b198:	24020030 	li	v0,48
bfc0b19c:	14620013 	bne	v1,v0,bfc0b1ec <str2num+0x74>
bfc0b1a0:	00000000 	nop
bfc0b1a4:	8fc20030 	lw	v0,48(s8)
bfc0b1a8:	24420001 	addiu	v0,v0,1
bfc0b1ac:	90430000 	lbu	v1,0(v0)
bfc0b1b0:	24020078 	li	v0,120
bfc0b1b4:	10620007 	beq	v1,v0,bfc0b1d4 <str2num+0x5c>
bfc0b1b8:	00000000 	nop
bfc0b1bc:	8fc20030 	lw	v0,48(s8)
bfc0b1c0:	24420001 	addiu	v0,v0,1
bfc0b1c4:	90430000 	lbu	v1,0(v0)
bfc0b1c8:	24020058 	li	v0,88
bfc0b1cc:	14620007 	bne	v1,v0,bfc0b1ec <str2num+0x74>
bfc0b1d0:	00000000 	nop
D:\loongson\works\ls1d-mylib\lib\func/public.c:41
bfc0b1d4:	24020002 	li	v0,2
bfc0b1d8:	afc20010 	sw	v0,16(s8)
D:\loongson\works\ls1d-mylib\lib\func/public.c:42
bfc0b1dc:	24020010 	li	v0,16
bfc0b1e0:	afc20018 	sw	v0,24(s8)
bfc0b1e4:	0bf02cf7 	j	bfc0b3dc <str2num+0x264>
bfc0b1e8:	00000000 	nop
D:\loongson\works\ls1d-mylib\lib\func/public.c:44
bfc0b1ec:	8fc20030 	lw	v0,48(s8)
bfc0b1f0:	90430000 	lbu	v1,0(v0)
bfc0b1f4:	24020030 	li	v0,48
bfc0b1f8:	14620007 	bne	v1,v0,bfc0b218 <str2num+0xa0>
bfc0b1fc:	00000000 	nop
D:\loongson\works\ls1d-mylib\lib\func/public.c:46
bfc0b200:	24020001 	li	v0,1
bfc0b204:	afc20010 	sw	v0,16(s8)
D:\loongson\works\ls1d-mylib\lib\func/public.c:47
bfc0b208:	24020008 	li	v0,8
bfc0b20c:	afc20018 	sw	v0,24(s8)
bfc0b210:	0bf02cf7 	j	bfc0b3dc <str2num+0x264>
bfc0b214:	00000000 	nop
D:\loongson\works\ls1d-mylib\lib\func/public.c:51
bfc0b218:	afc00010 	sw	zero,16(s8)
D:\loongson\works\ls1d-mylib\lib\func/public.c:52
bfc0b21c:	2402000a 	li	v0,10
bfc0b220:	afc20018 	sw	v0,24(s8)
bfc0b224:	0bf02cf7 	j	bfc0b3dc <str2num+0x264>
bfc0b228:	00000000 	nop
D:\loongson\works\ls1d-mylib\lib\func/public.c:57
bfc0b22c:	8fc30030 	lw	v1,48(s8)
bfc0b230:	8fc20010 	lw	v0,16(s8)
bfc0b234:	00621021 	addu	v0,v1,v0
bfc0b238:	90420000 	lbu	v0,0(v0)
bfc0b23c:	afc20014 	sw	v0,20(s8)
D:\loongson\works\ls1d-mylib\lib\func/public.c:58
bfc0b240:	8fc20018 	lw	v0,24(s8)
bfc0b244:	afc20020 	sw	v0,32(s8)
bfc0b248:	2402000a 	li	v0,10
bfc0b24c:	8fc30020 	lw	v1,32(s8)
bfc0b250:	10620046 	beq	v1,v0,bfc0b36c <str2num+0x1f4>
bfc0b254:	00000000 	nop
bfc0b258:	24020010 	li	v0,16
bfc0b25c:	8fc30020 	lw	v1,32(s8)
bfc0b260:	10620007 	beq	v1,v0,bfc0b280 <str2num+0x108>
bfc0b264:	00000000 	nop
bfc0b268:	24020008 	li	v0,8
bfc0b26c:	8fc30020 	lw	v1,32(s8)
bfc0b270:	1062003e 	beq	v1,v0,bfc0b36c <str2num+0x1f4>
bfc0b274:	00000000 	nop
bfc0b278:	0bf02cf4 	j	bfc0b3d0 <str2num+0x258>
bfc0b27c:	00000000 	nop
D:\loongson\works\ls1d-mylib\lib\func/public.c:60
bfc0b280:	8fc20014 	lw	v0,20(s8)
bfc0b284:	2c420030 	sltiu	v0,v0,48
bfc0b288:	1440000e 	bnez	v0,bfc0b2c4 <str2num+0x14c>
bfc0b28c:	00000000 	nop
bfc0b290:	8fc20014 	lw	v0,20(s8)
bfc0b294:	2c42003a 	sltiu	v0,v0,58
bfc0b298:	1040000a 	beqz	v0,bfc0b2c4 <str2num+0x14c>
bfc0b29c:	00000000 	nop
D:\loongson\works\ls1d-mylib\lib\func/public.c:61
bfc0b2a0:	8fc3001c 	lw	v1,28(s8)
bfc0b2a4:	8fc20018 	lw	v0,24(s8)
bfc0b2a8:	70621802 	mul	v1,v1,v0
bfc0b2ac:	8fc20014 	lw	v0,20(s8)
bfc0b2b0:	00621021 	addu	v0,v1,v0
bfc0b2b4:	2442ffd0 	addiu	v0,v0,-48
bfc0b2b8:	afc2001c 	sw	v0,28(s8)
bfc0b2bc:	0bf02cf4 	j	bfc0b3d0 <str2num+0x258>
bfc0b2c0:	00000000 	nop
D:\loongson\works\ls1d-mylib\lib\func/public.c:62
bfc0b2c4:	8fc20014 	lw	v0,20(s8)
bfc0b2c8:	2c420061 	sltiu	v0,v0,97
bfc0b2cc:	1440000e 	bnez	v0,bfc0b308 <str2num+0x190>
bfc0b2d0:	00000000 	nop
bfc0b2d4:	8fc20014 	lw	v0,20(s8)
bfc0b2d8:	2c420067 	sltiu	v0,v0,103
bfc0b2dc:	1040000a 	beqz	v0,bfc0b308 <str2num+0x190>
bfc0b2e0:	00000000 	nop
D:\loongson\works\ls1d-mylib\lib\func/public.c:63
bfc0b2e4:	8fc3001c 	lw	v1,28(s8)
bfc0b2e8:	8fc20018 	lw	v0,24(s8)
bfc0b2ec:	70621802 	mul	v1,v1,v0
bfc0b2f0:	8fc20014 	lw	v0,20(s8)
bfc0b2f4:	00621021 	addu	v0,v1,v0
bfc0b2f8:	2442ffa9 	addiu	v0,v0,-87
bfc0b2fc:	afc2001c 	sw	v0,28(s8)
bfc0b300:	0bf02cf4 	j	bfc0b3d0 <str2num+0x258>
bfc0b304:	00000000 	nop
D:\loongson\works\ls1d-mylib\lib\func/public.c:64
bfc0b308:	8fc20014 	lw	v0,20(s8)
bfc0b30c:	2c420041 	sltiu	v0,v0,65
bfc0b310:	1440000e 	bnez	v0,bfc0b34c <str2num+0x1d4>
bfc0b314:	00000000 	nop
bfc0b318:	8fc20014 	lw	v0,20(s8)
bfc0b31c:	2c420047 	sltiu	v0,v0,71
bfc0b320:	1040000a 	beqz	v0,bfc0b34c <str2num+0x1d4>
bfc0b324:	00000000 	nop
D:\loongson\works\ls1d-mylib\lib\func/public.c:65
bfc0b328:	8fc3001c 	lw	v1,28(s8)
bfc0b32c:	8fc20018 	lw	v0,24(s8)
bfc0b330:	70621802 	mul	v1,v1,v0
bfc0b334:	8fc20014 	lw	v0,20(s8)
bfc0b338:	00621021 	addu	v0,v1,v0
bfc0b33c:	2442ffc9 	addiu	v0,v0,-55
bfc0b340:	afc2001c 	sw	v0,28(s8)
bfc0b344:	0bf02cf4 	j	bfc0b3d0 <str2num+0x258>
bfc0b348:	00000000 	nop
D:\loongson\works\ls1d-mylib\lib\func/public.c:67
bfc0b34c:	3c02bfc1 	lui	v0,0xbfc1
bfc0b350:	2444d664 	addiu	a0,v0,-10652
bfc0b354:	3c02bfc1 	lui	v0,0xbfc1
bfc0b358:	2459bcb0 	addiu	t9,v0,-17232
bfc0b35c:	0320f809 	jalr	t9
bfc0b360:	00000000 	nop
bfc0b364:	0bf02cf4 	j	bfc0b3d0 <str2num+0x258>
bfc0b368:	00000000 	nop
D:\loongson\works\ls1d-mylib\lib\func/public.c:71
bfc0b36c:	8fc20014 	lw	v0,20(s8)
bfc0b370:	2c420030 	sltiu	v0,v0,48
bfc0b374:	14400010 	bnez	v0,bfc0b3b8 <str2num+0x240>
bfc0b378:	00000000 	nop
bfc0b37c:	8fc20018 	lw	v0,24(s8)
bfc0b380:	24430030 	addiu	v1,v0,48
bfc0b384:	8fc20014 	lw	v0,20(s8)
bfc0b388:	0043102b 	sltu	v0,v0,v1
bfc0b38c:	1040000a 	beqz	v0,bfc0b3b8 <str2num+0x240>
bfc0b390:	00000000 	nop
D:\loongson\works\ls1d-mylib\lib\func/public.c:72
bfc0b394:	8fc3001c 	lw	v1,28(s8)
bfc0b398:	8fc20018 	lw	v0,24(s8)
bfc0b39c:	70621802 	mul	v1,v1,v0
bfc0b3a0:	8fc20014 	lw	v0,20(s8)
bfc0b3a4:	00621021 	addu	v0,v1,v0
bfc0b3a8:	2442ffd0 	addiu	v0,v0,-48
bfc0b3ac:	afc2001c 	sw	v0,28(s8)
bfc0b3b0:	0bf02cf4 	j	bfc0b3d0 <str2num+0x258>
bfc0b3b4:	00000000 	nop
D:\loongson\works\ls1d-mylib\lib\func/public.c:74
bfc0b3b8:	3c02bfc1 	lui	v0,0xbfc1
bfc0b3bc:	2444d67c 	addiu	a0,v0,-10628
bfc0b3c0:	3c02bfc1 	lui	v0,0xbfc1
bfc0b3c4:	2459bcb0 	addiu	t9,v0,-17232
bfc0b3c8:	0320f809 	jalr	t9
bfc0b3cc:	00000000 	nop
D:\loongson\works\ls1d-mylib\lib\func/public.c:55
bfc0b3d0:	8fc20010 	lw	v0,16(s8)
bfc0b3d4:	24420001 	addiu	v0,v0,1
bfc0b3d8:	afc20010 	sw	v0,16(s8)
bfc0b3dc:	8fc30030 	lw	v1,48(s8)
bfc0b3e0:	8fc20010 	lw	v0,16(s8)
bfc0b3e4:	00621021 	addu	v0,v1,v0
bfc0b3e8:	90420000 	lbu	v0,0(v0)
bfc0b3ec:	1440ff8f 	bnez	v0,bfc0b22c <str2num+0xb4>
bfc0b3f0:	00000000 	nop
D:\loongson\works\ls1d-mylib\lib\func/public.c:81
bfc0b3f4:	8fc2001c 	lw	v0,28(s8)
D:\loongson\works\ls1d-mylib\lib\func/public.c:82
bfc0b3f8:	03c0e821 	move	sp,s8
bfc0b3fc:	8fbf002c 	lw	ra,44(sp)
bfc0b400:	8fbe0028 	lw	s8,40(sp)
bfc0b404:	27bd0030 	addiu	sp,sp,48
bfc0b408:	03e00008 	jr	ra
bfc0b40c:	00000000 	nop

bfc0b410 <my1d_delay>:
my1d_delay():
D:\loongson\works\ls1d-mylib\lib\func/public.c:86
bfc0b410:	27bdfff0 	addiu	sp,sp,-16
bfc0b414:	afbe000c 	sw	s8,12(sp)
bfc0b418:	03a0f021 	move	s8,sp
bfc0b41c:	afc40010 	sw	a0,16(s8)
D:\loongson\works\ls1d-mylib\lib\func/public.c:88
bfc0b420:	afc00000 	sw	zero,0(s8)
bfc0b424:	0bf02d0e 	j	bfc0b438 <my1d_delay+0x28>
bfc0b428:	00000000 	nop
bfc0b42c:	8fc20000 	lw	v0,0(s8)
bfc0b430:	24420001 	addiu	v0,v0,1
bfc0b434:	afc20000 	sw	v0,0(s8)
bfc0b438:	8fc20000 	lw	v0,0(s8)
bfc0b43c:	8fc30010 	lw	v1,16(s8)
bfc0b440:	0043102b 	sltu	v0,v0,v1
bfc0b444:	1440fff9 	bnez	v0,bfc0b42c <my1d_delay+0x1c>
bfc0b448:	00000000 	nop
D:\loongson\works\ls1d-mylib\lib\func/public.c:89
bfc0b44c:	03c0e821 	move	sp,s8
bfc0b450:	8fbe000c 	lw	s8,12(sp)
bfc0b454:	27bd0010 	addiu	sp,sp,16
bfc0b458:	03e00008 	jr	ra
bfc0b45c:	00000000 	nop

bfc0b460 <UintToBcd>:
UintToBcd():
D:\loongson\works\ls1d-mylib\lib\func/public.c:103
bfc0b460:	27bdfff8 	addiu	sp,sp,-8
bfc0b464:	afbe0004 	sw	s8,4(sp)
bfc0b468:	03a0f021 	move	s8,sp
bfc0b46c:	afc40008 	sw	a0,8(s8)
bfc0b470:	afc5000c 	sw	a1,12(s8)
D:\loongson\works\ls1d-mylib\lib\func/public.c:104
bfc0b474:	8fc40008 	lw	a0,8(s8)
bfc0b478:	3c0255e6 	lui	v0,0x55e6
bfc0b47c:	34423b89 	ori	v0,v0,0x3b89
bfc0b480:	00820019 	multu	a0,v0
bfc0b484:	00001010 	mfhi	v0
bfc0b488:	00021e42 	srl	v1,v0,0x19
bfc0b48c:	3c0205f5 	lui	v0,0x5f5
bfc0b490:	3442e100 	ori	v0,v0,0xe100
bfc0b494:	70621002 	mul	v0,v1,v0
bfc0b498:	00821023 	subu	v0,a0,v0
bfc0b49c:	afc20008 	sw	v0,8(s8)
D:\loongson\works\ls1d-mylib\lib\func/public.c:105
bfc0b4a0:	8fc2000c 	lw	v0,12(s8)
bfc0b4a4:	24440003 	addiu	a0,v0,3
bfc0b4a8:	8fc30008 	lw	v1,8(s8)
bfc0b4ac:	3c026b5f 	lui	v0,0x6b5f
bfc0b4b0:	3442ca6b 	ori	v0,v0,0xca6b
bfc0b4b4:	00620019 	multu	v1,v0
bfc0b4b8:	00001010 	mfhi	v0
bfc0b4bc:	00021582 	srl	v0,v0,0x16
bfc0b4c0:	304200ff 	andi	v0,v0,0xff
bfc0b4c4:	a0820000 	sb	v0,0(a0)
D:\loongson\works\ls1d-mylib\lib\func/public.c:106
bfc0b4c8:	8fc2000c 	lw	v0,12(s8)
bfc0b4cc:	24430003 	addiu	v1,v0,3
bfc0b4d0:	8fc2000c 	lw	v0,12(s8)
bfc0b4d4:	24420003 	addiu	v0,v0,3
bfc0b4d8:	90420000 	lbu	v0,0(v0)
bfc0b4dc:	00021100 	sll	v0,v0,0x4
bfc0b4e0:	304200ff 	andi	v0,v0,0xff
bfc0b4e4:	a0620000 	sb	v0,0(v1)
D:\loongson\works\ls1d-mylib\lib\func/public.c:107
bfc0b4e8:	8fc40008 	lw	a0,8(s8)
bfc0b4ec:	3c026b5f 	lui	v0,0x6b5f
bfc0b4f0:	3442ca6b 	ori	v0,v0,0xca6b
bfc0b4f4:	00820019 	multu	a0,v0
bfc0b4f8:	00001010 	mfhi	v0
bfc0b4fc:	00021d82 	srl	v1,v0,0x16
bfc0b500:	3c020098 	lui	v0,0x98
bfc0b504:	34429680 	ori	v0,v0,0x9680
bfc0b508:	70621002 	mul	v0,v1,v0
bfc0b50c:	00821023 	subu	v0,a0,v0
bfc0b510:	afc20008 	sw	v0,8(s8)
D:\loongson\works\ls1d-mylib\lib\func/public.c:108
bfc0b514:	8fc2000c 	lw	v0,12(s8)
bfc0b518:	24450003 	addiu	a1,v0,3
bfc0b51c:	8fc2000c 	lw	v0,12(s8)
bfc0b520:	24420003 	addiu	v0,v0,3
bfc0b524:	90440000 	lbu	a0,0(v0)
bfc0b528:	8fc30008 	lw	v1,8(s8)
bfc0b52c:	3c02431b 	lui	v0,0x431b
bfc0b530:	3442de83 	ori	v0,v0,0xde83
bfc0b534:	00620019 	multu	v1,v0
bfc0b538:	00001010 	mfhi	v0
bfc0b53c:	00021482 	srl	v0,v0,0x12
bfc0b540:	304200ff 	andi	v0,v0,0xff
bfc0b544:	00821025 	or	v0,a0,v0
bfc0b548:	304200ff 	andi	v0,v0,0xff
bfc0b54c:	a0a20000 	sb	v0,0(a1)
D:\loongson\works\ls1d-mylib\lib\func/public.c:110
bfc0b550:	8fc40008 	lw	a0,8(s8)
bfc0b554:	3c02431b 	lui	v0,0x431b
bfc0b558:	3442de83 	ori	v0,v0,0xde83
bfc0b55c:	00820019 	multu	a0,v0
bfc0b560:	00001010 	mfhi	v0
bfc0b564:	00021c82 	srl	v1,v0,0x12
bfc0b568:	3c02000f 	lui	v0,0xf
bfc0b56c:	34424240 	ori	v0,v0,0x4240
bfc0b570:	70621002 	mul	v0,v1,v0
bfc0b574:	00821023 	subu	v0,a0,v0
bfc0b578:	afc20008 	sw	v0,8(s8)
D:\loongson\works\ls1d-mylib\lib\func/public.c:111
bfc0b57c:	8fc2000c 	lw	v0,12(s8)
bfc0b580:	24440002 	addiu	a0,v0,2
bfc0b584:	8fc20008 	lw	v0,8(s8)
bfc0b588:	00021942 	srl	v1,v0,0x5
bfc0b58c:	3c020a7c 	lui	v0,0xa7c
bfc0b590:	34425ac5 	ori	v0,v0,0x5ac5
bfc0b594:	00620019 	multu	v1,v0
bfc0b598:	00001010 	mfhi	v0
bfc0b59c:	000211c2 	srl	v0,v0,0x7
bfc0b5a0:	304200ff 	andi	v0,v0,0xff
bfc0b5a4:	a0820000 	sb	v0,0(a0)
D:\loongson\works\ls1d-mylib\lib\func/public.c:112
bfc0b5a8:	8fc2000c 	lw	v0,12(s8)
bfc0b5ac:	24430002 	addiu	v1,v0,2
bfc0b5b0:	8fc2000c 	lw	v0,12(s8)
bfc0b5b4:	24420002 	addiu	v0,v0,2
bfc0b5b8:	90420000 	lbu	v0,0(v0)
bfc0b5bc:	00021100 	sll	v0,v0,0x4
bfc0b5c0:	304200ff 	andi	v0,v0,0xff
bfc0b5c4:	a0620000 	sb	v0,0(v1)
D:\loongson\works\ls1d-mylib\lib\func/public.c:113
bfc0b5c8:	8fc40008 	lw	a0,8(s8)
bfc0b5cc:	00041942 	srl	v1,a0,0x5
bfc0b5d0:	3c020a7c 	lui	v0,0xa7c
bfc0b5d4:	34425ac5 	ori	v0,v0,0x5ac5
bfc0b5d8:	00620019 	multu	v1,v0
bfc0b5dc:	00001010 	mfhi	v0
bfc0b5e0:	000219c2 	srl	v1,v0,0x7
bfc0b5e4:	3c020001 	lui	v0,0x1
bfc0b5e8:	344286a0 	ori	v0,v0,0x86a0
bfc0b5ec:	70621002 	mul	v0,v1,v0
bfc0b5f0:	00821023 	subu	v0,a0,v0
bfc0b5f4:	afc20008 	sw	v0,8(s8)
D:\loongson\works\ls1d-mylib\lib\func/public.c:114
bfc0b5f8:	8fc2000c 	lw	v0,12(s8)
bfc0b5fc:	24450002 	addiu	a1,v0,2
bfc0b600:	8fc2000c 	lw	v0,12(s8)
bfc0b604:	24420002 	addiu	v0,v0,2
bfc0b608:	90440000 	lbu	a0,0(v0)
bfc0b60c:	8fc30008 	lw	v1,8(s8)
bfc0b610:	3c02d1b7 	lui	v0,0xd1b7
bfc0b614:	34421759 	ori	v0,v0,0x1759
bfc0b618:	00620019 	multu	v1,v0
bfc0b61c:	00001010 	mfhi	v0
bfc0b620:	00021342 	srl	v0,v0,0xd
bfc0b624:	304200ff 	andi	v0,v0,0xff
bfc0b628:	00821025 	or	v0,a0,v0
bfc0b62c:	304200ff 	andi	v0,v0,0xff
bfc0b630:	a0a20000 	sb	v0,0(a1)
D:\loongson\works\ls1d-mylib\lib\func/public.c:116
bfc0b634:	8fc40008 	lw	a0,8(s8)
bfc0b638:	3c02d1b7 	lui	v0,0xd1b7
bfc0b63c:	34421759 	ori	v0,v0,0x1759
bfc0b640:	00820019 	multu	a0,v0
bfc0b644:	00001010 	mfhi	v0
bfc0b648:	00021b42 	srl	v1,v0,0xd
bfc0b64c:	24022710 	li	v0,10000
bfc0b650:	70621002 	mul	v0,v1,v0
bfc0b654:	00821023 	subu	v0,a0,v0
bfc0b658:	afc20008 	sw	v0,8(s8)
D:\loongson\works\ls1d-mylib\lib\func/public.c:117
bfc0b65c:	8fc2000c 	lw	v0,12(s8)
bfc0b660:	24440001 	addiu	a0,v0,1
bfc0b664:	8fc30008 	lw	v1,8(s8)
bfc0b668:	3c021062 	lui	v0,0x1062
bfc0b66c:	34424dd3 	ori	v0,v0,0x4dd3
bfc0b670:	00620019 	multu	v1,v0
bfc0b674:	00001010 	mfhi	v0
bfc0b678:	00021182 	srl	v0,v0,0x6
bfc0b67c:	304200ff 	andi	v0,v0,0xff
bfc0b680:	a0820000 	sb	v0,0(a0)
D:\loongson\works\ls1d-mylib\lib\func/public.c:118
bfc0b684:	8fc2000c 	lw	v0,12(s8)
bfc0b688:	24430001 	addiu	v1,v0,1
bfc0b68c:	8fc2000c 	lw	v0,12(s8)
bfc0b690:	24420001 	addiu	v0,v0,1
bfc0b694:	90420000 	lbu	v0,0(v0)
bfc0b698:	00021100 	sll	v0,v0,0x4
bfc0b69c:	304200ff 	andi	v0,v0,0xff
bfc0b6a0:	a0620000 	sb	v0,0(v1)
D:\loongson\works\ls1d-mylib\lib\func/public.c:119
bfc0b6a4:	8fc50008 	lw	a1,8(s8)
bfc0b6a8:	3c021062 	lui	v0,0x1062
bfc0b6ac:	34424dd3 	ori	v0,v0,0x4dd3
bfc0b6b0:	00a20019 	multu	a1,v0
bfc0b6b4:	00001010 	mfhi	v0
bfc0b6b8:	00022182 	srl	a0,v0,0x6
bfc0b6bc:	00801021 	move	v0,a0
bfc0b6c0:	00021880 	sll	v1,v0,0x2
bfc0b6c4:	00031140 	sll	v0,v1,0x5
bfc0b6c8:	00431023 	subu	v0,v0,v1
bfc0b6cc:	00441021 	addu	v0,v0,a0
bfc0b6d0:	000210c0 	sll	v0,v0,0x3
bfc0b6d4:	00a21023 	subu	v0,a1,v0
bfc0b6d8:	afc20008 	sw	v0,8(s8)
D:\loongson\works\ls1d-mylib\lib\func/public.c:120
bfc0b6dc:	8fc2000c 	lw	v0,12(s8)
bfc0b6e0:	24450001 	addiu	a1,v0,1
bfc0b6e4:	8fc2000c 	lw	v0,12(s8)
bfc0b6e8:	24420001 	addiu	v0,v0,1
bfc0b6ec:	90440000 	lbu	a0,0(v0)
bfc0b6f0:	8fc30008 	lw	v1,8(s8)
bfc0b6f4:	3c0251eb 	lui	v0,0x51eb
bfc0b6f8:	3442851f 	ori	v0,v0,0x851f
bfc0b6fc:	00620019 	multu	v1,v0
bfc0b700:	00001010 	mfhi	v0
bfc0b704:	00021142 	srl	v0,v0,0x5
bfc0b708:	304200ff 	andi	v0,v0,0xff
bfc0b70c:	00821025 	or	v0,a0,v0
bfc0b710:	304200ff 	andi	v0,v0,0xff
bfc0b714:	a0a20000 	sb	v0,0(a1)
D:\loongson\works\ls1d-mylib\lib\func/public.c:122
bfc0b718:	8fc40008 	lw	a0,8(s8)
bfc0b71c:	3c0251eb 	lui	v0,0x51eb
bfc0b720:	3442851f 	ori	v0,v0,0x851f
bfc0b724:	00820019 	multu	a0,v0
bfc0b728:	00001010 	mfhi	v0
bfc0b72c:	00021142 	srl	v0,v0,0x5
bfc0b730:	00021080 	sll	v0,v0,0x2
bfc0b734:	00021880 	sll	v1,v0,0x2
bfc0b738:	00431021 	addu	v0,v0,v1
bfc0b73c:	00021880 	sll	v1,v0,0x2
bfc0b740:	00431021 	addu	v0,v0,v1
bfc0b744:	00821023 	subu	v0,a0,v0
bfc0b748:	afc20008 	sw	v0,8(s8)
D:\loongson\works\ls1d-mylib\lib\func/public.c:123
bfc0b74c:	8fc30008 	lw	v1,8(s8)
bfc0b750:	3c02cccc 	lui	v0,0xcccc
bfc0b754:	3442cccd 	ori	v0,v0,0xcccd
bfc0b758:	00620019 	multu	v1,v0
bfc0b75c:	00001010 	mfhi	v0
bfc0b760:	000210c2 	srl	v0,v0,0x3
bfc0b764:	304300ff 	andi	v1,v0,0xff
bfc0b768:	8fc2000c 	lw	v0,12(s8)
bfc0b76c:	a0430000 	sb	v1,0(v0)
D:\loongson\works\ls1d-mylib\lib\func/public.c:124
bfc0b770:	8fc2000c 	lw	v0,12(s8)
bfc0b774:	90420000 	lbu	v0,0(v0)
bfc0b778:	00021100 	sll	v0,v0,0x4
bfc0b77c:	304300ff 	andi	v1,v0,0xff
bfc0b780:	8fc2000c 	lw	v0,12(s8)
bfc0b784:	a0430000 	sb	v1,0(v0)
D:\loongson\works\ls1d-mylib\lib\func/public.c:125
bfc0b788:	8fc40008 	lw	a0,8(s8)
bfc0b78c:	3c02cccc 	lui	v0,0xcccc
bfc0b790:	3442cccd 	ori	v0,v0,0xcccd
bfc0b794:	00820019 	multu	a0,v0
bfc0b798:	00001010 	mfhi	v0
bfc0b79c:	000210c2 	srl	v0,v0,0x3
bfc0b7a0:	00021040 	sll	v0,v0,0x1
bfc0b7a4:	00021880 	sll	v1,v0,0x2
bfc0b7a8:	00431021 	addu	v0,v0,v1
bfc0b7ac:	00821023 	subu	v0,a0,v0
bfc0b7b0:	afc20008 	sw	v0,8(s8)
D:\loongson\works\ls1d-mylib\lib\func/public.c:126
bfc0b7b4:	8fc2000c 	lw	v0,12(s8)
bfc0b7b8:	90430000 	lbu	v1,0(v0)
bfc0b7bc:	8fc20008 	lw	v0,8(s8)
bfc0b7c0:	304200ff 	andi	v0,v0,0xff
bfc0b7c4:	00621025 	or	v0,v1,v0
bfc0b7c8:	304300ff 	andi	v1,v0,0xff
bfc0b7cc:	8fc2000c 	lw	v0,12(s8)
bfc0b7d0:	a0430000 	sb	v1,0(v0)
D:\loongson\works\ls1d-mylib\lib\func/public.c:128
bfc0b7d4:	00001021 	move	v0,zero
D:\loongson\works\ls1d-mylib\lib\func/public.c:129
bfc0b7d8:	03c0e821 	move	sp,s8
bfc0b7dc:	8fbe0004 	lw	s8,4(sp)
bfc0b7e0:	27bd0008 	addiu	sp,sp,8
bfc0b7e4:	03e00008 	jr	ra
bfc0b7e8:	00000000 	nop

bfc0b7ec <set_pulse>:
set_pulse():
D:\loongson\works\ls1d-mylib\lib\func/public.c:161
bfc0b7ec:	27bdfff0 	addiu	sp,sp,-16
bfc0b7f0:	afbe000c 	sw	s8,12(sp)
bfc0b7f4:	03a0f021 	move	s8,sp
bfc0b7f8:	afc40010 	sw	a0,16(s8)
bfc0b7fc:	afc50014 	sw	a1,20(s8)
bfc0b800:	afc60018 	sw	a2,24(s8)
D:\loongson\works\ls1d-mylib\lib\func/public.c:162
bfc0b804:	8fc20010 	lw	v0,16(s8)
bfc0b808:	afc20000 	sw	v0,0(s8)
bfc0b80c:	8fc30000 	lw	v1,0(s8)
bfc0b810:	10600007 	beqz	v1,bfc0b830 <set_pulse+0x44>
bfc0b814:	00000000 	nop
bfc0b818:	24020001 	li	v0,1
bfc0b81c:	8fc30000 	lw	v1,0(s8)
bfc0b820:	1062001d 	beq	v1,v0,bfc0b898 <set_pulse+0xac>
bfc0b824:	00000000 	nop
bfc0b828:	0bf02e3e 	j	bfc0b8f8 <set_pulse+0x10c>
bfc0b82c:	00000000 	nop
D:\loongson\works\ls1d-mylib\lib\func/public.c:164
bfc0b830:	3c02bfeb 	lui	v0,0xbfeb
bfc0b834:	34430048 	ori	v1,v0,0x48
bfc0b838:	8fc20018 	lw	v0,24(s8)
bfc0b83c:	3042ffff 	andi	v0,v0,0xffff
bfc0b840:	ac620000 	sw	v0,0(v1)
D:\loongson\works\ls1d-mylib\lib\func/public.c:165
bfc0b844:	8fc20014 	lw	v0,20(s8)
bfc0b848:	10400009 	beqz	v0,bfc0b870 <set_pulse+0x84>
bfc0b84c:	00000000 	nop
D:\loongson\works\ls1d-mylib\lib\func/public.c:166
bfc0b850:	3c02bfeb 	lui	v0,0xbfeb
bfc0b854:	34440048 	ori	a0,v0,0x48
bfc0b858:	3c02bfeb 	lui	v0,0xbfeb
bfc0b85c:	34420048 	ori	v0,v0,0x48
bfc0b860:	8c430000 	lw	v1,0(v0)
bfc0b864:	3c020001 	lui	v0,0x1
bfc0b868:	00621025 	or	v0,v1,v0
bfc0b86c:	ac820000 	sw	v0,0(a0)
D:\loongson\works\ls1d-mylib\lib\func/public.c:167
bfc0b870:	3c02bfeb 	lui	v0,0xbfeb
bfc0b874:	34440048 	ori	a0,v0,0x48
bfc0b878:	3c02bfeb 	lui	v0,0xbfeb
bfc0b87c:	34420048 	ori	v0,v0,0x48
bfc0b880:	8c430000 	lw	v1,0(v0)
bfc0b884:	3c020002 	lui	v0,0x2
bfc0b888:	00621025 	or	v0,v1,v0
bfc0b88c:	ac820000 	sw	v0,0(a0)
bfc0b890:	0bf02e3e 	j	bfc0b8f8 <set_pulse+0x10c>
bfc0b894:	00000000 	nop
D:\loongson\works\ls1d-mylib\lib\func/public.c:170
bfc0b898:	3c02bfeb 	lui	v0,0xbfeb
bfc0b89c:	3443004c 	ori	v1,v0,0x4c
bfc0b8a0:	8fc20018 	lw	v0,24(s8)
bfc0b8a4:	3042ffff 	andi	v0,v0,0xffff
bfc0b8a8:	ac620000 	sw	v0,0(v1)
D:\loongson\works\ls1d-mylib\lib\func/public.c:171
bfc0b8ac:	8fc20014 	lw	v0,20(s8)
bfc0b8b0:	10400009 	beqz	v0,bfc0b8d8 <set_pulse+0xec>
bfc0b8b4:	00000000 	nop
D:\loongson\works\ls1d-mylib\lib\func/public.c:172
bfc0b8b8:	3c02bfeb 	lui	v0,0xbfeb
bfc0b8bc:	3444004c 	ori	a0,v0,0x4c
bfc0b8c0:	3c02bfeb 	lui	v0,0xbfeb
bfc0b8c4:	3442004c 	ori	v0,v0,0x4c
bfc0b8c8:	8c430000 	lw	v1,0(v0)
bfc0b8cc:	3c020001 	lui	v0,0x1
bfc0b8d0:	00621025 	or	v0,v1,v0
bfc0b8d4:	ac820000 	sw	v0,0(a0)
D:\loongson\works\ls1d-mylib\lib\func/public.c:173
bfc0b8d8:	3c02bfeb 	lui	v0,0xbfeb
bfc0b8dc:	3444004c 	ori	a0,v0,0x4c
bfc0b8e0:	3c02bfeb 	lui	v0,0xbfeb
bfc0b8e4:	3442004c 	ori	v0,v0,0x4c
bfc0b8e8:	8c430000 	lw	v1,0(v0)
bfc0b8ec:	3c020002 	lui	v0,0x2
bfc0b8f0:	00621025 	or	v0,v1,v0
bfc0b8f4:	ac820000 	sw	v0,0(a0)
D:\loongson\works\ls1d-mylib\lib\func/public.c:179
bfc0b8f8:	03c0e821 	move	sp,s8
bfc0b8fc:	8fbe000c 	lw	s8,12(sp)
bfc0b900:	27bd0010 	addiu	sp,sp,16
bfc0b904:	03e00008 	jr	ra
bfc0b908:	00000000 	nop

bfc0b90c <clear_pulse>:
clear_pulse():
D:\loongson\works\ls1d-mylib\lib\func/public.c:183
bfc0b90c:	27bdfff0 	addiu	sp,sp,-16
bfc0b910:	afbe000c 	sw	s8,12(sp)
bfc0b914:	03a0f021 	move	s8,sp
bfc0b918:	afc40010 	sw	a0,16(s8)
D:\loongson\works\ls1d-mylib\lib\func/public.c:184
bfc0b91c:	8fc20010 	lw	v0,16(s8)
bfc0b920:	afc20000 	sw	v0,0(s8)
bfc0b924:	8fc30000 	lw	v1,0(s8)
bfc0b928:	10600007 	beqz	v1,bfc0b948 <clear_pulse+0x3c>
bfc0b92c:	00000000 	nop
bfc0b930:	24020001 	li	v0,1
bfc0b934:	8fc30000 	lw	v1,0(s8)
bfc0b938:	10620008 	beq	v1,v0,bfc0b95c <clear_pulse+0x50>
bfc0b93c:	00000000 	nop
bfc0b940:	0bf02e5a 	j	bfc0b968 <clear_pulse+0x5c>
bfc0b944:	00000000 	nop
D:\loongson\works\ls1d-mylib\lib\func/public.c:186
bfc0b948:	3c02bfeb 	lui	v0,0xbfeb
bfc0b94c:	34420048 	ori	v0,v0,0x48
bfc0b950:	ac400000 	sw	zero,0(v0)
bfc0b954:	0bf02e5a 	j	bfc0b968 <clear_pulse+0x5c>
bfc0b958:	00000000 	nop
D:\loongson\works\ls1d-mylib\lib\func/public.c:189
bfc0b95c:	3c02bfeb 	lui	v0,0xbfeb
bfc0b960:	3442004c 	ori	v0,v0,0x4c
bfc0b964:	ac400000 	sw	zero,0(v0)
D:\loongson\works\ls1d-mylib\lib\func/public.c:195
bfc0b968:	03c0e821 	move	sp,s8
bfc0b96c:	8fbe000c 	lw	s8,12(sp)
bfc0b970:	27bd0010 	addiu	sp,sp,16
bfc0b974:	03e00008 	jr	ra
bfc0b978:	00000000 	nop
bfc0b97c:	00000000 	nop

bfc0b980 <ls1d_wdt_set>:
ls1d_wdt_set():
D:\loongson\works\ls1d-mylib\lib\func/watchdog.c:10
bfc0b980:	27bdfff8 	addiu	sp,sp,-8
bfc0b984:	afbe0004 	sw	s8,4(sp)
bfc0b988:	03a0f021 	move	s8,sp
bfc0b98c:	afc40008 	sw	a0,8(s8)
D:\loongson\works\ls1d-mylib\lib\func/watchdog.c:11
bfc0b990:	40086000 	mfc0	t0,c0_status
bfc0b994:	3c09ffff 	lui	t1,0xffff
bfc0b998:	352900fe 	ori	t1,t1,0xfe
bfc0b99c:	01095024 	and	t2,t0,t1
bfc0b9a0:	408a6000 	mtc0	t2,c0_status
D:\loongson\works\ls1d-mylib\lib\func/watchdog.c:12
bfc0b9a4:	3c02bfeb 	lui	v0,0xbfeb
bfc0b9a8:	3443001c 	ori	v1,v0,0x1c
bfc0b9ac:	8fc20008 	lw	v0,8(s8)
bfc0b9b0:	ac620000 	sw	v0,0(v1)
D:\loongson\works\ls1d-mylib\lib\func/watchdog.c:13
bfc0b9b4:	3c02bfeb 	lui	v0,0xbfeb
bfc0b9b8:	3443007c 	ori	v1,v0,0x7c
bfc0b9bc:	3c02cf21 	lui	v0,0xcf21
bfc0b9c0:	34426e95 	ori	v0,v0,0x6e95
bfc0b9c4:	ac620000 	sw	v0,0(v1)
D:\loongson\works\ls1d-mylib\lib\func/watchdog.c:14
bfc0b9c8:	3c02bfeb 	lui	v0,0xbfeb
bfc0b9cc:	34440004 	ori	a0,v0,0x4
bfc0b9d0:	3c02bfeb 	lui	v0,0xbfeb
bfc0b9d4:	34420004 	ori	v0,v0,0x4
bfc0b9d8:	8c430000 	lw	v1,0(v0)
bfc0b9dc:	3c022000 	lui	v0,0x2000
bfc0b9e0:	00621025 	or	v0,v1,v0
bfc0b9e4:	ac820000 	sw	v0,0(a0)
D:\loongson\works\ls1d-mylib\lib\func/watchdog.c:15
bfc0b9e8:	40086000 	mfc0	t0,c0_status
bfc0b9ec:	3c09ffff 	lui	t1,0xffff
bfc0b9f0:	352900fe 	ori	t1,t1,0xfe
bfc0b9f4:	01095024 	and	t2,t0,t1
bfc0b9f8:	3409ff01 	li	t1,0xff01
bfc0b9fc:	01494025 	or	t0,t2,t1
bfc0ba00:	40886000 	mtc0	t0,c0_status
D:\loongson\works\ls1d-mylib\lib\func/watchdog.c:16
bfc0ba04:	03c0e821 	move	sp,s8
bfc0ba08:	8fbe0004 	lw	s8,4(sp)
bfc0ba0c:	03e00008 	jr	ra
bfc0ba10:	27bd0008 	addiu	sp,sp,8

bfc0ba14 <ls1d_wdt_feed>:
ls1d_wdt_feed():
D:\loongson\works\ls1d-mylib\lib\func/watchdog.c:18
bfc0ba14:	27bdfff8 	addiu	sp,sp,-8
bfc0ba18:	afbe0004 	sw	s8,4(sp)
bfc0ba1c:	03a0f021 	move	s8,sp
D:\loongson\works\ls1d-mylib\lib\func/watchdog.c:19
bfc0ba20:	40086000 	mfc0	t0,c0_status
bfc0ba24:	3c09ffff 	lui	t1,0xffff
bfc0ba28:	352900fe 	ori	t1,t1,0xfe
bfc0ba2c:	01095024 	and	t2,t0,t1
bfc0ba30:	408a6000 	mtc0	t2,c0_status
D:\loongson\works\ls1d-mylib\lib\func/watchdog.c:20
bfc0ba34:	3c02bfeb 	lui	v0,0xbfeb
bfc0ba38:	3443007c 	ori	v1,v0,0x7c
bfc0ba3c:	3c0269e3 	lui	v0,0x69e3
bfc0ba40:	34423916 	ori	v0,v0,0x3916
bfc0ba44:	ac620000 	sw	v0,0(v1)
D:\loongson\works\ls1d-mylib\lib\func/watchdog.c:21
bfc0ba48:	3c02bfeb 	lui	v0,0xbfeb
bfc0ba4c:	34430050 	ori	v1,v0,0x50
bfc0ba50:	3c02a55a 	lui	v0,0xa55a
bfc0ba54:	344255aa 	ori	v0,v0,0x55aa
bfc0ba58:	ac620000 	sw	v0,0(v1)
D:\loongson\works\ls1d-mylib\lib\func/watchdog.c:22
bfc0ba5c:	40086000 	mfc0	t0,c0_status
bfc0ba60:	3c09ffff 	lui	t1,0xffff
bfc0ba64:	352900fe 	ori	t1,t1,0xfe
bfc0ba68:	01095024 	and	t2,t0,t1
bfc0ba6c:	3409ff01 	li	t1,0xff01
bfc0ba70:	01494025 	or	t0,t2,t1
bfc0ba74:	40886000 	mtc0	t0,c0_status
D:\loongson\works\ls1d-mylib\lib\func/watchdog.c:23
bfc0ba78:	03c0e821 	move	sp,s8
bfc0ba7c:	8fbe0004 	lw	s8,4(sp)
bfc0ba80:	03e00008 	jr	ra
bfc0ba84:	27bd0008 	addiu	sp,sp,8

bfc0ba88 <ls1d_wdt_disable>:
ls1d_wdt_disable():
D:\loongson\works\ls1d-mylib\lib\func/watchdog.c:25
bfc0ba88:	27bdfff8 	addiu	sp,sp,-8
bfc0ba8c:	afbe0004 	sw	s8,4(sp)
bfc0ba90:	03a0f021 	move	s8,sp
D:\loongson\works\ls1d-mylib\lib\func/watchdog.c:26
bfc0ba94:	40086000 	mfc0	t0,c0_status
bfc0ba98:	3c09ffff 	lui	t1,0xffff
bfc0ba9c:	352900fe 	ori	t1,t1,0xfe
bfc0baa0:	01095024 	and	t2,t0,t1
bfc0baa4:	408a6000 	mtc0	t2,c0_status
D:\loongson\works\ls1d-mylib\lib\func/watchdog.c:27
bfc0baa8:	3c02bfeb 	lui	v0,0xbfeb
bfc0baac:	3443007c 	ori	v1,v0,0x7c
bfc0bab0:	3c02cf21 	lui	v0,0xcf21
bfc0bab4:	34426e95 	ori	v0,v0,0x6e95
bfc0bab8:	ac620000 	sw	v0,0(v1)
D:\loongson\works\ls1d-mylib\lib\func/watchdog.c:28
bfc0babc:	3c02bfeb 	lui	v0,0xbfeb
bfc0bac0:	34440004 	ori	a0,v0,0x4
bfc0bac4:	3c02bfeb 	lui	v0,0xbfeb
bfc0bac8:	34420004 	ori	v0,v0,0x4
bfc0bacc:	8c430000 	lw	v1,0(v0)
bfc0bad0:	3c02dfff 	lui	v0,0xdfff
bfc0bad4:	3442ffff 	ori	v0,v0,0xffff
bfc0bad8:	00621024 	and	v0,v1,v0
bfc0badc:	ac820000 	sw	v0,0(a0)
D:\loongson\works\ls1d-mylib\lib\func/watchdog.c:29
bfc0bae0:	40086000 	mfc0	t0,c0_status
bfc0bae4:	3c09ffff 	lui	t1,0xffff
bfc0bae8:	352900fe 	ori	t1,t1,0xfe
bfc0baec:	01095024 	and	t2,t0,t1
bfc0baf0:	3409ff01 	li	t1,0xff01
bfc0baf4:	01494025 	or	t0,t2,t1
bfc0baf8:	40886000 	mtc0	t0,c0_status
D:\loongson\works\ls1d-mylib\lib\func/watchdog.c:30
bfc0bafc:	03c0e821 	move	sp,s8
bfc0bb00:	8fbe0004 	lw	s8,4(sp)
bfc0bb04:	03e00008 	jr	ra
bfc0bb08:	27bd0008 	addiu	sp,sp,8
bfc0bb0c:	00000000 	nop

bfc0bb10 <memset>:
memset():
D:\loongson\works\ls1d-mylib\lib\tinyc/memset.c:5
bfc0bb10:	27bdfff0 	addiu	sp,sp,-16
bfc0bb14:	afbe000c 	sw	s8,12(sp)
bfc0bb18:	03a0f021 	move	s8,sp
bfc0bb1c:	afc40010 	sw	a0,16(s8)
bfc0bb20:	afc50014 	sw	a1,20(s8)
bfc0bb24:	afc60018 	sw	a2,24(s8)
bfc0bb28:	8fc20010 	lw	v0,16(s8)
bfc0bb2c:	afc20000 	sw	v0,0(s8)
bfc0bb30:	0bf02ed6 	j	bfc0bb58 <memset+0x48>
bfc0bb34:	00000000 	nop
D:\loongson\works\ls1d-mylib\lib\tinyc/memset.c:8
bfc0bb38:	8fc20014 	lw	v0,20(s8)
bfc0bb3c:	00021e00 	sll	v1,v0,0x18
bfc0bb40:	00031e03 	sra	v1,v1,0x18
bfc0bb44:	8fc20000 	lw	v0,0(s8)
bfc0bb48:	a0430000 	sb	v1,0(v0)
bfc0bb4c:	8fc20000 	lw	v0,0(s8)
bfc0bb50:	24420001 	addiu	v0,v0,1
bfc0bb54:	afc20000 	sw	v0,0(s8)
D:\loongson\works\ls1d-mylib\lib\tinyc/memset.c:7
bfc0bb58:	8fc20018 	lw	v0,24(s8)
bfc0bb5c:	0002102b 	sltu	v0,zero,v0
bfc0bb60:	304300ff 	andi	v1,v0,0xff
bfc0bb64:	8fc20018 	lw	v0,24(s8)
bfc0bb68:	2442ffff 	addiu	v0,v0,-1
bfc0bb6c:	afc20018 	sw	v0,24(s8)
bfc0bb70:	1460fff1 	bnez	v1,bfc0bb38 <memset+0x28>
bfc0bb74:	00000000 	nop
D:\loongson\works\ls1d-mylib\lib\tinyc/memset.c:10
bfc0bb78:	8fc20010 	lw	v0,16(s8)
D:\loongson\works\ls1d-mylib\lib\tinyc/memset.c:11
bfc0bb7c:	03c0e821 	move	sp,s8
bfc0bb80:	8fbe000c 	lw	s8,12(sp)
bfc0bb84:	27bd0010 	addiu	sp,sp,16
bfc0bb88:	03e00008 	jr	ra
bfc0bb8c:	00000000 	nop

bfc0bb90 <memcpy>:
memcpy():
D:\loongson\works\ls1d-mylib\lib\tinyc/memcpy.c:5
bfc0bb90:	27bdfff0 	addiu	sp,sp,-16
bfc0bb94:	afbe000c 	sw	s8,12(sp)
bfc0bb98:	03a0f021 	move	s8,sp
bfc0bb9c:	afc40010 	sw	a0,16(s8)
bfc0bba0:	afc50014 	sw	a1,20(s8)
bfc0bba4:	afc60018 	sw	a2,24(s8)
bfc0bba8:	8fc20014 	lw	v0,20(s8)
bfc0bbac:	afc20004 	sw	v0,4(s8)
D:\loongson\works\ls1d-mylib\lib\tinyc/memcpy.c:6
bfc0bbb0:	8fc20010 	lw	v0,16(s8)
bfc0bbb4:	afc20000 	sw	v0,0(s8)
D:\loongson\works\ls1d-mylib\lib\tinyc/memcpy.c:8
bfc0bbb8:	8fc30004 	lw	v1,4(s8)
bfc0bbbc:	8fc20000 	lw	v0,0(s8)
bfc0bbc0:	0062102b 	sltu	v0,v1,v0
bfc0bbc4:	10400029 	beqz	v0,bfc0bc6c <memcpy+0xdc>
bfc0bbc8:	00000000 	nop
D:\loongson\works\ls1d-mylib\lib\tinyc/memcpy.c:9
bfc0bbcc:	8fc30018 	lw	v1,24(s8)
bfc0bbd0:	8fc20004 	lw	v0,4(s8)
bfc0bbd4:	00431021 	addu	v0,v0,v1
bfc0bbd8:	afc20004 	sw	v0,4(s8)
D:\loongson\works\ls1d-mylib\lib\tinyc/memcpy.c:10
bfc0bbdc:	8fc30018 	lw	v1,24(s8)
bfc0bbe0:	8fc20000 	lw	v0,0(s8)
bfc0bbe4:	00431021 	addu	v0,v0,v1
bfc0bbe8:	afc20000 	sw	v0,0(s8)
bfc0bbec:	0bf02f07 	j	bfc0bc1c <memcpy+0x8c>
bfc0bbf0:	00000000 	nop
D:\loongson\works\ls1d-mylib\lib\tinyc/memcpy.c:12
bfc0bbf4:	8fc20000 	lw	v0,0(s8)
bfc0bbf8:	2442ffff 	addiu	v0,v0,-1
bfc0bbfc:	afc20000 	sw	v0,0(s8)
bfc0bc00:	8fc20004 	lw	v0,4(s8)
bfc0bc04:	2442ffff 	addiu	v0,v0,-1
bfc0bc08:	afc20004 	sw	v0,4(s8)
bfc0bc0c:	8fc20004 	lw	v0,4(s8)
bfc0bc10:	80430000 	lb	v1,0(v0)
bfc0bc14:	8fc20000 	lw	v0,0(s8)
bfc0bc18:	a0430000 	sb	v1,0(v0)
D:\loongson\works\ls1d-mylib\lib\tinyc/memcpy.c:11
bfc0bc1c:	8fc20018 	lw	v0,24(s8)
bfc0bc20:	0002102a 	slt	v0,zero,v0
bfc0bc24:	304300ff 	andi	v1,v0,0xff
bfc0bc28:	8fc20018 	lw	v0,24(s8)
bfc0bc2c:	2442ffff 	addiu	v0,v0,-1
bfc0bc30:	afc20018 	sw	v0,24(s8)
bfc0bc34:	1460ffef 	bnez	v1,bfc0bbf4 <memcpy+0x64>
bfc0bc38:	00000000 	nop
bfc0bc3c:	0bf02f23 	j	bfc0bc8c <memcpy+0xfc>
bfc0bc40:	00000000 	nop
D:\loongson\works\ls1d-mylib\lib\tinyc/memcpy.c:16
bfc0bc44:	8fc20004 	lw	v0,4(s8)
bfc0bc48:	80430000 	lb	v1,0(v0)
bfc0bc4c:	8fc20000 	lw	v0,0(s8)
bfc0bc50:	a0430000 	sb	v1,0(v0)
bfc0bc54:	8fc20000 	lw	v0,0(s8)
bfc0bc58:	24420001 	addiu	v0,v0,1
bfc0bc5c:	afc20000 	sw	v0,0(s8)
bfc0bc60:	8fc20004 	lw	v0,4(s8)
bfc0bc64:	24420001 	addiu	v0,v0,1
bfc0bc68:	afc20004 	sw	v0,4(s8)
D:\loongson\works\ls1d-mylib\lib\tinyc/memcpy.c:15
bfc0bc6c:	8fc20018 	lw	v0,24(s8)
bfc0bc70:	0002102a 	slt	v0,zero,v0
bfc0bc74:	304300ff 	andi	v1,v0,0xff
bfc0bc78:	8fc20018 	lw	v0,24(s8)
bfc0bc7c:	2442ffff 	addiu	v0,v0,-1
bfc0bc80:	afc20018 	sw	v0,24(s8)
bfc0bc84:	1460ffef 	bnez	v1,bfc0bc44 <memcpy+0xb4>
bfc0bc88:	00000000 	nop
D:\loongson\works\ls1d-mylib\lib\tinyc/memcpy.c:18
bfc0bc8c:	8fc20010 	lw	v0,16(s8)
D:\loongson\works\ls1d-mylib\lib\tinyc/memcpy.c:19
bfc0bc90:	03c0e821 	move	sp,s8
bfc0bc94:	8fbe000c 	lw	s8,12(sp)
bfc0bc98:	27bd0010 	addiu	sp,sp,16
bfc0bc9c:	03e00008 	jr	ra
bfc0bca0:	00000000 	nop
bfc0bca4:	00000000 	nop
bfc0bca8:	00000000 	nop
bfc0bcac:	00000000 	nop

bfc0bcb0 <puts>:
puts():
D:\loongson\works\ls1d-mylib\lib\tinyc/puts.c:8
bfc0bcb0:	27bdffe0 	addiu	sp,sp,-32
bfc0bcb4:	afbf001c 	sw	ra,28(sp)
bfc0bcb8:	afbe0018 	sw	s8,24(sp)
bfc0bcbc:	03a0f021 	move	s8,sp
bfc0bcc0:	afc40020 	sw	a0,32(s8)
bfc0bcc4:	0bf02f45 	j	bfc0bd14 <puts+0x64>
bfc0bcc8:	00000000 	nop
bfc0bccc:	83c30010 	lb	v1,16(s8)
bfc0bcd0:	2402000a 	li	v0,10
bfc0bcd4:	14620006 	bne	v1,v0,bfc0bcf0 <puts+0x40>
bfc0bcd8:	00000000 	nop
bfc0bcdc:	2404000d 	li	a0,13
bfc0bce0:	3c02bfc1 	lui	v0,0xbfc1
bfc0bce4:	2459c200 	addiu	t9,v0,-15872
bfc0bce8:	0320f809 	jalr	t9
bfc0bcec:	00000000 	nop
D:\loongson\works\ls1d-mylib\lib\tinyc/puts.c:9
bfc0bcf0:	83c20010 	lb	v0,16(s8)
bfc0bcf4:	00402021 	move	a0,v0
bfc0bcf8:	3c02bfc1 	lui	v0,0xbfc1
bfc0bcfc:	2459c200 	addiu	t9,v0,-15872
bfc0bd00:	0320f809 	jalr	t9
bfc0bd04:	00000000 	nop
D:\loongson\works\ls1d-mylib\lib\tinyc/puts.c:10
bfc0bd08:	8fc20020 	lw	v0,32(s8)
bfc0bd0c:	24420001 	addiu	v0,v0,1
bfc0bd10:	afc20020 	sw	v0,32(s8)
D:\loongson\works\ls1d-mylib\lib\tinyc/puts.c:6
bfc0bd14:	8fc20020 	lw	v0,32(s8)
bfc0bd18:	90420000 	lbu	v0,0(v0)
bfc0bd1c:	a3c20010 	sb	v0,16(s8)
bfc0bd20:	83c20010 	lb	v0,16(s8)
bfc0bd24:	1440ffe9 	bnez	v0,bfc0bccc <puts+0x1c>
bfc0bd28:	00000000 	nop
D:\loongson\works\ls1d-mylib\lib\tinyc/puts.c:14
bfc0bd2c:	00001021 	move	v0,zero
D:\loongson\works\ls1d-mylib\lib\tinyc/puts.c:15
bfc0bd30:	03c0e821 	move	sp,s8
bfc0bd34:	8fbf001c 	lw	ra,28(sp)
bfc0bd38:	8fbe0018 	lw	s8,24(sp)
bfc0bd3c:	27bd0020 	addiu	sp,sp,32
bfc0bd40:	03e00008 	jr	ra
bfc0bd44:	00000000 	nop
bfc0bd48:	00000000 	nop
bfc0bd4c:	00000000 	nop

bfc0bd50 <strcmp>:
strcmp():
D:\loongson\works\ls1d-mylib\lib\tinyc/strcmp.c:7
bfc0bd50:	27bdfff0 	addiu	sp,sp,-16
bfc0bd54:	afbe000c 	sw	s8,12(sp)
bfc0bd58:	03a0f021 	move	s8,sp
bfc0bd5c:	afc40010 	sw	a0,16(s8)
bfc0bd60:	afc50014 	sw	a1,20(s8)
bfc0bd64:	0bf02f67 	j	bfc0bd9c <strcmp+0x4c>
bfc0bd68:	00000000 	nop
bfc0bd6c:	8fc20010 	lw	v0,16(s8)
bfc0bd70:	80420000 	lb	v0,0(v0)
bfc0bd74:	2c420001 	sltiu	v0,v0,1
bfc0bd78:	304300ff 	andi	v1,v0,0xff
bfc0bd7c:	8fc20010 	lw	v0,16(s8)
bfc0bd80:	24420001 	addiu	v0,v0,1
bfc0bd84:	afc20010 	sw	v0,16(s8)
bfc0bd88:	10600004 	beqz	v1,bfc0bd9c <strcmp+0x4c>
bfc0bd8c:	00000000 	nop
D:\loongson\works\ls1d-mylib\lib\tinyc/strcmp.c:8
bfc0bd90:	afc00000 	sw	zero,0(s8)
bfc0bd94:	0bf02f7d 	j	bfc0bdf4 <strcmp+0xa4>
bfc0bd98:	00000000 	nop
D:\loongson\works\ls1d-mylib\lib\tinyc/strcmp.c:6
bfc0bd9c:	8fc20010 	lw	v0,16(s8)
bfc0bda0:	80430000 	lb	v1,0(v0)
bfc0bda4:	8fc20014 	lw	v0,20(s8)
bfc0bda8:	80420000 	lb	v0,0(v0)
bfc0bdac:	00621026 	xor	v0,v1,v0
bfc0bdb0:	2c420001 	sltiu	v0,v0,1
bfc0bdb4:	304300ff 	andi	v1,v0,0xff
bfc0bdb8:	8fc20014 	lw	v0,20(s8)
bfc0bdbc:	24420001 	addiu	v0,v0,1
bfc0bdc0:	afc20014 	sw	v0,20(s8)
bfc0bdc4:	1460ffe9 	bnez	v1,bfc0bd6c <strcmp+0x1c>
bfc0bdc8:	00000000 	nop
D:\loongson\works\ls1d-mylib\lib\tinyc/strcmp.c:9
bfc0bdcc:	8fc20010 	lw	v0,16(s8)
bfc0bdd0:	90420000 	lbu	v0,0(v0)
bfc0bdd4:	00401821 	move	v1,v0
bfc0bdd8:	8fc20014 	lw	v0,20(s8)
bfc0bddc:	2442ffff 	addiu	v0,v0,-1
bfc0bde0:	afc20014 	sw	v0,20(s8)
bfc0bde4:	8fc20014 	lw	v0,20(s8)
bfc0bde8:	90420000 	lbu	v0,0(v0)
bfc0bdec:	00621823 	subu	v1,v1,v0
bfc0bdf0:	afc30000 	sw	v1,0(s8)
bfc0bdf4:	8fc20000 	lw	v0,0(s8)
D:\loongson\works\ls1d-mylib\lib\tinyc/strcmp.c:10
bfc0bdf8:	03c0e821 	move	sp,s8
bfc0bdfc:	8fbe000c 	lw	s8,12(sp)
bfc0be00:	27bd0010 	addiu	sp,sp,16
bfc0be04:	03e00008 	jr	ra
bfc0be08:	00000000 	nop
bfc0be0c:	00000000 	nop

bfc0be10 <printf>:
printf():
bfc0be10:	27bdffc8 	addiu	sp,sp,-56
bfc0be14:	afbf0034 	sw	ra,52(sp)
bfc0be18:	afbe0030 	sw	s8,48(sp)
bfc0be1c:	03a0f021 	move	s8,sp
bfc0be20:	afc5003c 	sw	a1,60(s8)
bfc0be24:	afc60040 	sw	a2,64(s8)
bfc0be28:	afc70044 	sw	a3,68(s8)
bfc0be2c:	afc40038 	sw	a0,56(s8)
bfc0be30:	27c2003c 	addiu	v0,s8,60
bfc0be34:	afc20020 	sw	v0,32(s8)
D:\loongson\works\ls1d-mylib\lib\tinyc/printf.c:11
bfc0be38:	8fc20020 	lw	v0,32(s8)
bfc0be3c:	afc20014 	sw	v0,20(s8)
D:\loongson\works\ls1d-mylib\lib\tinyc/printf.c:12
bfc0be40:	afc0001c 	sw	zero,28(s8)
bfc0be44:	0bf03073 	j	bfc0c1cc <printf+0x3bc>
bfc0be48:	00000000 	nop
D:\loongson\works\ls1d-mylib\lib\tinyc/printf.c:14
bfc0be4c:	8fc3001c 	lw	v1,28(s8)
bfc0be50:	8fc20038 	lw	v0,56(s8)
bfc0be54:	00431021 	addu	v0,v0,v1
bfc0be58:	90420000 	lbu	v0,0(v0)
bfc0be5c:	a3c20018 	sb	v0,24(s8)
D:\loongson\works\ls1d-mylib\lib\tinyc/printf.c:15
bfc0be60:	83c30018 	lb	v1,24(s8)
bfc0be64:	24020025 	li	v0,37
bfc0be68:	146200c6 	bne	v1,v0,bfc0c184 <printf+0x374>
bfc0be6c:	00000000 	nop
D:\loongson\works\ls1d-mylib\lib\tinyc/printf.c:17
bfc0be70:	24020001 	li	v0,1
bfc0be74:	afc20010 	sw	v0,16(s8)
D:\loongson\works\ls1d-mylib\lib\tinyc/printf.c:19
bfc0be78:	8fc2001c 	lw	v0,28(s8)
bfc0be7c:	24430001 	addiu	v1,v0,1
bfc0be80:	8fc20038 	lw	v0,56(s8)
bfc0be84:	00431021 	addu	v0,v0,v1
bfc0be88:	80420000 	lb	v0,0(v0)
bfc0be8c:	2442ffdb 	addiu	v0,v0,-37
bfc0be90:	afc20028 	sw	v0,40(s8)
bfc0be94:	8fc30028 	lw	v1,40(s8)
bfc0be98:	2c620054 	sltiu	v0,v1,84
bfc0be9c:	104000b2 	beqz	v0,bfc0c168 <printf+0x358>
bfc0bea0:	00000000 	nop
bfc0bea4:	8fc20028 	lw	v0,40(s8)
bfc0bea8:	00021880 	sll	v1,v0,0x2
bfc0beac:	3c02bfc1 	lui	v0,0xbfc1
bfc0beb0:	2442d6a0 	addiu	v0,v0,-10592
bfc0beb4:	00621021 	addu	v0,v1,v0
bfc0beb8:	8c420000 	lw	v0,0(v0)
bfc0bebc:	00400008 	jr	v0
bfc0bec0:	00000000 	nop
D:\loongson\works\ls1d-mylib\lib\tinyc/printf.c:22
bfc0bec4:	8fc20014 	lw	v0,20(s8)
bfc0bec8:	8c420000 	lw	v0,0(v0)
bfc0becc:	00402021 	move	a0,v0
bfc0bed0:	3c02bfc1 	lui	v0,0xbfc1
bfc0bed4:	2459bcb0 	addiu	t9,v0,-17232
bfc0bed8:	0320f809 	jalr	t9
bfc0bedc:	00000000 	nop
D:\loongson\works\ls1d-mylib\lib\tinyc/printf.c:23
bfc0bee0:	8fc20014 	lw	v0,20(s8)
bfc0bee4:	24420004 	addiu	v0,v0,4
bfc0bee8:	afc20014 	sw	v0,20(s8)
D:\loongson\works\ls1d-mylib\lib\tinyc/printf.c:24
bfc0beec:	8fc2001c 	lw	v0,28(s8)
bfc0bef0:	24420001 	addiu	v0,v0,1
bfc0bef4:	afc2001c 	sw	v0,28(s8)
bfc0bef8:	0bf03070 	j	bfc0c1c0 <printf+0x3b0>
bfc0befc:	00000000 	nop
D:\loongson\works\ls1d-mylib\lib\tinyc/printf.c:27
bfc0bf00:	8fc20014 	lw	v0,20(s8)
bfc0bf04:	8c420000 	lw	v0,0(v0)
bfc0bf08:	00402021 	move	a0,v0
bfc0bf0c:	3c02bfc1 	lui	v0,0xbfc1
bfc0bf10:	2459c200 	addiu	t9,v0,-15872
bfc0bf14:	0320f809 	jalr	t9
bfc0bf18:	00000000 	nop
D:\loongson\works\ls1d-mylib\lib\tinyc/printf.c:28
bfc0bf1c:	8fc20014 	lw	v0,20(s8)
bfc0bf20:	24420004 	addiu	v0,v0,4
bfc0bf24:	afc20014 	sw	v0,20(s8)
D:\loongson\works\ls1d-mylib\lib\tinyc/printf.c:29
bfc0bf28:	8fc2001c 	lw	v0,28(s8)
bfc0bf2c:	24420001 	addiu	v0,v0,1
bfc0bf30:	afc2001c 	sw	v0,28(s8)
bfc0bf34:	0bf03070 	j	bfc0c1c0 <printf+0x3b0>
bfc0bf38:	00000000 	nop
D:\loongson\works\ls1d-mylib\lib\tinyc/printf.c:32
bfc0bf3c:	8fc20014 	lw	v0,20(s8)
bfc0bf40:	8c420000 	lw	v0,0(v0)
bfc0bf44:	00402021 	move	a0,v0
bfc0bf48:	8fc50010 	lw	a1,16(s8)
bfc0bf4c:	2406000a 	li	a2,10
bfc0bf50:	00003821 	move	a3,zero
bfc0bf54:	3c02bfc1 	lui	v0,0xbfc1
bfc0bf58:	2459c250 	addiu	t9,v0,-15792
bfc0bf5c:	0320f809 	jalr	t9
bfc0bf60:	00000000 	nop
D:\loongson\works\ls1d-mylib\lib\tinyc/printf.c:33
bfc0bf64:	8fc20014 	lw	v0,20(s8)
bfc0bf68:	24420004 	addiu	v0,v0,4
bfc0bf6c:	afc20014 	sw	v0,20(s8)
D:\loongson\works\ls1d-mylib\lib\tinyc/printf.c:34
bfc0bf70:	8fc2001c 	lw	v0,28(s8)
bfc0bf74:	24420001 	addiu	v0,v0,1
bfc0bf78:	afc2001c 	sw	v0,28(s8)
bfc0bf7c:	0bf03070 	j	bfc0c1c0 <printf+0x3b0>
bfc0bf80:	00000000 	nop
D:\loongson\works\ls1d-mylib\lib\tinyc/printf.c:37
bfc0bf84:	8fc20014 	lw	v0,20(s8)
bfc0bf88:	8c420000 	lw	v0,0(v0)
bfc0bf8c:	00402021 	move	a0,v0
bfc0bf90:	8fc50010 	lw	a1,16(s8)
bfc0bf94:	2406000a 	li	a2,10
bfc0bf98:	24070001 	li	a3,1
bfc0bf9c:	3c02bfc1 	lui	v0,0xbfc1
bfc0bfa0:	2459c250 	addiu	t9,v0,-15792
bfc0bfa4:	0320f809 	jalr	t9
bfc0bfa8:	00000000 	nop
D:\loongson\works\ls1d-mylib\lib\tinyc/printf.c:38
bfc0bfac:	8fc20014 	lw	v0,20(s8)
bfc0bfb0:	24420004 	addiu	v0,v0,4
bfc0bfb4:	afc20014 	sw	v0,20(s8)
D:\loongson\works\ls1d-mylib\lib\tinyc/printf.c:39
bfc0bfb8:	8fc2001c 	lw	v0,28(s8)
bfc0bfbc:	24420001 	addiu	v0,v0,1
bfc0bfc0:	afc2001c 	sw	v0,28(s8)
bfc0bfc4:	0bf03070 	j	bfc0c1c0 <printf+0x3b0>
bfc0bfc8:	00000000 	nop
D:\loongson\works\ls1d-mylib\lib\tinyc/printf.c:42
bfc0bfcc:	8fc20014 	lw	v0,20(s8)
bfc0bfd0:	8c420000 	lw	v0,0(v0)
bfc0bfd4:	00402021 	move	a0,v0
bfc0bfd8:	8fc50010 	lw	a1,16(s8)
bfc0bfdc:	24060008 	li	a2,8
bfc0bfe0:	00003821 	move	a3,zero
bfc0bfe4:	3c02bfc1 	lui	v0,0xbfc1
bfc0bfe8:	2459c250 	addiu	t9,v0,-15792
bfc0bfec:	0320f809 	jalr	t9
bfc0bff0:	00000000 	nop
D:\loongson\works\ls1d-mylib\lib\tinyc/printf.c:43
bfc0bff4:	8fc20014 	lw	v0,20(s8)
bfc0bff8:	24420004 	addiu	v0,v0,4
bfc0bffc:	afc20014 	sw	v0,20(s8)
D:\loongson\works\ls1d-mylib\lib\tinyc/printf.c:44
bfc0c000:	8fc2001c 	lw	v0,28(s8)
bfc0c004:	24420001 	addiu	v0,v0,1
bfc0c008:	afc2001c 	sw	v0,28(s8)
bfc0c00c:	0bf03070 	j	bfc0c1c0 <printf+0x3b0>
bfc0c010:	00000000 	nop
D:\loongson\works\ls1d-mylib\lib\tinyc/printf.c:47
bfc0c014:	8fc20014 	lw	v0,20(s8)
bfc0c018:	8c420000 	lw	v0,0(v0)
bfc0c01c:	00402021 	move	a0,v0
bfc0c020:	8fc50010 	lw	a1,16(s8)
bfc0c024:	24060002 	li	a2,2
bfc0c028:	00003821 	move	a3,zero
bfc0c02c:	3c02bfc1 	lui	v0,0xbfc1
bfc0c030:	2459c250 	addiu	t9,v0,-15792
bfc0c034:	0320f809 	jalr	t9
bfc0c038:	00000000 	nop
D:\loongson\works\ls1d-mylib\lib\tinyc/printf.c:48
bfc0c03c:	8fc20014 	lw	v0,20(s8)
bfc0c040:	24420004 	addiu	v0,v0,4
bfc0c044:	afc20014 	sw	v0,20(s8)
D:\loongson\works\ls1d-mylib\lib\tinyc/printf.c:49
bfc0c048:	8fc2001c 	lw	v0,28(s8)
bfc0c04c:	24420001 	addiu	v0,v0,1
bfc0c050:	afc2001c 	sw	v0,28(s8)
bfc0c054:	0bf03070 	j	bfc0c1c0 <printf+0x3b0>
bfc0c058:	00000000 	nop
D:\loongson\works\ls1d-mylib\lib\tinyc/printf.c:53
bfc0c05c:	8fc20014 	lw	v0,20(s8)
bfc0c060:	8c420000 	lw	v0,0(v0)
bfc0c064:	00402021 	move	a0,v0
bfc0c068:	8fc50010 	lw	a1,16(s8)
bfc0c06c:	24060010 	li	a2,16
bfc0c070:	00003821 	move	a3,zero
bfc0c074:	3c02bfc1 	lui	v0,0xbfc1
bfc0c078:	2459c250 	addiu	t9,v0,-15792
bfc0c07c:	0320f809 	jalr	t9
bfc0c080:	00000000 	nop
D:\loongson\works\ls1d-mylib\lib\tinyc/printf.c:54
bfc0c084:	8fc20014 	lw	v0,20(s8)
bfc0c088:	24420004 	addiu	v0,v0,4
bfc0c08c:	afc20014 	sw	v0,20(s8)
D:\loongson\works\ls1d-mylib\lib\tinyc/printf.c:55
bfc0c090:	8fc2001c 	lw	v0,28(s8)
bfc0c094:	24420001 	addiu	v0,v0,1
bfc0c098:	afc2001c 	sw	v0,28(s8)
bfc0c09c:	0bf03070 	j	bfc0c1c0 <printf+0x3b0>
bfc0c0a0:	00000000 	nop
D:\loongson\works\ls1d-mylib\lib\tinyc/printf.c:58
bfc0c0a4:	24040025 	li	a0,37
bfc0c0a8:	3c02bfc1 	lui	v0,0xbfc1
bfc0c0ac:	2459c200 	addiu	t9,v0,-15872
bfc0c0b0:	0320f809 	jalr	t9
bfc0c0b4:	00000000 	nop
D:\loongson\works\ls1d-mylib\lib\tinyc/printf.c:59
bfc0c0b8:	8fc2001c 	lw	v0,28(s8)
bfc0c0bc:	24420001 	addiu	v0,v0,1
bfc0c0c0:	afc2001c 	sw	v0,28(s8)
bfc0c0c4:	0bf03070 	j	bfc0c1c0 <printf+0x3b0>
bfc0c0c8:	00000000 	nop
D:\loongson\works\ls1d-mylib\lib\tinyc/printf.c:62
bfc0c0cc:	8fc2001c 	lw	v0,28(s8)
bfc0c0d0:	24420001 	addiu	v0,v0,1
bfc0c0d4:	afc2001c 	sw	v0,28(s8)
D:\loongson\works\ls1d-mylib\lib\tinyc/printf.c:64
bfc0c0d8:	afc00010 	sw	zero,16(s8)
bfc0c0dc:	0bf03048 	j	bfc0c120 <printf+0x310>
bfc0c0e0:	00000000 	nop
D:\loongson\works\ls1d-mylib\lib\tinyc/printf.c:65
bfc0c0e4:	8fc20010 	lw	v0,16(s8)
bfc0c0e8:	00021840 	sll	v1,v0,0x1
bfc0c0ec:	00031080 	sll	v0,v1,0x2
bfc0c0f0:	00622021 	addu	a0,v1,v0
bfc0c0f4:	8fc2001c 	lw	v0,28(s8)
bfc0c0f8:	24430001 	addiu	v1,v0,1
bfc0c0fc:	8fc20038 	lw	v0,56(s8)
bfc0c100:	00431021 	addu	v0,v0,v1
bfc0c104:	80420000 	lb	v0,0(v0)
bfc0c108:	2442ffd0 	addiu	v0,v0,-48
bfc0c10c:	00821021 	addu	v0,a0,v0
bfc0c110:	afc20010 	sw	v0,16(s8)
D:\loongson\works\ls1d-mylib\lib\tinyc/printf.c:64
bfc0c114:	8fc2001c 	lw	v0,28(s8)
bfc0c118:	24420001 	addiu	v0,v0,1
bfc0c11c:	afc2001c 	sw	v0,28(s8)
bfc0c120:	8fc2001c 	lw	v0,28(s8)
bfc0c124:	24430001 	addiu	v1,v0,1
bfc0c128:	8fc20038 	lw	v0,56(s8)
bfc0c12c:	00431021 	addu	v0,v0,v1
bfc0c130:	80420000 	lb	v0,0(v0)
bfc0c134:	28420031 	slti	v0,v0,49
bfc0c138:	1440ff4f 	bnez	v0,bfc0be78 <printf+0x68>
bfc0c13c:	00000000 	nop
bfc0c140:	8fc2001c 	lw	v0,28(s8)
bfc0c144:	24430001 	addiu	v1,v0,1
bfc0c148:	8fc20038 	lw	v0,56(s8)
bfc0c14c:	00431021 	addu	v0,v0,v1
bfc0c150:	80420000 	lb	v0,0(v0)
bfc0c154:	2842003a 	slti	v0,v0,58
bfc0c158:	1440ffe2 	bnez	v0,bfc0c0e4 <printf+0x2d4>
bfc0c15c:	00000000 	nop
bfc0c160:	0bf02f9e 	j	bfc0be78 <printf+0x68>
bfc0c164:	00000000 	nop
D:\loongson\works\ls1d-mylib\lib\tinyc/printf.c:70
bfc0c168:	24040025 	li	a0,37
bfc0c16c:	3c02bfc1 	lui	v0,0xbfc1
bfc0c170:	2459c200 	addiu	t9,v0,-15872
bfc0c174:	0320f809 	jalr	t9
bfc0c178:	00000000 	nop
bfc0c17c:	0bf03070 	j	bfc0c1c0 <printf+0x3b0>
bfc0c180:	00000000 	nop
D:\loongson\works\ls1d-mylib\lib\tinyc/printf.c:76
bfc0c184:	83c30018 	lb	v1,24(s8)
bfc0c188:	2402000a 	li	v0,10
bfc0c18c:	14620006 	bne	v1,v0,bfc0c1a8 <printf+0x398>
bfc0c190:	00000000 	nop
bfc0c194:	2404000d 	li	a0,13
bfc0c198:	3c02bfc1 	lui	v0,0xbfc1
bfc0c19c:	2459c200 	addiu	t9,v0,-15872
bfc0c1a0:	0320f809 	jalr	t9
bfc0c1a4:	00000000 	nop
D:\loongson\works\ls1d-mylib\lib\tinyc/printf.c:77
bfc0c1a8:	83c20018 	lb	v0,24(s8)
bfc0c1ac:	00402021 	move	a0,v0
bfc0c1b0:	3c02bfc1 	lui	v0,0xbfc1
bfc0c1b4:	2459c200 	addiu	t9,v0,-15872
bfc0c1b8:	0320f809 	jalr	t9
bfc0c1bc:	00000000 	nop
D:\loongson\works\ls1d-mylib\lib\tinyc/printf.c:12
bfc0c1c0:	8fc2001c 	lw	v0,28(s8)
bfc0c1c4:	24420001 	addiu	v0,v0,1
bfc0c1c8:	afc2001c 	sw	v0,28(s8)
bfc0c1cc:	8fc3001c 	lw	v1,28(s8)
bfc0c1d0:	8fc20038 	lw	v0,56(s8)
bfc0c1d4:	00431021 	addu	v0,v0,v1
bfc0c1d8:	80420000 	lb	v0,0(v0)
bfc0c1dc:	1440ff1b 	bnez	v0,bfc0be4c <printf+0x3c>
bfc0c1e0:	00000000 	nop
D:\loongson\works\ls1d-mylib\lib\tinyc/printf.c:80
bfc0c1e4:	00001021 	move	v0,zero
D:\loongson\works\ls1d-mylib\lib\tinyc/printf.c:81
bfc0c1e8:	03c0e821 	move	sp,s8
bfc0c1ec:	8fbf0034 	lw	ra,52(sp)
bfc0c1f0:	8fbe0030 	lw	s8,48(sp)
bfc0c1f4:	27bd0038 	addiu	sp,sp,56
bfc0c1f8:	03e00008 	jr	ra
bfc0c1fc:	00000000 	nop

bfc0c200 <putchar>:
putchar():
D:\loongson\works\ls1d-mylib\lib\tinyc/putchar.c:6
bfc0c200:	27bdffe8 	addiu	sp,sp,-24
bfc0c204:	afbf0014 	sw	ra,20(sp)
bfc0c208:	afbe0010 	sw	s8,16(sp)
bfc0c20c:	03a0f021 	move	s8,sp
bfc0c210:	afc40018 	sw	a0,24(s8)
bfc0c214:	8fc20018 	lw	v0,24(s8)
bfc0c218:	304200ff 	andi	v0,v0,0xff
bfc0c21c:	00402021 	move	a0,v0
bfc0c220:	3c02bfc0 	lui	v0,0xbfc0
bfc0c224:	24597660 	addiu	t9,v0,30304
bfc0c228:	0320f809 	jalr	t9
bfc0c22c:	00000000 	nop
D:\loongson\works\ls1d-mylib\lib\tinyc/putchar.c:7
bfc0c230:	00001021 	move	v0,zero
D:\loongson\works\ls1d-mylib\lib\tinyc/putchar.c:8
bfc0c234:	03c0e821 	move	sp,s8
bfc0c238:	8fbf0014 	lw	ra,20(sp)
bfc0c23c:	8fbe0010 	lw	s8,16(sp)
bfc0c240:	27bd0018 	addiu	sp,sp,24
bfc0c244:	03e00008 	jr	ra
bfc0c248:	00000000 	nop
bfc0c24c:	00000000 	nop

bfc0c250 <printbase>:
printbase():
D:\loongson\works\ls1d-mylib\lib\tinyc/printbase.c:4
bfc0c250:	27bdff88 	addiu	sp,sp,-120
bfc0c254:	afbf0074 	sw	ra,116(sp)
bfc0c258:	afbe0070 	sw	s8,112(sp)
bfc0c25c:	03a0f021 	move	s8,sp
bfc0c260:	afc40078 	sw	a0,120(s8)
bfc0c264:	afc5007c 	sw	a1,124(s8)
bfc0c268:	afc60080 	sw	a2,128(s8)
bfc0c26c:	afc70084 	sw	a3,132(s8)
D:\loongson\works\ls1d-mylib\lib\tinyc/printbase.c:9
bfc0c270:	8fc20084 	lw	v0,132(s8)
bfc0c274:	1040000e 	beqz	v0,bfc0c2b0 <printbase+0x60>
bfc0c278:	00000000 	nop
bfc0c27c:	8fc20078 	lw	v0,120(s8)
bfc0c280:	0441000b 	bgez	v0,bfc0c2b0 <printbase+0x60>
bfc0c284:	00000000 	nop
D:\loongson\works\ls1d-mylib\lib\tinyc/printbase.c:11
bfc0c288:	8fc20078 	lw	v0,120(s8)
bfc0c28c:	00021023 	negu	v0,v0
bfc0c290:	afc20010 	sw	v0,16(s8)
D:\loongson\works\ls1d-mylib\lib\tinyc/printbase.c:12
bfc0c294:	2404002d 	li	a0,45
bfc0c298:	3c02bfc1 	lui	v0,0xbfc1
bfc0c29c:	2459c200 	addiu	t9,v0,-15872
bfc0c2a0:	0320f809 	jalr	t9
bfc0c2a4:	00000000 	nop
bfc0c2a8:	0bf030ae 	j	bfc0c2b8 <printbase+0x68>
bfc0c2ac:	00000000 	nop
D:\loongson\works\ls1d-mylib\lib\tinyc/printbase.c:14
bfc0c2b0:	8fc20078 	lw	v0,120(s8)
bfc0c2b4:	afc20010 	sw	v0,16(s8)
D:\loongson\works\ls1d-mylib\lib\tinyc/printbase.c:16
bfc0c2b8:	afc0001c 	sw	zero,28(s8)
bfc0c2bc:	0bf030c5 	j	bfc0c314 <printbase+0xc4>
bfc0c2c0:	00000000 	nop
D:\loongson\works\ls1d-mylib\lib\tinyc/printbase.c:18
bfc0c2c4:	8fc4001c 	lw	a0,28(s8)
bfc0c2c8:	8fc30080 	lw	v1,128(s8)
bfc0c2cc:	8fc20010 	lw	v0,16(s8)
bfc0c2d0:	0043001b 	divu	zero,v0,v1
bfc0c2d4:	006001f4 	teq	v1,zero,0x7
bfc0c2d8:	00001010 	mfhi	v0
bfc0c2dc:	00021e00 	sll	v1,v0,0x18
bfc0c2e0:	00031e03 	sra	v1,v1,0x18
bfc0c2e4:	27c20010 	addiu	v0,s8,16
bfc0c2e8:	00441021 	addu	v0,v0,a0
bfc0c2ec:	a0430010 	sb	v1,16(v0)
D:\loongson\works\ls1d-mylib\lib\tinyc/printbase.c:19
bfc0c2f0:	8fc30080 	lw	v1,128(s8)
bfc0c2f4:	8fc20010 	lw	v0,16(s8)
bfc0c2f8:	0043001b 	divu	zero,v0,v1
bfc0c2fc:	006001f4 	teq	v1,zero,0x7
bfc0c300:	00001012 	mflo	v0
bfc0c304:	afc20010 	sw	v0,16(s8)
D:\loongson\works\ls1d-mylib\lib\tinyc/printbase.c:16
bfc0c308:	8fc2001c 	lw	v0,28(s8)
bfc0c30c:	24420001 	addiu	v0,v0,1
bfc0c310:	afc2001c 	sw	v0,28(s8)
bfc0c314:	8fc20010 	lw	v0,16(s8)
bfc0c318:	1440ffea 	bnez	v0,bfc0c2c4 <printbase+0x74>
bfc0c31c:	00000000 	nop
D:\loongson\works\ls1d-mylib\lib\tinyc/printbase.c:24
bfc0c320:	8fc3007c 	lw	v1,124(s8)
bfc0c324:	8fc4001c 	lw	a0,28(s8)
bfc0c328:	8fc2001c 	lw	v0,28(s8)
bfc0c32c:	0043102a 	slt	v0,v0,v1
bfc0c330:	00602821 	move	a1,v1
bfc0c334:	0082280a 	movz	a1,a0,v0
bfc0c338:	00a01021 	move	v0,a1
bfc0c33c:	afc20018 	sw	v0,24(s8)
bfc0c340:	0bf030f6 	j	bfc0c3d8 <printbase+0x188>
bfc0c344:	00000000 	nop
D:\loongson\works\ls1d-mylib\lib\tinyc/printbase.c:26
bfc0c348:	8fc20018 	lw	v0,24(s8)
bfc0c34c:	8fc3001c 	lw	v1,28(s8)
bfc0c350:	0062102a 	slt	v0,v1,v0
bfc0c354:	14400009 	bnez	v0,bfc0c37c <printbase+0x12c>
bfc0c358:	00000000 	nop
bfc0c35c:	8fc20018 	lw	v0,24(s8)
bfc0c360:	2443ffff 	addiu	v1,v0,-1
bfc0c364:	27c20010 	addiu	v0,s8,16
bfc0c368:	00431021 	addu	v0,v0,v1
bfc0c36c:	80420010 	lb	v0,16(v0)
bfc0c370:	afc20064 	sw	v0,100(s8)
bfc0c374:	0bf030e0 	j	bfc0c380 <printbase+0x130>
bfc0c378:	00000000 	nop
bfc0c37c:	afc00064 	sw	zero,100(s8)
bfc0c380:	8fc20064 	lw	v0,100(s8)
bfc0c384:	afc20014 	sw	v0,20(s8)
D:\loongson\works\ls1d-mylib\lib\tinyc/printbase.c:27
bfc0c388:	8fc20014 	lw	v0,20(s8)
bfc0c38c:	2842000a 	slti	v0,v0,10
bfc0c390:	10400006 	beqz	v0,bfc0c3ac <printbase+0x15c>
bfc0c394:	00000000 	nop
bfc0c398:	8fc20014 	lw	v0,20(s8)
bfc0c39c:	24420030 	addiu	v0,v0,48
bfc0c3a0:	afc20060 	sw	v0,96(s8)
bfc0c3a4:	0bf030ee 	j	bfc0c3b8 <printbase+0x168>
bfc0c3a8:	00000000 	nop
bfc0c3ac:	8fc20014 	lw	v0,20(s8)
bfc0c3b0:	24420057 	addiu	v0,v0,87
bfc0c3b4:	afc20060 	sw	v0,96(s8)
bfc0c3b8:	8fc40060 	lw	a0,96(s8)
bfc0c3bc:	3c02bfc1 	lui	v0,0xbfc1
bfc0c3c0:	2459c200 	addiu	t9,v0,-15872
bfc0c3c4:	0320f809 	jalr	t9
bfc0c3c8:	00000000 	nop
D:\loongson\works\ls1d-mylib\lib\tinyc/printbase.c:24
bfc0c3cc:	8fc20018 	lw	v0,24(s8)
bfc0c3d0:	2442ffff 	addiu	v0,v0,-1
bfc0c3d4:	afc20018 	sw	v0,24(s8)
bfc0c3d8:	8fc20018 	lw	v0,24(s8)
bfc0c3dc:	1c40ffda 	bgtz	v0,bfc0c348 <printbase+0xf8>
bfc0c3e0:	00000000 	nop
D:\loongson\works\ls1d-mylib\lib\tinyc/printbase.c:29
bfc0c3e4:	00001021 	move	v0,zero
D:\loongson\works\ls1d-mylib\lib\tinyc/printbase.c:30
bfc0c3e8:	03c0e821 	move	sp,s8
bfc0c3ec:	8fbf0074 	lw	ra,116(sp)
bfc0c3f0:	8fbe0070 	lw	s8,112(sp)
bfc0c3f4:	27bd0078 	addiu	sp,sp,120
bfc0c3f8:	03e00008 	jr	ra
bfc0c3fc:	00000000 	nop
